
EIT_Arduino_V3.elf:     file format elf32-avr

Sections:
Idx Name          Size      VMA       LMA       File off  Algn
  0 .data         00000094  00800100  000065da  0000666e  2**0
                  CONTENTS, ALLOC, LOAD, DATA
  1 .text         000065da  00000000  00000000  00000094  2**1
                  CONTENTS, ALLOC, LOAD, READONLY, CODE
  2 .bss          00000141  00800194  00800194  00006702  2**0
                  ALLOC
  3 .comment      00000030  00000000  00000000  00006702  2**0
                  CONTENTS, READONLY
  4 .note.gnu.avr.deviceinfo 00000040  00000000  00000000  00006734  2**2
                  CONTENTS, READONLY
  5 .debug_aranges 00000a18  00000000  00000000  00006778  2**3
                  CONTENTS, READONLY, DEBUGGING
  6 .debug_info   000168c9  00000000  00000000  00007190  2**0
                  CONTENTS, READONLY, DEBUGGING
  7 .debug_abbrev 000042bf  00000000  00000000  0001da59  2**0
                  CONTENTS, READONLY, DEBUGGING
  8 .debug_line   000065a9  00000000  00000000  00021d18  2**0
                  CONTENTS, READONLY, DEBUGGING
  9 .debug_frame  00002354  00000000  00000000  000282c4  2**2
                  CONTENTS, READONLY, DEBUGGING
 10 .debug_str    000056b8  00000000  00000000  0002a618  2**0
                  CONTENTS, READONLY, DEBUGGING
 11 .debug_loc    0000b1e6  00000000  00000000  0002fcd0  2**0
                  CONTENTS, READONLY, DEBUGGING
 12 .debug_ranges 00000ba8  00000000  00000000  0003aeb6  2**0
                  CONTENTS, READONLY, DEBUGGING

Disassembly of section .text:

00000000 <__vectors>:
       0:	0c 94 ba 01 	jmp	0x374	; 0x374 <__ctors_end>
       4:	0c 94 e2 01 	jmp	0x3c4	; 0x3c4 <__bad_interrupt>
       8:	0c 94 e2 01 	jmp	0x3c4	; 0x3c4 <__bad_interrupt>
       c:	0c 94 e2 01 	jmp	0x3c4	; 0x3c4 <__bad_interrupt>
      10:	0c 94 e2 01 	jmp	0x3c4	; 0x3c4 <__bad_interrupt>
      14:	0c 94 e2 01 	jmp	0x3c4	; 0x3c4 <__bad_interrupt>
      18:	0c 94 e2 01 	jmp	0x3c4	; 0x3c4 <__bad_interrupt>
      1c:	0c 94 e2 01 	jmp	0x3c4	; 0x3c4 <__bad_interrupt>
      20:	0c 94 e2 01 	jmp	0x3c4	; 0x3c4 <__bad_interrupt>
      24:	0c 94 e2 01 	jmp	0x3c4	; 0x3c4 <__bad_interrupt>
      28:	0c 94 fd 28 	jmp	0x51fa	; 0x51fa <__vector_10>
      2c:	0c 94 99 27 	jmp	0x4f32	; 0x4f32 <__vector_11>
      30:	0c 94 e2 01 	jmp	0x3c4	; 0x3c4 <__bad_interrupt>
      34:	0c 94 e2 01 	jmp	0x3c4	; 0x3c4 <__bad_interrupt>
      38:	0c 94 e2 01 	jmp	0x3c4	; 0x3c4 <__bad_interrupt>
      3c:	0c 94 e2 01 	jmp	0x3c4	; 0x3c4 <__bad_interrupt>
      40:	0c 94 e2 01 	jmp	0x3c4	; 0x3c4 <__bad_interrupt>
      44:	0c 94 e2 01 	jmp	0x3c4	; 0x3c4 <__bad_interrupt>
      48:	0c 94 e2 01 	jmp	0x3c4	; 0x3c4 <__bad_interrupt>
      4c:	0c 94 e2 01 	jmp	0x3c4	; 0x3c4 <__bad_interrupt>
      50:	0c 94 e2 01 	jmp	0x3c4	; 0x3c4 <__bad_interrupt>
      54:	0c 94 e2 01 	jmp	0x3c4	; 0x3c4 <__bad_interrupt>
      58:	0c 94 e2 01 	jmp	0x3c4	; 0x3c4 <__bad_interrupt>
      5c:	0c 94 91 29 	jmp	0x5322	; 0x5322 <__vector_23>
      60:	0c 94 e2 01 	jmp	0x3c4	; 0x3c4 <__bad_interrupt>
      64:	0c 94 e2 01 	jmp	0x3c4	; 0x3c4 <__bad_interrupt>
      68:	0c 94 e2 01 	jmp	0x3c4	; 0x3c4 <__bad_interrupt>
      6c:	0c 94 e2 01 	jmp	0x3c4	; 0x3c4 <__bad_interrupt>
      70:	0c 94 e2 01 	jmp	0x3c4	; 0x3c4 <__bad_interrupt>
      74:	0c 94 e2 01 	jmp	0x3c4	; 0x3c4 <__bad_interrupt>
      78:	0c 94 e2 01 	jmp	0x3c4	; 0x3c4 <__bad_interrupt>
      7c:	0c 94 e2 01 	jmp	0x3c4	; 0x3c4 <__bad_interrupt>
      80:	0c 94 e2 01 	jmp	0x3c4	; 0x3c4 <__bad_interrupt>
      84:	0c 94 e2 01 	jmp	0x3c4	; 0x3c4 <__bad_interrupt>
      88:	0c 94 e2 01 	jmp	0x3c4	; 0x3c4 <__bad_interrupt>
      8c:	0c 94 e2 01 	jmp	0x3c4	; 0x3c4 <__bad_interrupt>
      90:	0c 94 17 30 	jmp	0x602e	; 0x602e <__vector_36>
      94:	0c 94 e2 01 	jmp	0x3c4	; 0x3c4 <__bad_interrupt>
      98:	0c 94 e2 01 	jmp	0x3c4	; 0x3c4 <__bad_interrupt>
      9c:	0c 94 e2 01 	jmp	0x3c4	; 0x3c4 <__bad_interrupt>
      a0:	0c 94 e2 01 	jmp	0x3c4	; 0x3c4 <__bad_interrupt>
      a4:	0c 94 e2 01 	jmp	0x3c4	; 0x3c4 <__bad_interrupt>
      a8:	0c 94 e2 01 	jmp	0x3c4	; 0x3c4 <__bad_interrupt>
      ac:	b5 2a       	or	r11, r21
      ae:	b8 2a       	or	r11, r24
      b0:	a7 2a       	or	r10, r23
      b2:	ab 2a       	or	r10, r27
      b4:	b1 2a       	or	r11, r17
      b6:	d9 2a       	or	r13, r25
      b8:	d9 2a       	or	r13, r25
      ba:	d9 2a       	or	r13, r25
      bc:	bc 2a       	or	r11, r28
      be:	c0 2a       	or	r12, r16
      c0:	c4 2a       	or	r12, r20
      c2:	ca 2a       	or	r12, r26
      c4:	ce 2a       	or	r12, r30
      c6:	d9 2a       	or	r13, r25
      c8:	d4 2a       	or	r13, r20

000000ca <__trampolines_end>:
      ca:	5d 3a       	cpi	r21, 0xAD	; 173
	...

000000cd <_ZZ4loopE3__c>:
      cd:	50 61 74 74 65 72 6e 20 44 61 74 61 20 5b 00        Pattern Data [.

000000dc <_ZZ5setupE3__c>:
      dc:	52 45 41 44 59 00                                   READY.

000000e2 <_ZZ12testFunctionvE3__c_11>:
      e2:	4d 65 61 73 20 56 6f 6c 74 61 67 65 3a 00           Meas Voltage:.

000000f0 <_ZZ12testFunctionvE3__c_10>:
      f0:	4d 65 61 73 75 72 65 64 20 49 6d 70 65 64 61 6e     Measured Impedan
     100:	63 65 73 3a 20 00                                   ces: .

00000106 <_ZZ12testFunctionvE3__c_9>:
     106:	2d 2d 2d 2d 2d 2d 2d 2d 2d 2d 2d 2d 2d 2d 2d 2d     ----------------
     116:	2d 2d 2d 2d 2d 2d 2d 2d 2d 2d 2d 2d 2d 2d 2d 2d     ----------------
     126:	2d 2d 2d 2d 2d 2d 2d 2d 2d 2d 2d 00                 -----------.

00000132 <_ZZ12testFunctionvE3__c_8>:
     132:	63 6f 6d 70 65 6e 73 61 74 69 6f 6e 5f 5a 5f 49     compensation_Z_I
     142:	6d 20 3d 20 00                                      m = .

00000147 <_ZZ12testFunctionvE3__c_7>:
     147:	63 6f 6d 70 65 6e 73 61 74 69 6f 6e 5f 5a 5f 52     compensation_Z_R
     157:	65 20 3d 20 00                                      e = .

0000015c <_ZZ12testFunctionvE3__c_6>:
     15c:	63 6f 6d 70 65 6e 73 61 74 69 6f 6e 5f 56 5f 49     compensation_V_I
     16c:	6d 20 3d 20 00                                      m = .

00000171 <_ZZ12testFunctionvE3__c_5>:
     171:	63 6f 6d 70 65 6e 73 61 74 69 6f 6e 5f 56 5f 52     compensation_V_R
     181:	65 20 3d 20 00                                      e = .

00000186 <_ZZ12testFunctionvE3__c_4>:
     186:	67 61 69 6e 5a 20 3d 20 00                          gainZ = .

0000018f <_ZZ12testFunctionvE3__c_3>:
     18f:	67 61 69 6e 55 20 3d 20 00                          gainU = .

00000198 <_ZZ12testFunctionvE3__c_2>:
     198:	2d 2d 2d 2d 2d 2d 2d 2d 2d 2d 2d 2d 2d 2d 2d 2d     ----------------
     1a8:	2d 2d 2d 2d 2d 2d 2d 2d 2d 2d 2d 2d 2d 2d 2d 2d     ----------------
     1b8:	2d 2d 2d 2d 2d 2d 2d 2d 2d 2d 2d 00                 -----------.

000001c4 <_ZZ12testFunctionvE3__c_1>:
     1c4:	72 65 61 63 74 61 6e 63 65 5f 69 6d 20 3d 20 00     reactance_im = .

000001d4 <_ZZ12testFunctionvE3__c_0>:
     1d4:	72 65 73 69 73 74 61 6e 63 65 5f 72 65 20 3d 20     resistance_re = 
	...

000001e5 <_ZZ12testFunctionvE3__c>:
     1e5:	2d 2d 2d 2d 2d 2d 2d 2d 2d 2d 2d 2d 2d 2d 2d 2d     ----------------
     1f5:	2d 2d 2d 2d 2d 2d 2d 2d 2d 2d 2d 2d 2d 2d 2d 2d     ----------------
     205:	2d 2d 2d 2d 2d 2d 2d 2d 2d 2d 2d 00                 -----------.

00000211 <_ZZ24updateCompensationValuesvE3__c_1>:
     211:	4d 65 61 73 75 72 65 20 43 6f 6e 66 69 67 2e 2e     Measure Config..
     221:	2e 00                                               ..

00000223 <_ZZ24updateCompensationValuesvE3__c_0>:
     223:	4d 65 61 73 75 72 65 20 61 6e 64 20 72 65 66 72     Measure and refr
     233:	65 73 68 20 43 6f 6e 66 69 67 2e 2e 2e 00           esh Config....

00000241 <_ZZ24updateCompensationValuesvE3__c>:
     241:	4c 6f 61 64 20 43 6f 6e 66 69 67 2e 2e 2e 00        Load Config....

00000250 <_ZZ16printStimPatternvE3__c_4>:
     250:	5d 00                                               ].

00000252 <_ZZ16printStimPatternvE3__c_3>:
     252:	2c 20 00                                            , .

00000255 <_ZZ16printStimPatternvE3__c_2>:
     255:	20 30 00                                             0.

00000258 <_ZZ16printStimPatternvE3__c_1>:
     258:	20 00                                                .

0000025a <_ZZ16printStimPatternvE3__c_0>:
     25a:	2d 00                                               -.

0000025c <_ZZ16printStimPatternvE3__c>:
     25c:	5b 00                                               [.

0000025e <_ZZ16printMeasPatternvE3__c_6>:
     25e:	5d 00                                               ].

00000260 <_ZZ16printMeasPatternvE3__c_5>:
     260:	5d 3b 00                                            ];.

00000263 <_ZZ16printMeasPatternvE3__c_4>:
     263:	2c 20 00                                            , .

00000266 <_ZZ16printMeasPatternvE3__c_3>:
     266:	20 30 00                                             0.

00000269 <_ZZ16printMeasPatternvE3__c_2>:
     269:	20 31 00                                             1.

0000026c <_ZZ16printMeasPatternvE3__c_1>:
     26c:	2d 31 00                                            -1.

0000026f <_ZZ16printMeasPatternvE3__c_0>:
     26f:	5b 00                                               [.

00000271 <_ZZ16printMeasPatternvE3__c>:
     271:	5b 00                                               [.

00000273 <_cdcInterface>:
     273:	08 0b 00 02 02 02 00 00 09 04 00 00 01 02 02 00     ................
     283:	00 05 24 00 10 01 05 24 01 01 01 04 24 02 06 05     ..$....$....$...
     293:	24 06 00 01 07 05 81 03 10 00 40 09 04 01 00 02     $.........@.....
     2a3:	0a 00 00 00 07 05 02 02 40 00 00 07 05 83 02 40     ........@......@
	...

000002b5 <USB_DeviceDescriptorIAD>:
     2b5:	12 01 00 02 ef 02 01 40 41 23 36 80 00 01 01 02     .......@A#6.....
     2c5:	03 01                                               ..

000002c7 <STRING_MANUFACTURER>:
     2c7:	41 72 64 75 69 6e 6f 20 4c 4c 43 00                 Arduino LLC.

000002d3 <STRING_PRODUCT>:
     2d3:	41 72 64 75 69 6e 6f 20 4c 65 6f 6e 61 72 64 6f     Arduino Leonardo
	...

000002e4 <STRING_LANGUAGE>:
     2e4:	04 03 09 04                                         ....

000002e8 <digital_pin_to_timer_PGM>:
     2e8:	00 00 00 02 00 09 0f 00 00 03 04 01 00 0c 00 00     ................
	...

00000307 <digital_pin_to_bit_mask_PGM>:
     307:	04 08 02 01 10 40 80 40 10 20 40 80 40 80 08 02     .....@.@. @.@...
     317:	04 01 80 40 20 10 02 01 10 80 10 20 40 40 20        ...@ ...... @@ 

00000326 <digital_pin_to_port_PGM>:
     326:	04 04 04 04 04 03 04 05 02 02 02 02 04 03 02 02     ................
     336:	02 02 06 06 06 06 06 06 04 04 02 02 02 04 04        ...............

00000345 <port_to_input_PGM>:
     345:	00 00 00 00 23 00 26 00 29 00 2c 00 2f 00           ....#.&.).,./.

00000353 <port_to_output_PGM>:
     353:	00 00 00 00 25 00 28 00 2b 00 2e 00 31 00           ....%.(.+...1.

00000361 <port_to_mode_PGM>:
     361:	00 00 00 00 24 00 27 00 2a 00 2d 00 30 00 00        ....$.'.*.-.0..

00000370 <__ctors_start>:
     370:	12 23       	and	r17, r18
     372:	db 2c       	mov	r13, r11

00000374 <__ctors_end>:
     374:	11 24       	eor	r1, r1
     376:	1f be       	out	0x3f, r1	; 63
     378:	cf ef       	ldi	r28, 0xFF	; 255
     37a:	da e0       	ldi	r29, 0x0A	; 10
     37c:	de bf       	out	0x3e, r29	; 62
     37e:	cd bf       	out	0x3d, r28	; 61

00000380 <__do_copy_data>:
     380:	11 e0       	ldi	r17, 0x01	; 1
     382:	a0 e0       	ldi	r26, 0x00	; 0
     384:	b1 e0       	ldi	r27, 0x01	; 1
     386:	ea ed       	ldi	r30, 0xDA	; 218
     388:	f5 e6       	ldi	r31, 0x65	; 101
     38a:	02 c0       	rjmp	.+4      	; 0x390 <__do_copy_data+0x10>
     38c:	05 90       	lpm	r0, Z+
     38e:	0d 92       	st	X+, r0
     390:	a4 39       	cpi	r26, 0x94	; 148
     392:	b1 07       	cpc	r27, r17
     394:	d9 f7       	brne	.-10     	; 0x38c <__do_copy_data+0xc>

00000396 <__do_clear_bss>:
     396:	22 e0       	ldi	r18, 0x02	; 2
     398:	a4 e9       	ldi	r26, 0x94	; 148
     39a:	b1 e0       	ldi	r27, 0x01	; 1
     39c:	01 c0       	rjmp	.+2      	; 0x3a0 <.do_clear_bss_start>

0000039e <.do_clear_bss_loop>:
     39e:	1d 92       	st	X+, r1

000003a0 <.do_clear_bss_start>:
     3a0:	a5 3d       	cpi	r26, 0xD5	; 213
     3a2:	b2 07       	cpc	r27, r18
     3a4:	e1 f7       	brne	.-8      	; 0x39e <.do_clear_bss_loop>

000003a6 <__do_global_ctors>:
     3a6:	11 e0       	ldi	r17, 0x01	; 1
     3a8:	ca eb       	ldi	r28, 0xBA	; 186
     3aa:	d1 e0       	ldi	r29, 0x01	; 1
     3ac:	04 c0       	rjmp	.+8      	; 0x3b6 <__do_global_ctors+0x10>
     3ae:	21 97       	sbiw	r28, 0x01	; 1
     3b0:	fe 01       	movw	r30, r28
     3b2:	0e 94 84 31 	call	0x6308	; 0x6308 <__tablejump2__>
     3b6:	c8 3b       	cpi	r28, 0xB8	; 184
     3b8:	d1 07       	cpc	r29, r17
     3ba:	c9 f7       	brne	.-14     	; 0x3ae <__do_global_ctors+0x8>
     3bc:	0e 94 28 23 	call	0x4650	; 0x4650 <main>
     3c0:	0c 94 eb 32 	jmp	0x65d6	; 0x65d6 <_exit>

000003c4 <__bad_interrupt>:
     3c4:	0c 94 00 00 	jmp	0	; 0x0 <__vectors>

000003c8 <_ZN7AD5933s8sendByteEhh>:
                return (rawTempVal - 16384) / 32.0;
            }
        }
    }
    return -1;
}
     3c8:	cf 93       	push	r28
     3ca:	df 93       	push	r29
     3cc:	d8 2f       	mov	r29, r24
     3ce:	c6 2f       	mov	r28, r22
     3d0:	6d e0       	ldi	r22, 0x0D	; 13
     3d2:	70 e0       	ldi	r23, 0x00	; 0
     3d4:	8b ef       	ldi	r24, 0xFB	; 251
     3d6:	91 e0       	ldi	r25, 0x01	; 1
     3d8:	0e 94 5c 2c 	call	0x58b8	; 0x58b8 <_ZN7TwoWire17beginTransmissionEi>
     3dc:	6d 2f       	mov	r22, r29
     3de:	8b ef       	ldi	r24, 0xFB	; 251
     3e0:	91 e0       	ldi	r25, 0x01	; 1
     3e2:	0e 94 fd 2b 	call	0x57fa	; 0x57fa <_ZN7TwoWire5writeEh>
     3e6:	6c 2f       	mov	r22, r28
     3e8:	8b ef       	ldi	r24, 0xFB	; 251
     3ea:	91 e0       	ldi	r25, 0x01	; 1
     3ec:	0e 94 fd 2b 	call	0x57fa	; 0x57fa <_ZN7TwoWire5writeEh>
     3f0:	8b ef       	ldi	r24, 0xFB	; 251
     3f2:	91 e0       	ldi	r25, 0x01	; 1
     3f4:	0e 94 d8 2c 	call	0x59b0	; 0x59b0 <_ZN7TwoWire15endTransmissionEv>
     3f8:	91 e0       	ldi	r25, 0x01	; 1
     3fa:	81 11       	cpse	r24, r1
     3fc:	90 e0       	ldi	r25, 0x00	; 0
     3fe:	89 2f       	mov	r24, r25
     400:	df 91       	pop	r29
     402:	cf 91       	pop	r28
     404:	08 95       	ret

00000406 <_ZN7AD5933s14setClockSourceEh>:
     406:	88 23       	and	r24, r24
     408:	21 f0       	breq	.+8      	; 0x412 <_ZN7AD5933s14setClockSourceEh+0xc>
     40a:	88 30       	cpi	r24, 0x08	; 8
     40c:	31 f4       	brne	.+12     	; 0x41a <_ZN7AD5933s14setClockSourceEh+0x14>
     40e:	68 e0       	ldi	r22, 0x08	; 8
     410:	01 c0       	rjmp	.+2      	; 0x414 <_ZN7AD5933s14setClockSourceEh+0xe>
     412:	60 e0       	ldi	r22, 0x00	; 0
     414:	81 e8       	ldi	r24, 0x81	; 129
     416:	0c 94 e4 01 	jmp	0x3c8	; 0x3c8 <_ZN7AD5933s8sendByteEhh>
     41a:	80 e0       	ldi	r24, 0x00	; 0
     41c:	08 95       	ret

0000041e <_ZN7AD5933s17setStartFrequencyEm>:
     41e:	cf 92       	push	r12
     420:	df 92       	push	r13
     422:	ef 92       	push	r14
     424:	ff 92       	push	r15
     426:	0e 94 8a 20 	call	0x4114	; 0x4114 <__floatunsisf>
     42a:	20 e4       	ldi	r18, 0x40	; 64
     42c:	3b ef       	ldi	r19, 0xFB	; 251
     42e:	4f e7       	ldi	r20, 0x7F	; 127
     430:	5a e4       	ldi	r21, 0x4A	; 74
     432:	0e 94 e2 1f 	call	0x3fc4	; 0x3fc4 <__divsf3>
     436:	20 e0       	ldi	r18, 0x00	; 0
     438:	30 e0       	ldi	r19, 0x00	; 0
     43a:	40 e0       	ldi	r20, 0x00	; 0
     43c:	5d e4       	ldi	r21, 0x4D	; 77
     43e:	0e 94 3c 21 	call	0x4278	; 0x4278 <__mulsf3>
     442:	0e 94 54 20 	call	0x40a8	; 0x40a8 <__fixsfsi>
     446:	6b 01       	movw	r12, r22
     448:	7c 01       	movw	r14, r24
     44a:	c1 14       	cp	r12, r1
     44c:	d1 04       	cpc	r13, r1
     44e:	e1 04       	cpc	r14, r1
     450:	81 e0       	ldi	r24, 0x01	; 1
     452:	f8 06       	cpc	r15, r24
     454:	ec f4       	brge	.+58     	; 0x490 <_ZN7AD5933s17setStartFrequencyEm+0x72>
     456:	b7 01       	movw	r22, r14
     458:	99 27       	eor	r25, r25
     45a:	77 fd       	sbrc	r23, 7
     45c:	90 95       	com	r25
     45e:	89 2f       	mov	r24, r25
     460:	82 e8       	ldi	r24, 0x82	; 130
     462:	0e 94 e4 01 	call	0x3c8	; 0x3c8 <_ZN7AD5933s8sendByteEhh>
     466:	88 23       	and	r24, r24
     468:	99 f0       	breq	.+38     	; 0x490 <_ZN7AD5933s17setStartFrequencyEm+0x72>
     46a:	99 27       	eor	r25, r25
     46c:	f7 fc       	sbrc	r15, 7
     46e:	9a 95       	dec	r25
     470:	8f 2d       	mov	r24, r15
     472:	7e 2d       	mov	r23, r14
     474:	6d 2d       	mov	r22, r13
     476:	83 e8       	ldi	r24, 0x83	; 131
     478:	0e 94 e4 01 	call	0x3c8	; 0x3c8 <_ZN7AD5933s8sendByteEhh>
     47c:	88 23       	and	r24, r24
     47e:	41 f0       	breq	.+16     	; 0x490 <_ZN7AD5933s17setStartFrequencyEm+0x72>
     480:	6c 2d       	mov	r22, r12
     482:	84 e8       	ldi	r24, 0x84	; 132
     484:	ff 90       	pop	r15
     486:	ef 90       	pop	r14
     488:	df 90       	pop	r13
     48a:	cf 90       	pop	r12
     48c:	0c 94 e4 01 	jmp	0x3c8	; 0x3c8 <_ZN7AD5933s8sendByteEhh>
     490:	80 e0       	ldi	r24, 0x00	; 0
     492:	ff 90       	pop	r15
     494:	ef 90       	pop	r14
     496:	df 90       	pop	r13
     498:	cf 90       	pop	r12
     49a:	08 95       	ret

0000049c <_ZN7AD5933s21setIncrementFrequencyEm>:
     49c:	cf 92       	push	r12
     49e:	df 92       	push	r13
     4a0:	ef 92       	push	r14
     4a2:	ff 92       	push	r15
     4a4:	0e 94 8a 20 	call	0x4114	; 0x4114 <__floatunsisf>
     4a8:	20 e4       	ldi	r18, 0x40	; 64
     4aa:	3b ef       	ldi	r19, 0xFB	; 251
     4ac:	4f e7       	ldi	r20, 0x7F	; 127
     4ae:	5a e4       	ldi	r21, 0x4A	; 74
     4b0:	0e 94 e2 1f 	call	0x3fc4	; 0x3fc4 <__divsf3>
     4b4:	20 e0       	ldi	r18, 0x00	; 0
     4b6:	30 e0       	ldi	r19, 0x00	; 0
     4b8:	40 e0       	ldi	r20, 0x00	; 0
     4ba:	5d e4       	ldi	r21, 0x4D	; 77
     4bc:	0e 94 3c 21 	call	0x4278	; 0x4278 <__mulsf3>
     4c0:	0e 94 54 20 	call	0x40a8	; 0x40a8 <__fixsfsi>
     4c4:	6b 01       	movw	r12, r22
     4c6:	7c 01       	movw	r14, r24
     4c8:	c1 14       	cp	r12, r1
     4ca:	d1 04       	cpc	r13, r1
     4cc:	e1 04       	cpc	r14, r1
     4ce:	81 e0       	ldi	r24, 0x01	; 1
     4d0:	f8 06       	cpc	r15, r24
     4d2:	ec f4       	brge	.+58     	; 0x50e <_ZN7AD5933s21setIncrementFrequencyEm+0x72>
     4d4:	b7 01       	movw	r22, r14
     4d6:	99 27       	eor	r25, r25
     4d8:	77 fd       	sbrc	r23, 7
     4da:	90 95       	com	r25
     4dc:	89 2f       	mov	r24, r25
     4de:	85 e8       	ldi	r24, 0x85	; 133
     4e0:	0e 94 e4 01 	call	0x3c8	; 0x3c8 <_ZN7AD5933s8sendByteEhh>
     4e4:	88 23       	and	r24, r24
     4e6:	99 f0       	breq	.+38     	; 0x50e <_ZN7AD5933s21setIncrementFrequencyEm+0x72>
     4e8:	99 27       	eor	r25, r25
     4ea:	f7 fc       	sbrc	r15, 7
     4ec:	9a 95       	dec	r25
     4ee:	8f 2d       	mov	r24, r15
     4f0:	7e 2d       	mov	r23, r14
     4f2:	6d 2d       	mov	r22, r13
     4f4:	86 e8       	ldi	r24, 0x86	; 134
     4f6:	0e 94 e4 01 	call	0x3c8	; 0x3c8 <_ZN7AD5933s8sendByteEhh>
     4fa:	88 23       	and	r24, r24
     4fc:	41 f0       	breq	.+16     	; 0x50e <_ZN7AD5933s21setIncrementFrequencyEm+0x72>
     4fe:	6c 2d       	mov	r22, r12
     500:	87 e8       	ldi	r24, 0x87	; 135
     502:	ff 90       	pop	r15
     504:	ef 90       	pop	r14
     506:	df 90       	pop	r13
     508:	cf 90       	pop	r12
     50a:	0c 94 e4 01 	jmp	0x3c8	; 0x3c8 <_ZN7AD5933s8sendByteEhh>
     50e:	80 e0       	ldi	r24, 0x00	; 0
     510:	ff 90       	pop	r15
     512:	ef 90       	pop	r14
     514:	df 90       	pop	r13
     516:	cf 90       	pop	r12
     518:	08 95       	ret

0000051a <_ZN7AD5933s19setNumberIncrementsEj>:
     51a:	cf 93       	push	r28
     51c:	df 93       	push	r29
     51e:	81 15       	cp	r24, r1
     520:	22 e0       	ldi	r18, 0x02	; 2
     522:	92 07       	cpc	r25, r18
     524:	68 f4       	brcc	.+26     	; 0x540 <_ZN7AD5933s19setNumberIncrementsEj+0x26>
     526:	ec 01       	movw	r28, r24
     528:	6d 2f       	mov	r22, r29
     52a:	88 e8       	ldi	r24, 0x88	; 136
     52c:	0e 94 e4 01 	call	0x3c8	; 0x3c8 <_ZN7AD5933s8sendByteEhh>
     530:	88 23       	and	r24, r24
     532:	31 f0       	breq	.+12     	; 0x540 <_ZN7AD5933s19setNumberIncrementsEj+0x26>
     534:	6c 2f       	mov	r22, r28
     536:	89 e8       	ldi	r24, 0x89	; 137
     538:	df 91       	pop	r29
     53a:	cf 91       	pop	r28
     53c:	0c 94 e4 01 	jmp	0x3c8	; 0x3c8 <_ZN7AD5933s8sendByteEhh>
     540:	80 e0       	ldi	r24, 0x00	; 0
     542:	df 91       	pop	r29
     544:	cf 91       	pop	r28
     546:	08 95       	ret

00000548 <_ZN7AD5933s21setSettlingTimeCyclesEj>:
     548:	cf 93       	push	r28
     54a:	81 15       	cp	r24, r1
     54c:	28 e0       	ldi	r18, 0x08	; 8
     54e:	92 07       	cpc	r25, r18
     550:	e0 f4       	brcc	.+56     	; 0x58a <_ZN7AD5933s21setSettlingTimeCyclesEj+0x42>
     552:	81 15       	cp	r24, r1
     554:	24 e0       	ldi	r18, 0x04	; 4
     556:	92 07       	cpc	r25, r18
     558:	30 f0       	brcs	.+12     	; 0x566 <_ZN7AD5933s21setSettlingTimeCyclesEj+0x1e>
     55a:	96 95       	lsr	r25
     55c:	87 95       	ror	r24
     55e:	96 95       	lsr	r25
     560:	87 95       	ror	r24
     562:	c8 2f       	mov	r28, r24
     564:	13 c0       	rjmp	.+38     	; 0x58c <_ZN7AD5933s21setSettlingTimeCyclesEj+0x44>
     566:	81 15       	cp	r24, r1
     568:	22 e0       	ldi	r18, 0x02	; 2
     56a:	92 07       	cpc	r25, r18
     56c:	28 f0       	brcs	.+10     	; 0x578 <_ZN7AD5933s21setSettlingTimeCyclesEj+0x30>
     56e:	96 95       	lsr	r25
     570:	87 95       	ror	r24
     572:	c8 2f       	mov	r28, r24
     574:	63 e0       	ldi	r22, 0x03	; 3
     576:	0b c0       	rjmp	.+22     	; 0x58e <_ZN7AD5933s21setSettlingTimeCyclesEj+0x46>
     578:	c8 2f       	mov	r28, r24
     57a:	8f 3f       	cpi	r24, 0xFF	; 255
     57c:	91 05       	cpc	r25, r1
     57e:	19 f0       	breq	.+6      	; 0x586 <_ZN7AD5933s21setSettlingTimeCyclesEj+0x3e>
     580:	10 f0       	brcs	.+4      	; 0x586 <_ZN7AD5933s21setSettlingTimeCyclesEj+0x3e>
     582:	61 e0       	ldi	r22, 0x01	; 1
     584:	04 c0       	rjmp	.+8      	; 0x58e <_ZN7AD5933s21setSettlingTimeCyclesEj+0x46>
     586:	60 e0       	ldi	r22, 0x00	; 0
     588:	02 c0       	rjmp	.+4      	; 0x58e <_ZN7AD5933s21setSettlingTimeCyclesEj+0x46>
     58a:	cf ef       	ldi	r28, 0xFF	; 255
     58c:	67 e0       	ldi	r22, 0x07	; 7
     58e:	8a e8       	ldi	r24, 0x8A	; 138
     590:	0e 94 e4 01 	call	0x3c8	; 0x3c8 <_ZN7AD5933s8sendByteEhh>
     594:	6c 2f       	mov	r22, r28
     596:	8b e8       	ldi	r24, 0x8B	; 139
     598:	0e 94 e4 01 	call	0x3c8	; 0x3c8 <_ZN7AD5933s8sendByteEhh>
     59c:	81 e0       	ldi	r24, 0x01	; 1
     59e:	cf 91       	pop	r28
     5a0:	08 95       	ret

000005a2 <_ZN7AD5933s16setInternalClockEb>:
     5a2:	88 23       	and	r24, r24
     5a4:	21 f0       	breq	.+8      	; 0x5ae <_ZN7AD5933s16setInternalClockEb+0xc>
     5a6:	60 e0       	ldi	r22, 0x00	; 0
     5a8:	81 e8       	ldi	r24, 0x81	; 129
     5aa:	0c 94 e4 01 	jmp	0x3c8	; 0x3c8 <_ZN7AD5933s8sendByteEhh>
     5ae:	88 e0       	ldi	r24, 0x08	; 8
     5b0:	0c 94 03 02 	jmp	0x406	; 0x406 <_ZN7AD5933s14setClockSourceEh>

000005b4 <_ZN7AD5933s7getByteEhPh>:
     5b4:	1f 93       	push	r17
     5b6:	cf 93       	push	r28
     5b8:	df 93       	push	r29
     5ba:	18 2f       	mov	r17, r24
     5bc:	eb 01       	movw	r28, r22
     5be:	6d e0       	ldi	r22, 0x0D	; 13
     5c0:	70 e0       	ldi	r23, 0x00	; 0
     5c2:	8b ef       	ldi	r24, 0xFB	; 251
     5c4:	91 e0       	ldi	r25, 0x01	; 1
     5c6:	0e 94 5c 2c 	call	0x58b8	; 0x58b8 <_ZN7TwoWire17beginTransmissionEi>
     5ca:	60 eb       	ldi	r22, 0xB0	; 176
     5cc:	8b ef       	ldi	r24, 0xFB	; 251
     5ce:	91 e0       	ldi	r25, 0x01	; 1
     5d0:	0e 94 fd 2b 	call	0x57fa	; 0x57fa <_ZN7TwoWire5writeEh>
     5d4:	61 2f       	mov	r22, r17
     5d6:	8b ef       	ldi	r24, 0xFB	; 251
     5d8:	91 e0       	ldi	r25, 0x01	; 1
     5da:	0e 94 fd 2b 	call	0x57fa	; 0x57fa <_ZN7TwoWire5writeEh>
     5de:	8b ef       	ldi	r24, 0xFB	; 251
     5e0:	91 e0       	ldi	r25, 0x01	; 1
     5e2:	0e 94 d8 2c 	call	0x59b0	; 0x59b0 <_ZN7TwoWire15endTransmissionEv>
     5e6:	88 23       	and	r24, r24
     5e8:	29 f0       	breq	.+10     	; 0x5f4 <_ZN7AD5933s7getByteEhPh+0x40>
     5ea:	81 e0       	ldi	r24, 0x01	; 1
     5ec:	88 83       	st	Y, r24
     5ee:	80 e0       	ldi	r24, 0x00	; 0
     5f0:	90 e0       	ldi	r25, 0x00	; 0
     5f2:	17 c0       	rjmp	.+46     	; 0x622 <_ZN7AD5933s7getByteEhPh+0x6e>
     5f4:	41 e0       	ldi	r20, 0x01	; 1
     5f6:	50 e0       	ldi	r21, 0x00	; 0
     5f8:	6d e0       	ldi	r22, 0x0D	; 13
     5fa:	70 e0       	ldi	r23, 0x00	; 0
     5fc:	8b ef       	ldi	r24, 0xFB	; 251
     5fe:	91 e0       	ldi	r25, 0x01	; 1
     600:	0e 94 d5 2c 	call	0x59aa	; 0x59aa <_ZN7TwoWire11requestFromEii>
     604:	8b ef       	ldi	r24, 0xFB	; 251
     606:	91 e0       	ldi	r25, 0x01	; 1
     608:	0e 94 6e 2b 	call	0x56dc	; 0x56dc <_ZN7TwoWire9availableEv>
     60c:	00 97       	sbiw	r24, 0x00	; 0
     60e:	41 f0       	breq	.+16     	; 0x620 <_ZN7AD5933s7getByteEhPh+0x6c>
     610:	8b ef       	ldi	r24, 0xFB	; 251
     612:	91 e0       	ldi	r25, 0x01	; 1
     614:	0e 94 76 2b 	call	0x56ec	; 0x56ec <_ZN7TwoWire4readEv>
     618:	88 83       	st	Y, r24
     61a:	81 e0       	ldi	r24, 0x01	; 1
     61c:	90 e0       	ldi	r25, 0x00	; 0
     61e:	01 c0       	rjmp	.+2      	; 0x622 <_ZN7AD5933s7getByteEhPh+0x6e>
     620:	18 82       	st	Y, r1
     622:	df 91       	pop	r29
     624:	cf 91       	pop	r28
     626:	1f 91       	pop	r17
     628:	08 95       	ret

0000062a <_ZN7AD5933s14setControlModeEh>:
     62a:	1f 93       	push	r17
     62c:	cf 93       	push	r28
     62e:	df 93       	push	r29
     630:	1f 92       	push	r1
     632:	cd b7       	in	r28, 0x3d	; 61
     634:	de b7       	in	r29, 0x3e	; 62
     636:	18 2f       	mov	r17, r24
     638:	be 01       	movw	r22, r28
     63a:	6f 5f       	subi	r22, 0xFF	; 255
     63c:	7f 4f       	sbci	r23, 0xFF	; 255
     63e:	80 e8       	ldi	r24, 0x80	; 128
     640:	0e 94 da 02 	call	0x5b4	; 0x5b4 <_ZN7AD5933s7getByteEhPh>
     644:	89 2b       	or	r24, r25
     646:	41 f0       	breq	.+16     	; 0x658 <_ZN7AD5933s14setControlModeEh+0x2e>
     648:	69 81       	ldd	r22, Y+1	; 0x01
     64a:	6f 70       	andi	r22, 0x0F	; 15
     64c:	61 2b       	or	r22, r17
     64e:	69 83       	std	Y+1, r22	; 0x01
     650:	80 e8       	ldi	r24, 0x80	; 128
     652:	0e 94 e4 01 	call	0x3c8	; 0x3c8 <_ZN7AD5933s8sendByteEhh>
     656:	01 c0       	rjmp	.+2      	; 0x65a <_ZN7AD5933s14setControlModeEh+0x30>
     658:	80 e0       	ldi	r24, 0x00	; 0
     65a:	0f 90       	pop	r0
     65c:	df 91       	pop	r29
     65e:	cf 91       	pop	r28
     660:	1f 91       	pop	r17
     662:	08 95       	ret

00000664 <_ZN7AD5933s12setPowerModeEh>:
     664:	80 3a       	cpi	r24, 0xA0	; 160
     666:	39 f0       	breq	.+14     	; 0x676 <_ZN7AD5933s12setPowerModeEh+0x12>
     668:	80 3b       	cpi	r24, 0xB0	; 176
     66a:	19 f0       	breq	.+6      	; 0x672 <_ZN7AD5933s12setPowerModeEh+0xe>
     66c:	81 11       	cpse	r24, r1
     66e:	06 c0       	rjmp	.+12     	; 0x67c <_ZN7AD5933s12setPowerModeEh+0x18>
     670:	03 c0       	rjmp	.+6      	; 0x678 <_ZN7AD5933s12setPowerModeEh+0x14>
     672:	80 eb       	ldi	r24, 0xB0	; 176
     674:	01 c0       	rjmp	.+2      	; 0x678 <_ZN7AD5933s12setPowerModeEh+0x14>
     676:	80 ea       	ldi	r24, 0xA0	; 160
     678:	0c 94 15 03 	jmp	0x62a	; 0x62a <_ZN7AD5933s14setControlModeEh>
     67c:	80 e0       	ldi	r24, 0x00	; 0
     67e:	08 95       	ret

00000680 <_ZN7AD5933s15endOneFrequencyEv>:
     680:	80 eb       	ldi	r24, 0xB0	; 176
     682:	0c 94 15 03 	jmp	0x62a	; 0x62a <_ZN7AD5933s14setControlModeEh>

00000686 <_ZN7AD5933s17beginOneFrequencyEv>:
     686:	80 eb       	ldi	r24, 0xB0	; 176
     688:	0e 94 15 03 	call	0x62a	; 0x62a <_ZN7AD5933s14setControlModeEh>
     68c:	81 11       	cpse	r24, r1
     68e:	02 c0       	rjmp	.+4      	; 0x694 <_ZN7AD5933s17beginOneFrequencyEv+0xe>
     690:	80 e0       	ldi	r24, 0x00	; 0
     692:	08 95       	ret
     694:	80 e1       	ldi	r24, 0x10	; 16
     696:	0e 94 15 03 	call	0x62a	; 0x62a <_ZN7AD5933s14setControlModeEh>
     69a:	88 23       	and	r24, r24
     69c:	c9 f3       	breq	.-14     	; 0x690 <_ZN7AD5933s17beginOneFrequencyEv+0xa>
     69e:	80 e2       	ldi	r24, 0x20	; 32
     6a0:	0e 94 15 03 	call	0x62a	; 0x62a <_ZN7AD5933s14setControlModeEh>
     6a4:	88 23       	and	r24, r24
     6a6:	a1 f3       	breq	.-24     	; 0x690 <_ZN7AD5933s17beginOneFrequencyEv+0xa>
     6a8:	08 95       	ret

000006aa <_ZN7AD5933s5resetEv>:
     6aa:	cf 93       	push	r28
     6ac:	df 93       	push	r29
     6ae:	1f 92       	push	r1
     6b0:	cd b7       	in	r28, 0x3d	; 61
     6b2:	de b7       	in	r29, 0x3e	; 62
     6b4:	be 01       	movw	r22, r28
     6b6:	6f 5f       	subi	r22, 0xFF	; 255
     6b8:	7f 4f       	sbci	r23, 0xFF	; 255
     6ba:	81 e8       	ldi	r24, 0x81	; 129
     6bc:	0e 94 da 02 	call	0x5b4	; 0x5b4 <_ZN7AD5933s7getByteEhPh>
     6c0:	89 2b       	or	r24, r25
     6c2:	39 f0       	breq	.+14     	; 0x6d2 <_ZN7AD5933s5resetEv+0x28>
     6c4:	69 81       	ldd	r22, Y+1	; 0x01
     6c6:	60 61       	ori	r22, 0x10	; 16
     6c8:	69 83       	std	Y+1, r22	; 0x01
     6ca:	81 e8       	ldi	r24, 0x81	; 129
     6cc:	0e 94 e4 01 	call	0x3c8	; 0x3c8 <_ZN7AD5933s8sendByteEhh>
     6d0:	01 c0       	rjmp	.+2      	; 0x6d4 <_ZN7AD5933s5resetEv+0x2a>
     6d2:	80 e0       	ldi	r24, 0x00	; 0
     6d4:	0f 90       	pop	r0
     6d6:	df 91       	pop	r29
     6d8:	cf 91       	pop	r28
     6da:	08 95       	ret

000006dc <_ZN7AD5933s10setPGAGainEh>:
     6dc:	1f 93       	push	r17
     6de:	cf 93       	push	r28
     6e0:	df 93       	push	r29
     6e2:	1f 92       	push	r1
     6e4:	cd b7       	in	r28, 0x3d	; 61
     6e6:	de b7       	in	r29, 0x3e	; 62
     6e8:	18 2f       	mov	r17, r24
     6ea:	be 01       	movw	r22, r28
     6ec:	6f 5f       	subi	r22, 0xFF	; 255
     6ee:	7f 4f       	sbci	r23, 0xFF	; 255
     6f0:	80 e8       	ldi	r24, 0x80	; 128
     6f2:	0e 94 da 02 	call	0x5b4	; 0x5b4 <_ZN7AD5933s7getByteEhPh>
     6f6:	89 2b       	or	r24, r25
     6f8:	11 f4       	brne	.+4      	; 0x6fe <_ZN7AD5933s10setPGAGainEh+0x22>
     6fa:	80 e0       	ldi	r24, 0x00	; 0
     6fc:	0f c0       	rjmp	.+30     	; 0x71c <_ZN7AD5933s10setPGAGainEh+0x40>
     6fe:	69 81       	ldd	r22, Y+1	; 0x01
     700:	6e 7f       	andi	r22, 0xFE	; 254
     702:	69 83       	std	Y+1, r22	; 0x01
     704:	11 30       	cpi	r17, 0x01	; 1
     706:	19 f4       	brne	.+6      	; 0x70e <_ZN7AD5933s10setPGAGainEh+0x32>
     708:	61 60       	ori	r22, 0x01	; 1
     70a:	69 83       	std	Y+1, r22	; 0x01
     70c:	04 c0       	rjmp	.+8      	; 0x716 <_ZN7AD5933s10setPGAGainEh+0x3a>
     70e:	11 23       	and	r17, r17
     710:	11 f0       	breq	.+4      	; 0x716 <_ZN7AD5933s10setPGAGainEh+0x3a>
     712:	15 30       	cpi	r17, 0x05	; 5
     714:	91 f7       	brne	.-28     	; 0x6fa <_ZN7AD5933s10setPGAGainEh+0x1e>
     716:	80 e8       	ldi	r24, 0x80	; 128
     718:	0e 94 e4 01 	call	0x3c8	; 0x3c8 <_ZN7AD5933s8sendByteEhh>
     71c:	0f 90       	pop	r0
     71e:	df 91       	pop	r29
     720:	cf 91       	pop	r28
     722:	1f 91       	pop	r17
     724:	08 95       	ret

00000726 <_ZN7AD5933s12readRegisterEh>:
     726:	cf 93       	push	r28
     728:	df 93       	push	r29
     72a:	1f 92       	push	r1
     72c:	cd b7       	in	r28, 0x3d	; 61
     72e:	de b7       	in	r29, 0x3e	; 62
     730:	be 01       	movw	r22, r28
     732:	6f 5f       	subi	r22, 0xFF	; 255
     734:	7f 4f       	sbci	r23, 0xFF	; 255
     736:	0e 94 da 02 	call	0x5b4	; 0x5b4 <_ZN7AD5933s7getByteEhPh>
     73a:	89 2b       	or	r24, r25
     73c:	11 f0       	breq	.+4      	; 0x742 <_ZN7AD5933s12readRegisterEh+0x1c>
     73e:	89 81       	ldd	r24, Y+1	; 0x01
     740:	01 c0       	rjmp	.+2      	; 0x744 <_ZN7AD5933s12readRegisterEh+0x1e>
     742:	8f ef       	ldi	r24, 0xFF	; 255
     744:	0f 90       	pop	r0
     746:	df 91       	pop	r29
     748:	cf 91       	pop	r28
     74a:	08 95       	ret

0000074c <_ZN7AD5933s18readStatusRegisterEv>:
     74c:	8f e8       	ldi	r24, 0x8F	; 143
     74e:	0c 94 93 03 	jmp	0x726	; 0x726 <_ZN7AD5933s12readRegisterEh>

00000752 <_ZN7AD5933s14getComplexDataEPiS0_>:
 *
 * @param real Pointer to an int that will contain the real component.
 * @param imag Pointer to an int that will contain the imaginary component.
 * @return Success or failure
 */
bool AD5933s::getComplexData(int16_t *real, int16_t *imag) {
     752:	ef 92       	push	r14
     754:	ff 92       	push	r15
     756:	0f 93       	push	r16
     758:	1f 93       	push	r17
     75a:	cf 93       	push	r28
     75c:	df 93       	push	r29
     75e:	00 d0       	rcall	.+0      	; 0x760 <_ZN7AD5933s14getComplexDataEPiS0_+0xe>
     760:	00 d0       	rcall	.+0      	; 0x762 <_ZN7AD5933s14getComplexDataEPiS0_+0x10>
     762:	cd b7       	in	r28, 0x3d	; 61
     764:	de b7       	in	r29, 0x3e	; 62
     766:	7c 01       	movw	r14, r24
     768:	8b 01       	movw	r16, r22
    // Wait for a measurement to be available
	
	//unsigned long a = micros();
    while ((readStatusRegister() & STATUS_DATA_VALID) != STATUS_DATA_VALID);
     76a:	0e 94 a6 03 	call	0x74c	; 0x74c <_ZN7AD5933s18readStatusRegisterEv>
     76e:	81 ff       	sbrs	r24, 1
     770:	fc cf       	rjmp	.-8      	; 0x76a <_ZN7AD5933s14getComplexDataEPiS0_+0x18>

    // Read the four data registers.
    // TODO: Do this faster with a block read
    byte realComp[2];
    byte imagComp[2];
    if (getByte(REAL_DATA_1, &realComp[0]) &&
     772:	be 01       	movw	r22, r28
     774:	6d 5f       	subi	r22, 0xFD	; 253
     776:	7f 4f       	sbci	r23, 0xFF	; 255
     778:	84 e9       	ldi	r24, 0x94	; 148
     77a:	0e 94 da 02 	call	0x5b4	; 0x5b4 <_ZN7AD5933s7getByteEhPh>
        getByte(REAL_DATA_2, &realComp[1]) &&
        getByte(IMAG_DATA_1, &imagComp[0]) &&
     77e:	89 2b       	or	r24, r25
     780:	51 f1       	breq	.+84     	; 0x7d6 <_ZN7AD5933s14getComplexDataEPiS0_+0x84>
    // Read the four data registers.
    // TODO: Do this faster with a block read
    byte realComp[2];
    byte imagComp[2];
    if (getByte(REAL_DATA_1, &realComp[0]) &&
        getByte(REAL_DATA_2, &realComp[1]) &&
     782:	be 01       	movw	r22, r28
     784:	6c 5f       	subi	r22, 0xFC	; 252
     786:	7f 4f       	sbci	r23, 0xFF	; 255
     788:	85 e9       	ldi	r24, 0x95	; 149
     78a:	0e 94 da 02 	call	0x5b4	; 0x5b4 <_ZN7AD5933s7getByteEhPh>

    // Read the four data registers.
    // TODO: Do this faster with a block read
    byte realComp[2];
    byte imagComp[2];
    if (getByte(REAL_DATA_1, &realComp[0]) &&
     78e:	89 2b       	or	r24, r25
     790:	11 f1       	breq	.+68     	; 0x7d6 <_ZN7AD5933s14getComplexDataEPiS0_+0x84>
        getByte(REAL_DATA_2, &realComp[1]) &&
        getByte(IMAG_DATA_1, &imagComp[0]) &&
     792:	be 01       	movw	r22, r28
     794:	6f 5f       	subi	r22, 0xFF	; 255
     796:	7f 4f       	sbci	r23, 0xFF	; 255
     798:	86 e9       	ldi	r24, 0x96	; 150
     79a:	0e 94 da 02 	call	0x5b4	; 0x5b4 <_ZN7AD5933s7getByteEhPh>
    // Read the four data registers.
    // TODO: Do this faster with a block read
    byte realComp[2];
    byte imagComp[2];
    if (getByte(REAL_DATA_1, &realComp[0]) &&
        getByte(REAL_DATA_2, &realComp[1]) &&
     79e:	89 2b       	or	r24, r25
     7a0:	d1 f0       	breq	.+52     	; 0x7d6 <_ZN7AD5933s14getComplexDataEPiS0_+0x84>
        getByte(IMAG_DATA_1, &imagComp[0]) &&
        getByte(IMAG_DATA_2, &imagComp[1]))
     7a2:	be 01       	movw	r22, r28
     7a4:	6e 5f       	subi	r22, 0xFE	; 254
     7a6:	7f 4f       	sbci	r23, 0xFF	; 255
     7a8:	87 e9       	ldi	r24, 0x97	; 151
     7aa:	0e 94 da 02 	call	0x5b4	; 0x5b4 <_ZN7AD5933s7getByteEhPh>
    // TODO: Do this faster with a block read
    byte realComp[2];
    byte imagComp[2];
    if (getByte(REAL_DATA_1, &realComp[0]) &&
        getByte(REAL_DATA_2, &realComp[1]) &&
        getByte(IMAG_DATA_1, &imagComp[0]) &&
     7ae:	89 2b       	or	r24, r25
     7b0:	91 f0       	breq	.+36     	; 0x7d6 <_ZN7AD5933s14getComplexDataEPiS0_+0x84>
        getByte(IMAG_DATA_2, &imagComp[1]))
    {
        // Combine the two separate bytes into a single 16-bit value and store
        // them at the locations specified.
        *real = (int16_t)(((realComp[0] << 8) | realComp[1]) & 0xFFFF);
     7b2:	8b 81       	ldd	r24, Y+3	; 0x03
     7b4:	9c 81       	ldd	r25, Y+4	; 0x04
     7b6:	98 27       	eor	r25, r24
     7b8:	89 27       	eor	r24, r25
     7ba:	98 27       	eor	r25, r24
     7bc:	f7 01       	movw	r30, r14
     7be:	91 83       	std	Z+1, r25	; 0x01
     7c0:	80 83       	st	Z, r24
        *imag = (int16_t)(((imagComp[0] << 8) | imagComp[1]) & 0xFFFF);
     7c2:	89 81       	ldd	r24, Y+1	; 0x01
     7c4:	9a 81       	ldd	r25, Y+2	; 0x02
     7c6:	98 27       	eor	r25, r24
     7c8:	89 27       	eor	r24, r25
     7ca:	98 27       	eor	r25, r24
     7cc:	f8 01       	movw	r30, r16
     7ce:	91 83       	std	Z+1, r25	; 0x01
     7d0:	80 83       	st	Z, r24
        return true;
     7d2:	81 e0       	ldi	r24, 0x01	; 1
     7d4:	09 c0       	rjmp	.+18     	; 0x7e8 <_ZN7AD5933s14getComplexDataEPiS0_+0x96>
    } else {
        *real = -1;
     7d6:	8f ef       	ldi	r24, 0xFF	; 255
     7d8:	9f ef       	ldi	r25, 0xFF	; 255
     7da:	f7 01       	movw	r30, r14
     7dc:	91 83       	std	Z+1, r25	; 0x01
     7de:	80 83       	st	Z, r24
        *imag = -1;
     7e0:	f8 01       	movw	r30, r16
     7e2:	91 83       	std	Z+1, r25	; 0x01
     7e4:	80 83       	st	Z, r24
        return false;
     7e6:	80 e0       	ldi	r24, 0x00	; 0
    }
}
     7e8:	0f 90       	pop	r0
     7ea:	0f 90       	pop	r0
     7ec:	0f 90       	pop	r0
     7ee:	0f 90       	pop	r0
     7f0:	df 91       	pop	r29
     7f2:	cf 91       	pop	r28
     7f4:	1f 91       	pop	r17
     7f6:	0f 91       	pop	r16
     7f8:	ff 90       	pop	r15
     7fa:	ef 90       	pop	r14
     7fc:	08 95       	ret

000007fe <_ZN7AD5933s15getOneFrequencyEPiS0_>:
 * @param imag An integer to hold the real data.
 * @param state Pointer to state of the procedure ['-1'--> OFF, '0'--> Running, '1'--> Turn OFF]
 * @return Success or failure
 */

bool AD5933s::getOneFrequency(int16_t* real, int16_t* imag){
     7fe:	cf 92       	push	r12
     800:	df 92       	push	r13
     802:	ef 92       	push	r14
     804:	ff 92       	push	r15
     806:	1f 93       	push	r17
     808:	cf 93       	push	r28
     80a:	df 93       	push	r29
     80c:	ec 01       	movw	r28, r24
     80e:	6b 01       	movw	r12, r22
     810:	7a 01       	movw	r14, r20
	// Repeat the frequency and our index.
	setControlMode(CTRL_REPEAT_FREQ);
     812:	80 e4       	ldi	r24, 0x40	; 64
     814:	0e 94 15 03 	call	0x62a	; 0x62a <_ZN7AD5933s14setControlModeEh>
	// Get the data for this frequency point and store it in the array
	if (!getComplexData(&tempRealData, &tempImagData)) {
     818:	be 01       	movw	r22, r28
     81a:	6e 5f       	subi	r22, 0xFE	; 254
     81c:	7f 4f       	sbci	r23, 0xFF	; 255
     81e:	ce 01       	movw	r24, r28
     820:	0e 94 a9 03 	call	0x752	; 0x752 <_ZN7AD5933s14getComplexDataEPiS0_>
     824:	18 2f       	mov	r17, r24
     826:	81 11       	cpse	r24, r1
     828:	04 c0       	rjmp	.+8      	; 0x832 <_ZN7AD5933s15getOneFrequencyEPiS0_+0x34>
		// In case of Error:
		setPowerMode(POWER_STANDBY);
     82a:	80 eb       	ldi	r24, 0xB0	; 176
     82c:	0e 94 32 03 	call	0x664	; 0x664 <_ZN7AD5933s12setPowerModeEh>
		return false;
     830:	10 c0       	rjmp	.+32     	; 0x852 <_ZN7AD5933s15getOneFrequencyEPiS0_+0x54>
	}
	if (real != nullptr){
     832:	c1 14       	cp	r12, r1
     834:	d1 04       	cpc	r13, r1
     836:	29 f0       	breq	.+10     	; 0x842 <_ZN7AD5933s15getOneFrequencyEPiS0_+0x44>
		*real = tempRealData;
     838:	88 81       	ld	r24, Y
     83a:	99 81       	ldd	r25, Y+1	; 0x01
     83c:	f6 01       	movw	r30, r12
     83e:	91 83       	std	Z+1, r25	; 0x01
     840:	80 83       	st	Z, r24
	}
	if(imag != nullptr){
     842:	e1 14       	cp	r14, r1
     844:	f1 04       	cpc	r15, r1
     846:	29 f0       	breq	.+10     	; 0x852 <_ZN7AD5933s15getOneFrequencyEPiS0_+0x54>
		*imag = tempImagData;
     848:	8a 81       	ldd	r24, Y+2	; 0x02
     84a:	9b 81       	ldd	r25, Y+3	; 0x03
     84c:	f7 01       	movw	r30, r14
     84e:	91 83       	std	Z+1, r25	; 0x01
     850:	80 83       	st	Z, r24
	}
	return true;
}
     852:	81 2f       	mov	r24, r17
     854:	df 91       	pop	r29
     856:	cf 91       	pop	r28
     858:	1f 91       	pop	r17
     85a:	ff 90       	pop	r15
     85c:	ef 90       	pop	r14
     85e:	df 90       	pop	r13
     860:	cf 90       	pop	r12
     862:	08 95       	ret

00000864 <_ZN7ADG1606C1EiiiiiP8MCP23017Pi>:
	mcp->digitalWrite(s2, (channelIntern/4) % 2);
	mcp->digitalWrite(s3, (channelIntern/8) % 2);
	enable();
	activeChannel = _channel;
	lastChannel = _channel;
}
     864:	af 92       	push	r10
     866:	bf 92       	push	r11
     868:	cf 92       	push	r12
     86a:	df 92       	push	r13
     86c:	ef 92       	push	r14
     86e:	ff 92       	push	r15
     870:	0f 93       	push	r16
     872:	1f 93       	push	r17
     874:	fc 01       	movw	r30, r24
     876:	77 83       	std	Z+7, r23	; 0x07
     878:	66 83       	std	Z+6, r22	; 0x06
     87a:	51 87       	std	Z+9, r21	; 0x09
     87c:	40 87       	std	Z+8, r20	; 0x08
     87e:	33 87       	std	Z+11, r19	; 0x0b
     880:	22 87       	std	Z+10, r18	; 0x0a
     882:	15 87       	std	Z+13, r17	; 0x0d
     884:	04 87       	std	Z+12, r16	; 0x0c
     886:	f7 86       	std	Z+15, r15	; 0x0f
     888:	e6 86       	std	Z+14, r14	; 0x0e
     88a:	d1 82       	std	Z+1, r13	; 0x01
     88c:	c0 82       	st	Z, r12
     88e:	b1 8a       	std	Z+17, r11	; 0x11
     890:	a0 8a       	std	Z+16, r10	; 0x10
     892:	8f ef       	ldi	r24, 0xFF	; 255
     894:	9f ef       	ldi	r25, 0xFF	; 255
     896:	93 83       	std	Z+3, r25	; 0x03
     898:	82 83       	std	Z+2, r24	; 0x02
     89a:	15 82       	std	Z+5, r1	; 0x05
     89c:	14 82       	std	Z+4, r1	; 0x04
     89e:	1f 91       	pop	r17
     8a0:	0f 91       	pop	r16
     8a2:	ff 90       	pop	r15
     8a4:	ef 90       	pop	r14
     8a6:	df 90       	pop	r13
     8a8:	cf 90       	pop	r12
     8aa:	bf 90       	pop	r11
     8ac:	af 90       	pop	r10
     8ae:	08 95       	ret

000008b0 <_ZN7ADG160612init_ADG1606Ev>:
     8b0:	cf 93       	push	r28
     8b2:	df 93       	push	r29
     8b4:	ec 01       	movw	r28, r24
     8b6:	41 e0       	ldi	r20, 0x01	; 1
     8b8:	6e 81       	ldd	r22, Y+6	; 0x06
     8ba:	88 81       	ld	r24, Y
     8bc:	99 81       	ldd	r25, Y+1	; 0x01
     8be:	0e 94 f5 11 	call	0x23ea	; 0x23ea <_ZN8MCP230177pinModeEhh>
     8c2:	40 e0       	ldi	r20, 0x00	; 0
     8c4:	6e 81       	ldd	r22, Y+6	; 0x06
     8c6:	88 81       	ld	r24, Y
     8c8:	99 81       	ldd	r25, Y+1	; 0x01
     8ca:	0e 94 18 11 	call	0x2230	; 0x2230 <_ZN8MCP2301712digitalWriteEhh>
     8ce:	41 e0       	ldi	r20, 0x01	; 1
     8d0:	68 85       	ldd	r22, Y+8	; 0x08
     8d2:	88 81       	ld	r24, Y
     8d4:	99 81       	ldd	r25, Y+1	; 0x01
     8d6:	0e 94 f5 11 	call	0x23ea	; 0x23ea <_ZN8MCP230177pinModeEhh>
     8da:	40 e0       	ldi	r20, 0x00	; 0
     8dc:	68 85       	ldd	r22, Y+8	; 0x08
     8de:	88 81       	ld	r24, Y
     8e0:	99 81       	ldd	r25, Y+1	; 0x01
     8e2:	0e 94 18 11 	call	0x2230	; 0x2230 <_ZN8MCP2301712digitalWriteEhh>
     8e6:	41 e0       	ldi	r20, 0x01	; 1
     8e8:	6a 85       	ldd	r22, Y+10	; 0x0a
     8ea:	88 81       	ld	r24, Y
     8ec:	99 81       	ldd	r25, Y+1	; 0x01
     8ee:	0e 94 f5 11 	call	0x23ea	; 0x23ea <_ZN8MCP230177pinModeEhh>
     8f2:	40 e0       	ldi	r20, 0x00	; 0
     8f4:	6a 85       	ldd	r22, Y+10	; 0x0a
     8f6:	88 81       	ld	r24, Y
     8f8:	99 81       	ldd	r25, Y+1	; 0x01
     8fa:	0e 94 18 11 	call	0x2230	; 0x2230 <_ZN8MCP2301712digitalWriteEhh>
     8fe:	41 e0       	ldi	r20, 0x01	; 1
     900:	6c 85       	ldd	r22, Y+12	; 0x0c
     902:	88 81       	ld	r24, Y
     904:	99 81       	ldd	r25, Y+1	; 0x01
     906:	0e 94 f5 11 	call	0x23ea	; 0x23ea <_ZN8MCP230177pinModeEhh>
     90a:	40 e0       	ldi	r20, 0x00	; 0
     90c:	6c 85       	ldd	r22, Y+12	; 0x0c
     90e:	88 81       	ld	r24, Y
     910:	99 81       	ldd	r25, Y+1	; 0x01
     912:	0e 94 18 11 	call	0x2230	; 0x2230 <_ZN8MCP2301712digitalWriteEhh>
     916:	41 e0       	ldi	r20, 0x01	; 1
     918:	6e 85       	ldd	r22, Y+14	; 0x0e
     91a:	88 81       	ld	r24, Y
     91c:	99 81       	ldd	r25, Y+1	; 0x01
     91e:	0e 94 f5 11 	call	0x23ea	; 0x23ea <_ZN8MCP230177pinModeEhh>
     922:	40 e0       	ldi	r20, 0x00	; 0
     924:	6e 85       	ldd	r22, Y+14	; 0x0e
     926:	88 81       	ld	r24, Y
     928:	99 81       	ldd	r25, Y+1	; 0x01
     92a:	0e 94 18 11 	call	0x2230	; 0x2230 <_ZN8MCP2301712digitalWriteEhh>
     92e:	8f ef       	ldi	r24, 0xFF	; 255
     930:	9f ef       	ldi	r25, 0xFF	; 255
     932:	9b 83       	std	Y+3, r25	; 0x03
     934:	8a 83       	std	Y+2, r24	; 0x02
     936:	1d 82       	std	Y+5, r1	; 0x05
     938:	1c 82       	std	Y+4, r1	; 0x04
     93a:	df 91       	pop	r29
     93c:	cf 91       	pop	r28
     93e:	08 95       	ret

00000940 <_ZN7ADG160625overwriteActiveChannelVarEa>:
     940:	06 2e       	mov	r0, r22
     942:	00 0c       	add	r0, r0
     944:	77 0b       	sbc	r23, r23
     946:	fc 01       	movw	r30, r24
     948:	73 83       	std	Z+3, r23	; 0x03
     94a:	62 83       	std	Z+2, r22	; 0x02
     94c:	77 fd       	sbrc	r23, 7
     94e:	02 c0       	rjmp	.+4      	; 0x954 <_ZN7ADG160625overwriteActiveChannelVarEa+0x14>
     950:	75 83       	std	Z+5, r23	; 0x05
     952:	64 83       	std	Z+4, r22	; 0x04
     954:	08 95       	ret

00000956 <_ZN7ADG160610getChannelEv>:
}

// Get active Channel ( negative if Chip is disabled):
int ADG1606::getChannel(){
	return activeChannel;
}
     956:	fc 01       	movw	r30, r24
     958:	82 81       	ldd	r24, Z+2	; 0x02
     95a:	93 81       	ldd	r25, Z+3	; 0x03
     95c:	08 95       	ret

0000095e <_ZN8imsc_LEDC1EP8MCP23017hb>:
	measureImpedance(fromEl, toEl, DirectPRINT_NONE);
	if(measureResistance_directPrint_MODE == DirectPRINT_MAGNITUDE || measureResistance_directPrint_MODE == DirectPRINT_COMPLEX){
		sendBinaryData(MODE_Magnitude_of_Impedance, analogSwitch_SIG_OUT_NEEDLE->getState() ? NEEDLE : trinityMUX->getSignalMuxChannel(), trinityMUX->getGroundMuxChannel(), DISABLE_MUX, result_Real);
	}
	return result_Real;
}
     95e:	1f 93       	push	r17
     960:	cf 93       	push	r28
     962:	df 93       	push	r29
     964:	ec 01       	movw	r28, r24
     966:	cb 01       	movw	r24, r22
     968:	64 2f       	mov	r22, r20
     96a:	12 2f       	mov	r17, r18
     96c:	48 83       	st	Y, r20
     96e:	29 83       	std	Y+1, r18	; 0x01
     970:	9b 83       	std	Y+3, r25	; 0x03
     972:	8a 83       	std	Y+2, r24	; 0x02
     974:	41 e0       	ldi	r20, 0x01	; 1
     976:	0e 94 f5 11 	call	0x23ea	; 0x23ea <_ZN8MCP230177pinModeEhh>
     97a:	41 2f       	mov	r20, r17
     97c:	68 81       	ld	r22, Y
     97e:	8a 81       	ldd	r24, Y+2	; 0x02
     980:	9b 81       	ldd	r25, Y+3	; 0x03
     982:	0e 94 18 11 	call	0x2230	; 0x2230 <_ZN8MCP2301712digitalWriteEhh>
     986:	1c 83       	std	Y+4, r17	; 0x04
     988:	df 91       	pop	r29
     98a:	cf 91       	pop	r28
     98c:	1f 91       	pop	r17
     98e:	08 95       	ret

00000990 <_ZN8imsc_LED2onEv>:
     990:	1f 93       	push	r17
     992:	cf 93       	push	r28
     994:	df 93       	push	r29
     996:	ec 01       	movw	r28, r24
     998:	49 81       	ldd	r20, Y+1	; 0x01
     99a:	11 e0       	ldi	r17, 0x01	; 1
     99c:	41 27       	eor	r20, r17
     99e:	68 81       	ld	r22, Y
     9a0:	8a 81       	ldd	r24, Y+2	; 0x02
     9a2:	9b 81       	ldd	r25, Y+3	; 0x03
     9a4:	0e 94 18 11 	call	0x2230	; 0x2230 <_ZN8MCP2301712digitalWriteEhh>
     9a8:	1c 83       	std	Y+4, r17	; 0x04
     9aa:	df 91       	pop	r29
     9ac:	cf 91       	pop	r28
     9ae:	1f 91       	pop	r17
     9b0:	08 95       	ret

000009b2 <_ZN8imsc_LED3offEv>:
     9b2:	cf 93       	push	r28
     9b4:	df 93       	push	r29
     9b6:	ec 01       	movw	r28, r24
     9b8:	49 81       	ldd	r20, Y+1	; 0x01
     9ba:	68 81       	ld	r22, Y
     9bc:	8a 81       	ldd	r24, Y+2	; 0x02
     9be:	9b 81       	ldd	r25, Y+3	; 0x03
     9c0:	0e 94 18 11 	call	0x2230	; 0x2230 <_ZN8MCP2301712digitalWriteEhh>
     9c4:	1c 82       	std	Y+4, r1	; 0x04
     9c6:	df 91       	pop	r29
     9c8:	cf 91       	pop	r28
     9ca:	08 95       	ret

000009cc <_ZN8imsc_LED9overwriteEbPh>:
     9cc:	dc 01       	movw	r26, r24
     9ce:	fa 01       	movw	r30, r20
     9d0:	14 96       	adiw	r26, 0x04	; 4
     9d2:	6c 93       	st	X, r22
     9d4:	14 97       	sbiw	r26, 0x04	; 4
     9d6:	30 97       	sbiw	r30, 0x00	; 0
     9d8:	f1 f0       	breq	.+60     	; 0xa16 <__DATA_REGION_LENGTH__+0x16>
     9da:	11 96       	adiw	r26, 0x01	; 1
     9dc:	8c 91       	ld	r24, X
     9de:	11 97       	sbiw	r26, 0x01	; 1
     9e0:	4c 91       	ld	r20, X
     9e2:	50 81       	ld	r21, Z
     9e4:	88 23       	and	r24, r24
     9e6:	61 f0       	breq	.+24     	; 0xa00 <__DATA_REGION_LENGTH__>
     9e8:	66 23       	and	r22, r22
     9ea:	61 f0       	breq	.+24     	; 0xa04 <__DATA_REGION_LENGTH__+0x4>
     9ec:	81 e0       	ldi	r24, 0x01	; 1
     9ee:	90 e0       	ldi	r25, 0x00	; 0
     9f0:	01 c0       	rjmp	.+2      	; 0x9f4 <_ZN8imsc_LED9overwriteEbPh+0x28>
     9f2:	88 0f       	add	r24, r24
     9f4:	4a 95       	dec	r20
     9f6:	ea f7       	brpl	.-6      	; 0x9f2 <_ZN8imsc_LED9overwriteEbPh+0x26>
     9f8:	80 95       	com	r24
     9fa:	85 23       	and	r24, r21
     9fc:	80 83       	st	Z, r24
     9fe:	08 95       	ret
     a00:	66 23       	and	r22, r22
     a02:	a1 f3       	breq	.-24     	; 0x9ec <_ZN8imsc_LED9overwriteEbPh+0x20>
     a04:	21 e0       	ldi	r18, 0x01	; 1
     a06:	30 e0       	ldi	r19, 0x00	; 0
     a08:	01 c0       	rjmp	.+2      	; 0xa0c <__DATA_REGION_LENGTH__+0xc>
     a0a:	22 0f       	add	r18, r18
     a0c:	4a 95       	dec	r20
     a0e:	ea f7       	brpl	.-6      	; 0xa0a <__DATA_REGION_LENGTH__+0xa>
     a10:	25 2b       	or	r18, r21
     a12:	20 83       	st	Z, r18
     a14:	08 95       	ret
     a16:	08 95       	ret

00000a18 <_ZN28ImpedanceMultiSensingCircuit17writeModesAndLedsEh>:
     a18:	ff 92       	push	r15
     a1a:	0f 93       	push	r16
     a1c:	1f 93       	push	r17
     a1e:	cf 93       	push	r28
     a20:	df 93       	push	r29
     a22:	1f 92       	push	r1
     a24:	cd b7       	in	r28, 0x3d	; 61
     a26:	de b7       	in	r29, 0x3e	; 62
     a28:	8c 01       	movw	r16, r24
     a2a:	f6 2e       	mov	r15, r22
     a2c:	69 83       	std	Y+1, r22	; 0x01
     a2e:	fc 01       	movw	r30, r24
     a30:	ea 50       	subi	r30, 0x0A	; 10
     a32:	ff 4f       	sbci	r31, 0xFF	; 255
     a34:	ae 01       	movw	r20, r28
     a36:	4f 5f       	subi	r20, 0xFF	; 255
     a38:	5f 4f       	sbci	r21, 0xFF	; 255
     a3a:	64 ff       	sbrs	r22, 4
     a3c:	02 c0       	rjmp	.+4      	; 0xa42 <_ZN28ImpedanceMultiSensingCircuit17writeModesAndLedsEh+0x2a>
     a3e:	61 e0       	ldi	r22, 0x01	; 1
     a40:	01 c0       	rjmp	.+2      	; 0xa44 <_ZN28ImpedanceMultiSensingCircuit17writeModesAndLedsEh+0x2c>
     a42:	60 e0       	ldi	r22, 0x00	; 0
     a44:	80 81       	ld	r24, Z
     a46:	91 81       	ldd	r25, Z+1	; 0x01
     a48:	0e 94 e6 04 	call	0x9cc	; 0x9cc <_ZN8imsc_LED9overwriteEbPh>
     a4c:	f8 01       	movw	r30, r16
     a4e:	e8 50       	subi	r30, 0x08	; 8
     a50:	ff 4f       	sbci	r31, 0xFF	; 255
     a52:	ae 01       	movw	r20, r28
     a54:	4f 5f       	subi	r20, 0xFF	; 255
     a56:	5f 4f       	sbci	r21, 0xFF	; 255
     a58:	f5 fe       	sbrs	r15, 5
     a5a:	02 c0       	rjmp	.+4      	; 0xa60 <_ZN28ImpedanceMultiSensingCircuit17writeModesAndLedsEh+0x48>
     a5c:	61 e0       	ldi	r22, 0x01	; 1
     a5e:	01 c0       	rjmp	.+2      	; 0xa62 <_ZN28ImpedanceMultiSensingCircuit17writeModesAndLedsEh+0x4a>
     a60:	60 e0       	ldi	r22, 0x00	; 0
     a62:	80 81       	ld	r24, Z
     a64:	91 81       	ldd	r25, Z+1	; 0x01
     a66:	0e 94 e6 04 	call	0x9cc	; 0x9cc <_ZN8imsc_LED9overwriteEbPh>
     a6a:	f8 01       	movw	r30, r16
     a6c:	e6 50       	subi	r30, 0x06	; 6
     a6e:	ff 4f       	sbci	r31, 0xFF	; 255
     a70:	ae 01       	movw	r20, r28
     a72:	4f 5f       	subi	r20, 0xFF	; 255
     a74:	5f 4f       	sbci	r21, 0xFF	; 255
     a76:	f6 fe       	sbrs	r15, 6
     a78:	02 c0       	rjmp	.+4      	; 0xa7e <_ZN28ImpedanceMultiSensingCircuit17writeModesAndLedsEh+0x66>
     a7a:	61 e0       	ldi	r22, 0x01	; 1
     a7c:	01 c0       	rjmp	.+2      	; 0xa80 <_ZN28ImpedanceMultiSensingCircuit17writeModesAndLedsEh+0x68>
     a7e:	60 e0       	ldi	r22, 0x00	; 0
     a80:	80 81       	ld	r24, Z
     a82:	91 81       	ldd	r25, Z+1	; 0x01
     a84:	0e 94 e6 04 	call	0x9cc	; 0x9cc <_ZN8imsc_LED9overwriteEbPh>
     a88:	f8 01       	movw	r30, r16
     a8a:	e4 50       	subi	r30, 0x04	; 4
     a8c:	ff 4f       	sbci	r31, 0xFF	; 255
     a8e:	ae 01       	movw	r20, r28
     a90:	4f 5f       	subi	r20, 0xFF	; 255
     a92:	5f 4f       	sbci	r21, 0xFF	; 255
     a94:	f7 fe       	sbrs	r15, 7
     a96:	02 c0       	rjmp	.+4      	; 0xa9c <_ZN28ImpedanceMultiSensingCircuit17writeModesAndLedsEh+0x84>
     a98:	61 e0       	ldi	r22, 0x01	; 1
     a9a:	01 c0       	rjmp	.+2      	; 0xa9e <_ZN28ImpedanceMultiSensingCircuit17writeModesAndLedsEh+0x86>
     a9c:	60 e0       	ldi	r22, 0x00	; 0
     a9e:	80 81       	ld	r24, Z
     aa0:	91 81       	ldd	r25, Z+1	; 0x01
     aa2:	0e 94 e6 04 	call	0x9cc	; 0x9cc <_ZN8imsc_LED9overwriteEbPh>
     aa6:	f8 01       	movw	r30, r16
     aa8:	e2 50       	subi	r30, 0x02	; 2
     aaa:	ff 4f       	sbci	r31, 0xFF	; 255
     aac:	ae 01       	movw	r20, r28
     aae:	4f 5f       	subi	r20, 0xFF	; 255
     ab0:	5f 4f       	sbci	r21, 0xFF	; 255
     ab2:	f1 fe       	sbrs	r15, 1
     ab4:	02 c0       	rjmp	.+4      	; 0xaba <_ZN28ImpedanceMultiSensingCircuit17writeModesAndLedsEh+0xa2>
     ab6:	61 e0       	ldi	r22, 0x01	; 1
     ab8:	01 c0       	rjmp	.+2      	; 0xabc <_ZN28ImpedanceMultiSensingCircuit17writeModesAndLedsEh+0xa4>
     aba:	60 e0       	ldi	r22, 0x00	; 0
     abc:	80 81       	ld	r24, Z
     abe:	91 81       	ldd	r25, Z+1	; 0x01
     ac0:	0e 94 e6 04 	call	0x9cc	; 0x9cc <_ZN8imsc_LED9overwriteEbPh>
     ac4:	f8 01       	movw	r30, r16
     ac6:	f3 95       	inc	r31
     ac8:	ae 01       	movw	r20, r28
     aca:	4f 5f       	subi	r20, 0xFF	; 255
     acc:	5f 4f       	sbci	r21, 0xFF	; 255
     ace:	f2 fe       	sbrs	r15, 2
     ad0:	02 c0       	rjmp	.+4      	; 0xad6 <_ZN28ImpedanceMultiSensingCircuit17writeModesAndLedsEh+0xbe>
     ad2:	61 e0       	ldi	r22, 0x01	; 1
     ad4:	01 c0       	rjmp	.+2      	; 0xad8 <_ZN28ImpedanceMultiSensingCircuit17writeModesAndLedsEh+0xc0>
     ad6:	60 e0       	ldi	r22, 0x00	; 0
     ad8:	80 81       	ld	r24, Z
     ada:	91 81       	ldd	r25, Z+1	; 0x01
     adc:	0e 94 e6 04 	call	0x9cc	; 0x9cc <_ZN8imsc_LED9overwriteEbPh>
     ae0:	f8 01       	movw	r30, r16
     ae2:	ee 5f       	subi	r30, 0xFE	; 254
     ae4:	fe 4f       	sbci	r31, 0xFE	; 254
     ae6:	ae 01       	movw	r20, r28
     ae8:	4f 5f       	subi	r20, 0xFF	; 255
     aea:	5f 4f       	sbci	r21, 0xFF	; 255
     aec:	f3 fe       	sbrs	r15, 3
     aee:	02 c0       	rjmp	.+4      	; 0xaf4 <_ZN28ImpedanceMultiSensingCircuit17writeModesAndLedsEh+0xdc>
     af0:	61 e0       	ldi	r22, 0x01	; 1
     af2:	01 c0       	rjmp	.+2      	; 0xaf6 <_ZN28ImpedanceMultiSensingCircuit17writeModesAndLedsEh+0xde>
     af4:	60 e0       	ldi	r22, 0x00	; 0
     af6:	80 81       	ld	r24, Z
     af8:	91 81       	ldd	r25, Z+1	; 0x01
     afa:	0e 94 e6 04 	call	0x9cc	; 0x9cc <_ZN8imsc_LED9overwriteEbPh>
     afe:	f8 01       	movw	r30, r16
     b00:	ec 5f       	subi	r30, 0xFC	; 252
     b02:	fe 4f       	sbci	r31, 0xFE	; 254
     b04:	ae 01       	movw	r20, r28
     b06:	4f 5f       	subi	r20, 0xFF	; 255
     b08:	5f 4f       	sbci	r21, 0xFF	; 255
     b0a:	f0 fe       	sbrs	r15, 0
     b0c:	02 c0       	rjmp	.+4      	; 0xb12 <__stack+0x13>
     b0e:	61 e0       	ldi	r22, 0x01	; 1
     b10:	01 c0       	rjmp	.+2      	; 0xb14 <__stack+0x15>
     b12:	60 e0       	ldi	r22, 0x00	; 0
     b14:	80 81       	ld	r24, Z
     b16:	91 81       	ldd	r25, Z+1	; 0x01
     b18:	0e 94 e6 04 	call	0x9cc	; 0x9cc <_ZN8imsc_LED9overwriteEbPh>
     b1c:	f8 01       	movw	r30, r16
     b1e:	ec 50       	subi	r30, 0x0C	; 12
     b20:	ff 4f       	sbci	r31, 0xFF	; 255
     b22:	49 81       	ldd	r20, Y+1	; 0x01
     b24:	62 e1       	ldi	r22, 0x12	; 18
     b26:	80 81       	ld	r24, Z
     b28:	91 81       	ldd	r25, Z+1	; 0x01
     b2a:	0e 94 ad 10 	call	0x215a	; 0x215a <_ZN8MCP2301713writeRegisterEhh>
     b2e:	0f 90       	pop	r0
     b30:	df 91       	pop	r29
     b32:	cf 91       	pop	r28
     b34:	1f 91       	pop	r17
     b36:	0f 91       	pop	r16
     b38:	ff 90       	pop	r15
     b3a:	08 95       	ret

00000b3c <_ZN28ImpedanceMultiSensingCircuitC1Ev>:
     b3c:	0f 93       	push	r16
     b3e:	1f 93       	push	r17
     b40:	cf 93       	push	r28
     b42:	df 93       	push	r29
     b44:	ec 01       	movw	r28, r24
     b46:	fc 01       	movw	r30, r24
     b48:	3f 96       	adiw	r30, 0x0f	; 15
     b4a:	84 e3       	ldi	r24, 0x34	; 52
     b4c:	df 01       	movw	r26, r30
     b4e:	1d 92       	st	X+, r1
     b50:	8a 95       	dec	r24
     b52:	e9 f7       	brne	.-6      	; 0xb4e <_ZN28ImpedanceMultiSensingCircuitC1Ev+0x12>
     b54:	e3 56       	subi	r30, 0x63	; 99
     b56:	ff 4f       	sbci	r31, 0xFF	; 255
     b58:	84 e4       	ldi	r24, 0x44	; 68
     b5a:	df 01       	movw	r26, r30
     b5c:	1d 92       	st	X+, r1
     b5e:	8a 95       	dec	r24
     b60:	e9 f7       	brne	.-6      	; 0xb5c <_ZN28ImpedanceMultiSensingCircuitC1Ev+0x20>
     b62:	80 e0       	ldi	r24, 0x00	; 0
     b64:	90 e0       	ldi	r25, 0x00	; 0
     b66:	a0 e8       	ldi	r26, 0x80	; 128
     b68:	bf e3       	ldi	r27, 0x3F	; 63
     b6a:	80 83       	st	Z, r24
     b6c:	91 83       	std	Z+1, r25	; 0x01
     b6e:	a2 83       	std	Z+2, r26	; 0x02
     b70:	b3 83       	std	Z+3, r27	; 0x03
     b72:	80 e3       	ldi	r24, 0x30	; 48
     b74:	90 e0       	ldi	r25, 0x00	; 0
     b76:	0e 94 3b 23 	call	0x4676	; 0x4676 <_Znwj>
     b7a:	8c 01       	movw	r16, r24
     b7c:	0e 94 00 12 	call	0x2400	; 0x2400 <_ZN13MUX16_CIRCUITC1Ev>
     b80:	fe 01       	movw	r30, r28
     b82:	e0 51       	subi	r30, 0x10	; 16
     b84:	ff 4f       	sbci	r31, 0xFF	; 255
     b86:	11 83       	std	Z+1, r17	; 0x01
     b88:	00 83       	st	Z, r16
     b8a:	84 e0       	ldi	r24, 0x04	; 4
     b8c:	90 e0       	ldi	r25, 0x00	; 0
     b8e:	0e 94 3b 23 	call	0x4676	; 0x4676 <_Znwj>
     b92:	fe 01       	movw	r30, r28
     b94:	ee 50       	subi	r30, 0x0E	; 14
     b96:	ff 4f       	sbci	r31, 0xFF	; 255
     b98:	91 83       	std	Z+1, r25	; 0x01
     b9a:	80 83       	st	Z, r24
     b9c:	83 e0       	ldi	r24, 0x03	; 3
     b9e:	90 e0       	ldi	r25, 0x00	; 0
     ba0:	0e 94 3b 23 	call	0x4676	; 0x4676 <_Znwj>
     ba4:	fe 01       	movw	r30, r28
     ba6:	ec 50       	subi	r30, 0x0C	; 12
     ba8:	ff 4f       	sbci	r31, 0xFF	; 255
     baa:	91 83       	std	Z+1, r25	; 0x01
     bac:	80 83       	st	Z, r24
     bae:	ed 59       	subi	r30, 0x9D	; 157
     bb0:	f1 09       	sbc	r31, r1
     bb2:	80 e0       	ldi	r24, 0x00	; 0
     bb4:	9e ef       	ldi	r25, 0xFE	; 254
     bb6:	af ef       	ldi	r26, 0xFF	; 255
     bb8:	b6 e4       	ldi	r27, 0x46	; 70
     bba:	80 83       	st	Z, r24
     bbc:	91 83       	std	Z+1, r25	; 0x01
     bbe:	a2 83       	std	Z+2, r26	; 0x02
     bc0:	b3 83       	std	Z+3, r27	; 0x03
     bc2:	3d 96       	adiw	r30, 0x0d	; 13
     bc4:	10 82       	st	Z, r1
     bc6:	11 82       	std	Z+1, r1	; 0x01
     bc8:	12 82       	std	Z+2, r1	; 0x02
     bca:	13 82       	std	Z+3, r1	; 0x03
     bcc:	82 e3       	ldi	r24, 0x32	; 50
     bce:	88 83       	st	Y, r24
     bd0:	83 e4       	ldi	r24, 0x43	; 67
     bd2:	89 83       	std	Y+1, r24	; 0x01
     bd4:	84 e5       	ldi	r24, 0x54	; 84
     bd6:	8a 83       	std	Y+2, r24	; 0x02
     bd8:	85 e6       	ldi	r24, 0x65	; 101
     bda:	8b 83       	std	Y+3, r24	; 0x03
     bdc:	86 e7       	ldi	r24, 0x76	; 118
     bde:	8c 83       	std	Y+4, r24	; 0x04
     be0:	87 e8       	ldi	r24, 0x87	; 135
     be2:	8d 83       	std	Y+5, r24	; 0x05
     be4:	88 e9       	ldi	r24, 0x98	; 152
     be6:	8e 83       	std	Y+6, r24	; 0x06
     be8:	89 ea       	ldi	r24, 0xA9	; 169
     bea:	8f 83       	std	Y+7, r24	; 0x07
     bec:	8a eb       	ldi	r24, 0xBA	; 186
     bee:	88 87       	std	Y+8, r24	; 0x08
     bf0:	8b ec       	ldi	r24, 0xCB	; 203
     bf2:	89 87       	std	Y+9, r24	; 0x09
     bf4:	8c ed       	ldi	r24, 0xDC	; 220
     bf6:	8a 87       	std	Y+10, r24	; 0x0a
     bf8:	8d ee       	ldi	r24, 0xED	; 237
     bfa:	8b 87       	std	Y+11, r24	; 0x0b
     bfc:	8e ef       	ldi	r24, 0xFE	; 254
     bfe:	8c 87       	std	Y+12, r24	; 0x0c
     c00:	81 e0       	ldi	r24, 0x01	; 1
     c02:	8d 87       	std	Y+13, r24	; 0x0d
     c04:	8a e0       	ldi	r24, 0x0A	; 10
     c06:	8e 87       	std	Y+14, r24	; 0x0e
     c08:	79 97       	sbiw	r30, 0x19	; 25
     c0a:	11 82       	std	Z+1, r1	; 0x01
     c0c:	10 82       	st	Z, r1
     c0e:	32 96       	adiw	r30, 0x02	; 2
     c10:	11 82       	std	Z+1, r1	; 0x01
     c12:	10 82       	st	Z, r1
     c14:	32 96       	adiw	r30, 0x02	; 2
     c16:	11 82       	std	Z+1, r1	; 0x01
     c18:	10 82       	st	Z, r1
     c1a:	32 96       	adiw	r30, 0x02	; 2
     c1c:	11 82       	std	Z+1, r1	; 0x01
     c1e:	10 82       	st	Z, r1
     c20:	72 96       	adiw	r30, 0x12	; 18
     c22:	10 82       	st	Z, r1
     c24:	cd 5a       	subi	r28, 0xAD	; 173
     c26:	df 4f       	sbci	r29, 0xFF	; 255
     c28:	80 ea       	ldi	r24, 0xA0	; 160
     c2a:	96 e8       	ldi	r25, 0x86	; 134
     c2c:	a1 e0       	ldi	r26, 0x01	; 1
     c2e:	b0 e0       	ldi	r27, 0x00	; 0
     c30:	88 83       	st	Y, r24
     c32:	99 83       	std	Y+1, r25	; 0x01
     c34:	aa 83       	std	Y+2, r26	; 0x02
     c36:	bb 83       	std	Y+3, r27	; 0x03
     c38:	df 91       	pop	r29
     c3a:	cf 91       	pop	r28
     c3c:	1f 91       	pop	r17
     c3e:	0f 91       	pop	r16
     c40:	08 95       	ret

00000c42 <_ZN28ImpedanceMultiSensingCircuit20setElectrodeInitCondEv>:
     c42:	cf 93       	push	r28
     c44:	df 93       	push	r29
     c46:	ec 01       	movw	r28, r24
     c48:	c0 51       	subi	r28, 0x10	; 16
     c4a:	df 4f       	sbci	r29, 0xFF	; 255
     c4c:	6f ef       	ldi	r22, 0xFF	; 255
     c4e:	7f ef       	ldi	r23, 0xFF	; 255
     c50:	88 81       	ld	r24, Y
     c52:	99 81       	ldd	r25, Y+1	; 0x01
     c54:	0e 94 b8 13 	call	0x2770	; 0x2770 <_ZN13MUX16_CIRCUIT16prepareSignalMuxEi>
     c58:	6f ef       	ldi	r22, 0xFF	; 255
     c5a:	7f ef       	ldi	r23, 0xFF	; 255
     c5c:	88 81       	ld	r24, Y
     c5e:	99 81       	ldd	r25, Y+1	; 0x01
     c60:	0e 94 c8 13 	call	0x2790	; 0x2790 <_ZN13MUX16_CIRCUIT17prepareMeasureMuxEi>
     c64:	6f ef       	ldi	r22, 0xFF	; 255
     c66:	7f ef       	ldi	r23, 0xFF	; 255
     c68:	88 81       	ld	r24, Y
     c6a:	99 81       	ldd	r25, Y+1	; 0x01
     c6c:	0e 94 d8 13 	call	0x27b0	; 0x27b0 <_ZN13MUX16_CIRCUIT16prepareGroundMuxEi>
     c70:	88 81       	ld	r24, Y
     c72:	99 81       	ldd	r25, Y+1	; 0x01
     c74:	df 91       	pop	r29
     c76:	cf 91       	pop	r28
     c78:	0c 94 7c 12 	jmp	0x24f8	; 0x24f8 <_ZN13MUX16_CIRCUIT26writePreparedChannelsToMuxEv>

00000c7c <_ZN28ImpedanceMultiSensingCircuit12disableModesEv>:
     c7c:	cf 93       	push	r28
     c7e:	df 93       	push	r29
     c80:	ec 01       	movw	r28, r24
     c82:	0e 94 21 06 	call	0xc42	; 0xc42 <_ZN28ImpedanceMultiSensingCircuit20setElectrodeInitCondEv>
     c86:	60 e2       	ldi	r22, 0x20	; 32
     c88:	ce 01       	movw	r24, r28
     c8a:	df 91       	pop	r29
     c8c:	cf 91       	pop	r28
     c8e:	0c 94 0c 05 	jmp	0xa18	; 0xa18 <_ZN28ImpedanceMultiSensingCircuit17writeModesAndLedsEh>

00000c92 <_ZN28ImpedanceMultiSensingCircuit12beginMeasureEv>:
     c92:	cf 93       	push	r28
     c94:	df 93       	push	r29
     c96:	ec 01       	movw	r28, r24
     c98:	cd 59       	subi	r28, 0x9D	; 157
     c9a:	df 4f       	sbci	r29, 0xFF	; 255
     c9c:	88 81       	ld	r24, Y
     c9e:	81 11       	cpse	r24, r1
     ca0:	0a c0       	rjmp	.+20     	; 0xcb6 <_ZN28ImpedanceMultiSensingCircuit12beginMeasureEv+0x24>
     ca2:	0e 94 43 03 	call	0x686	; 0x686 <_ZN7AD5933s17beginOneFrequencyEv>
     ca6:	63 e0       	ldi	r22, 0x03	; 3
     ca8:	70 e0       	ldi	r23, 0x00	; 0
     caa:	80 e0       	ldi	r24, 0x00	; 0
     cac:	90 e0       	ldi	r25, 0x00	; 0
     cae:	0e 94 00 2a 	call	0x5400	; 0x5400 <delay>
     cb2:	81 e0       	ldi	r24, 0x01	; 1
     cb4:	88 83       	st	Y, r24
     cb6:	df 91       	pop	r29
     cb8:	cf 91       	pop	r28
     cba:	08 95       	ret

00000cbc <_ZN28ImpedanceMultiSensingCircuit10endMeasureEv>:
     cbc:	0f 93       	push	r16
     cbe:	1f 93       	push	r17
     cc0:	cf 93       	push	r28
     cc2:	df 93       	push	r29
     cc4:	8c 01       	movw	r16, r24
     cc6:	0d 59       	subi	r16, 0x9D	; 157
     cc8:	1f 4f       	sbci	r17, 0xFF	; 255
     cca:	f8 01       	movw	r30, r16
     ccc:	20 81       	ld	r18, Z
     cce:	22 23       	and	r18, r18
     cd0:	61 f0       	breq	.+24     	; 0xcea <_ZN28ImpedanceMultiSensingCircuit10endMeasureEv+0x2e>
     cd2:	ec 01       	movw	r28, r24
     cd4:	0e 94 40 03 	call	0x680	; 0x680 <_ZN7AD5933s15endOneFrequencyEv>
     cd8:	ce 01       	movw	r24, r28
     cda:	0e 94 21 06 	call	0xc42	; 0xc42 <_ZN28ImpedanceMultiSensingCircuit20setElectrodeInitCondEv>
     cde:	60 e2       	ldi	r22, 0x20	; 32
     ce0:	ce 01       	movw	r24, r28
     ce2:	0e 94 0c 05 	call	0xa18	; 0xa18 <_ZN28ImpedanceMultiSensingCircuit17writeModesAndLedsEh>
     ce6:	f8 01       	movw	r30, r16
     ce8:	10 82       	st	Z, r1
     cea:	df 91       	pop	r29
     cec:	cf 91       	pop	r28
     cee:	1f 91       	pop	r17
     cf0:	0f 91       	pop	r16
     cf2:	08 95       	ret

00000cf4 <_ZN28ImpedanceMultiSensingCircuit17getMaxMeasuredDFTEv>:
     cf4:	8f 92       	push	r8
     cf6:	9f 92       	push	r9
     cf8:	af 92       	push	r10
     cfa:	bf 92       	push	r11
     cfc:	cf 92       	push	r12
     cfe:	df 92       	push	r13
     d00:	ef 92       	push	r14
     d02:	ff 92       	push	r15
     d04:	0f 93       	push	r16
     d06:	1f 93       	push	r17
     d08:	cf 93       	push	r28
     d0a:	df 93       	push	r29
     d0c:	ec 01       	movw	r28, r24
     d0e:	68 e6       	ldi	r22, 0x68	; 104
     d10:	0e 94 0c 05 	call	0xa18	; 0xa18 <_ZN28ImpedanceMultiSensingCircuit17writeModesAndLedsEh>
     d14:	ce 01       	movw	r24, r28
     d16:	0e 94 49 06 	call	0xc92	; 0xc92 <_ZN28ImpedanceMultiSensingCircuit12beginMeasureEv>
     d1a:	8e 01       	movw	r16, r28
     d1c:	00 51       	subi	r16, 0x10	; 16
     d1e:	1f 4f       	sbci	r17, 0xFF	; 255
     d20:	60 e0       	ldi	r22, 0x00	; 0
     d22:	70 e0       	ldi	r23, 0x00	; 0
     d24:	f8 01       	movw	r30, r16
     d26:	80 81       	ld	r24, Z
     d28:	91 81       	ldd	r25, Z+1	; 0x01
     d2a:	0e 94 c8 13 	call	0x2790	; 0x2790 <_ZN13MUX16_CIRCUIT17prepareMeasureMuxEi>
     d2e:	60 e0       	ldi	r22, 0x00	; 0
     d30:	70 e0       	ldi	r23, 0x00	; 0
     d32:	f8 01       	movw	r30, r16
     d34:	80 81       	ld	r24, Z
     d36:	91 81       	ldd	r25, Z+1	; 0x01
     d38:	0e 94 b8 13 	call	0x2770	; 0x2770 <_ZN13MUX16_CIRCUIT16prepareSignalMuxEi>
     d3c:	6f ef       	ldi	r22, 0xFF	; 255
     d3e:	7f ef       	ldi	r23, 0xFF	; 255
     d40:	f8 01       	movw	r30, r16
     d42:	80 81       	ld	r24, Z
     d44:	91 81       	ldd	r25, Z+1	; 0x01
     d46:	0e 94 d8 13 	call	0x27b0	; 0x27b0 <_ZN13MUX16_CIRCUIT16prepareGroundMuxEi>
     d4a:	f8 01       	movw	r30, r16
     d4c:	80 81       	ld	r24, Z
     d4e:	91 81       	ldd	r25, Z+1	; 0x01
     d50:	0e 94 7c 12 	call	0x24f8	; 0x24f8 <_ZN13MUX16_CIRCUIT26writePreparedChannelsToMuxEv>
     d54:	88 e2       	ldi	r24, 0x28	; 40
     d56:	90 e0       	ldi	r25, 0x00	; 0
     d58:	0e 94 3c 2a 	call	0x5478	; 0x5478 <delayMicroseconds>
     d5c:	0e 5f       	subi	r16, 0xFE	; 254
     d5e:	1f 4f       	sbci	r17, 0xFF	; 255
     d60:	40 e0       	ldi	r20, 0x00	; 0
     d62:	50 e0       	ldi	r21, 0x00	; 0
     d64:	60 e0       	ldi	r22, 0x00	; 0
     d66:	70 e0       	ldi	r23, 0x00	; 0
     d68:	f8 01       	movw	r30, r16
     d6a:	80 81       	ld	r24, Z
     d6c:	91 81       	ldd	r25, Z+1	; 0x01
     d6e:	0e 94 ff 03 	call	0x7fe	; 0x7fe <_ZN7AD5933s15getOneFrequencyEPiS0_>
     d72:	f8 01       	movw	r30, r16
     d74:	00 81       	ld	r16, Z
     d76:	11 81       	ldd	r17, Z+1	; 0x01
     d78:	f8 01       	movw	r30, r16
     d7a:	60 81       	ld	r22, Z
     d7c:	71 81       	ldd	r23, Z+1	; 0x01
     d7e:	07 2e       	mov	r0, r23
     d80:	00 0c       	add	r0, r0
     d82:	88 0b       	sbc	r24, r24
     d84:	99 0b       	sbc	r25, r25
     d86:	0e 94 8c 20 	call	0x4118	; 0x4118 <__floatsisf>
     d8a:	6b 01       	movw	r12, r22
     d8c:	7c 01       	movw	r14, r24
     d8e:	f8 01       	movw	r30, r16
     d90:	62 81       	ldd	r22, Z+2	; 0x02
     d92:	73 81       	ldd	r23, Z+3	; 0x03
     d94:	07 2e       	mov	r0, r23
     d96:	00 0c       	add	r0, r0
     d98:	88 0b       	sbc	r24, r24
     d9a:	99 0b       	sbc	r25, r25
     d9c:	0e 94 8c 20 	call	0x4118	; 0x4118 <__floatsisf>
     da0:	4b 01       	movw	r8, r22
     da2:	5c 01       	movw	r10, r24
     da4:	a7 01       	movw	r20, r14
     da6:	96 01       	movw	r18, r12
     da8:	c7 01       	movw	r24, r14
     daa:	b6 01       	movw	r22, r12
     dac:	0e 94 3c 21 	call	0x4278	; 0x4278 <__mulsf3>
     db0:	6b 01       	movw	r12, r22
     db2:	7c 01       	movw	r14, r24
     db4:	a5 01       	movw	r20, r10
     db6:	94 01       	movw	r18, r8
     db8:	c5 01       	movw	r24, r10
     dba:	b4 01       	movw	r22, r8
     dbc:	0e 94 3c 21 	call	0x4278	; 0x4278 <__mulsf3>
     dc0:	9b 01       	movw	r18, r22
     dc2:	ac 01       	movw	r20, r24
     dc4:	c7 01       	movw	r24, r14
     dc6:	b6 01       	movw	r22, r12
     dc8:	0e 94 71 1f 	call	0x3ee2	; 0x3ee2 <__addsf3>
     dcc:	0e 94 af 21 	call	0x435e	; 0x435e <sqrt>
     dd0:	fe 01       	movw	r30, r28
     dd2:	e9 5a       	subi	r30, 0xA9	; 169
     dd4:	ff 4f       	sbci	r31, 0xFF	; 255
     dd6:	60 83       	st	Z, r22
     dd8:	71 83       	std	Z+1, r23	; 0x01
     dda:	82 83       	std	Z+2, r24	; 0x02
     ddc:	93 83       	std	Z+3, r25	; 0x03
     dde:	ce 01       	movw	r24, r28
     de0:	0e 94 5e 06 	call	0xcbc	; 0xcbc <_ZN28ImpedanceMultiSensingCircuit10endMeasureEv>
     de4:	ce 01       	movw	r24, r28
     de6:	df 91       	pop	r29
     de8:	cf 91       	pop	r28
     dea:	1f 91       	pop	r17
     dec:	0f 91       	pop	r16
     dee:	ff 90       	pop	r15
     df0:	ef 90       	pop	r14
     df2:	df 90       	pop	r13
     df4:	cf 90       	pop	r12
     df6:	bf 90       	pop	r11
     df8:	af 90       	pop	r10
     dfa:	9f 90       	pop	r9
     dfc:	8f 90       	pop	r8
     dfe:	0c 94 21 06 	jmp	0xc42	; 0xc42 <_ZN28ImpedanceMultiSensingCircuit20setElectrodeInitCondEv>

00000e02 <_ZN28ImpedanceMultiSensingCircuit18prepareStimulationEv>:
     e02:	0f 93       	push	r16
     e04:	1f 93       	push	r17
     e06:	cf 93       	push	r28
     e08:	df 93       	push	r29
     e0a:	ec 01       	movw	r28, r24
     e0c:	6d 85       	ldd	r22, Y+13	; 0x0d
     e0e:	6f 70       	andi	r22, 0x0F	; 15
     e10:	70 e0       	ldi	r23, 0x00	; 0
     e12:	8c 01       	movw	r16, r24
     e14:	00 51       	subi	r16, 0x10	; 16
     e16:	1f 4f       	sbci	r17, 0xFF	; 255
     e18:	f8 01       	movw	r30, r16
     e1a:	80 81       	ld	r24, Z
     e1c:	91 81       	ldd	r25, Z+1	; 0x01
     e1e:	0e 94 b8 13 	call	0x2770	; 0x2770 <_ZN13MUX16_CIRCUIT16prepareSignalMuxEi>
     e22:	6d 85       	ldd	r22, Y+13	; 0x0d
     e24:	70 e0       	ldi	r23, 0x00	; 0
     e26:	84 e0       	ldi	r24, 0x04	; 4
     e28:	75 95       	asr	r23
     e2a:	67 95       	ror	r22
     e2c:	8a 95       	dec	r24
     e2e:	e1 f7       	brne	.-8      	; 0xe28 <_ZN28ImpedanceMultiSensingCircuit18prepareStimulationEv+0x26>
     e30:	f8 01       	movw	r30, r16
     e32:	80 81       	ld	r24, Z
     e34:	91 81       	ldd	r25, Z+1	; 0x01
     e36:	df 91       	pop	r29
     e38:	cf 91       	pop	r28
     e3a:	1f 91       	pop	r17
     e3c:	0f 91       	pop	r16
     e3e:	0c 94 d8 13 	jmp	0x27b0	; 0x27b0 <_ZN13MUX16_CIRCUIT16prepareGroundMuxEi>

00000e42 <_ZN28ImpedanceMultiSensingCircuit20correctLeakingDataVsEv>:
     e42:	0f 93       	push	r16
     e44:	1f 93       	push	r17
     e46:	cf 93       	push	r28
     e48:	df 93       	push	r29
     e4a:	ec 01       	movw	r28, r24
     e4c:	c8 59       	subi	r28, 0x98	; 152
     e4e:	df 4f       	sbci	r29, 0xFF	; 255
     e50:	8c 01       	movw	r16, r24
     e52:	08 55       	subi	r16, 0x58	; 88
     e54:	1f 4f       	sbci	r17, 0xFF	; 255
     e56:	fe 01       	movw	r30, r28
     e58:	ec 5b       	subi	r30, 0xBC	; 188
     e5a:	ff 4f       	sbci	r31, 0xFF	; 255
     e5c:	20 81       	ld	r18, Z
     e5e:	31 81       	ldd	r19, Z+1	; 0x01
     e60:	42 81       	ldd	r20, Z+2	; 0x02
     e62:	53 81       	ldd	r21, Z+3	; 0x03
     e64:	68 81       	ld	r22, Y
     e66:	79 81       	ldd	r23, Y+1	; 0x01
     e68:	8a 81       	ldd	r24, Y+2	; 0x02
     e6a:	9b 81       	ldd	r25, Y+3	; 0x03
     e6c:	0e 94 3c 21 	call	0x4278	; 0x4278 <__mulsf3>
     e70:	69 93       	st	Y+, r22
     e72:	79 93       	st	Y+, r23
     e74:	89 93       	st	Y+, r24
     e76:	99 93       	st	Y+, r25
     e78:	c0 17       	cp	r28, r16
     e7a:	d1 07       	cpc	r29, r17
     e7c:	61 f7       	brne	.-40     	; 0xe56 <_ZN28ImpedanceMultiSensingCircuit20correctLeakingDataVsEv+0x14>
     e7e:	df 91       	pop	r29
     e80:	cf 91       	pop	r28
     e82:	1f 91       	pop	r17
     e84:	0f 91       	pop	r16
     e86:	08 95       	ret

00000e88 <_ZN28ImpedanceMultiSensingCircuit8getGainUEv>:
     e88:	85 5a       	subi	r24, 0xA5	; 165
     e8a:	9f 4f       	sbci	r25, 0xFF	; 255
     e8c:	fc 01       	movw	r30, r24
     e8e:	60 81       	ld	r22, Z
     e90:	71 81       	ldd	r23, Z+1	; 0x01
     e92:	82 81       	ldd	r24, Z+2	; 0x02
     e94:	93 81       	ldd	r25, Z+3	; 0x03
     e96:	08 95       	ret

00000e98 <_ZN28ImpedanceMultiSensingCircuit8getGainZEv>:
     e98:	81 5a       	subi	r24, 0xA1	; 161
     e9a:	9f 4f       	sbci	r25, 0xFF	; 255
     e9c:	fc 01       	movw	r30, r24
     e9e:	60 81       	ld	r22, Z
     ea0:	71 81       	ldd	r23, Z+1	; 0x01
     ea2:	82 81       	ldd	r24, Z+2	; 0x02
     ea4:	93 81       	ldd	r25, Z+3	; 0x03
     ea6:	08 95       	ret

00000ea8 <_ZN28ImpedanceMultiSensingCircuit14sendBinaryDataEaaaaff>:
     ea8:	6f 92       	push	r6
     eaa:	7f 92       	push	r7
     eac:	8f 92       	push	r8
     eae:	9f 92       	push	r9
     eb0:	af 92       	push	r10
     eb2:	bf 92       	push	r11
     eb4:	cf 92       	push	r12
     eb6:	df 92       	push	r13
     eb8:	ef 92       	push	r14
     eba:	ff 92       	push	r15
     ebc:	0f 93       	push	r16
     ebe:	1f 93       	push	r17
     ec0:	cf 93       	push	r28
     ec2:	df 93       	push	r29
     ec4:	cd b7       	in	r28, 0x3d	; 61
     ec6:	de b7       	in	r29, 0x3e	; 62
     ec8:	28 97       	sbiw	r28, 0x08	; 8
     eca:	0f b6       	in	r0, 0x3f	; 63
     ecc:	f8 94       	cli
     ece:	de bf       	out	0x3e, r29	; 62
     ed0:	0f be       	out	0x3f, r0	; 63
     ed2:	cd bf       	out	0x3d, r28	; 61
     ed4:	16 2f       	mov	r17, r22
     ed6:	64 2e       	mov	r6, r20
     ed8:	72 2e       	mov	r7, r18
     eda:	c9 82       	std	Y+1, r12	; 0x01
     edc:	da 82       	std	Y+2, r13	; 0x02
     ede:	eb 82       	std	Y+3, r14	; 0x03
     ee0:	fc 82       	std	Y+4, r15	; 0x04
     ee2:	8d 82       	std	Y+5, r8	; 0x05
     ee4:	9e 82       	std	Y+6, r9	; 0x06
     ee6:	af 82       	std	Y+7, r10	; 0x07
     ee8:	b8 86       	std	Y+8, r11	; 0x08
     eea:	87 e9       	ldi	r24, 0x97	; 151
     eec:	91 e0       	ldi	r25, 0x01	; 1
     eee:	0e 94 07 22 	call	0x440e	; 0x440e <_ZN7Serial_5writeEh>
     ef2:	11 23       	and	r17, r17
     ef4:	51 f1       	breq	.+84     	; 0xf4a <_ZN28ImpedanceMultiSensingCircuit14sendBinaryDataEaaaaff+0xa2>
     ef6:	66 2d       	mov	r22, r6
     ef8:	87 e9       	ldi	r24, 0x97	; 151
     efa:	91 e0       	ldi	r25, 0x01	; 1
     efc:	0e 94 07 22 	call	0x440e	; 0x440e <_ZN7Serial_5writeEh>
     f00:	67 2d       	mov	r22, r7
     f02:	87 e9       	ldi	r24, 0x97	; 151
     f04:	91 e0       	ldi	r25, 0x01	; 1
     f06:	0e 94 07 22 	call	0x440e	; 0x440e <_ZN7Serial_5writeEh>
     f0a:	60 2f       	mov	r22, r16
     f0c:	87 e9       	ldi	r24, 0x97	; 151
     f0e:	91 e0       	ldi	r25, 0x01	; 1
     f10:	0e 94 07 22 	call	0x440e	; 0x440e <_ZN7Serial_5writeEh>
     f14:	44 e0       	ldi	r20, 0x04	; 4
     f16:	50 e0       	ldi	r21, 0x00	; 0
     f18:	be 01       	movw	r22, r28
     f1a:	6f 5f       	subi	r22, 0xFF	; 255
     f1c:	7f 4f       	sbci	r23, 0xFF	; 255
     f1e:	87 e9       	ldi	r24, 0x97	; 151
     f20:	91 e0       	ldi	r25, 0x01	; 1
     f22:	0e 94 53 22 	call	0x44a6	; 0x44a6 <_ZN7Serial_5writeEPKhj>
     f26:	61 2f       	mov	r22, r17
     f28:	61 78       	andi	r22, 0x81	; 129
     f2a:	67 ff       	sbrs	r22, 7
     f2c:	03 c0       	rjmp	.+6      	; 0xf34 <_ZN28ImpedanceMultiSensingCircuit14sendBinaryDataEaaaaff+0x8c>
     f2e:	61 50       	subi	r22, 0x01	; 1
     f30:	6e 6f       	ori	r22, 0xFE	; 254
     f32:	6f 5f       	subi	r22, 0xFF	; 255
     f34:	61 30       	cpi	r22, 0x01	; 1
     f36:	49 f0       	breq	.+18     	; 0xf4a <_ZN28ImpedanceMultiSensingCircuit14sendBinaryDataEaaaaff+0xa2>
     f38:	44 e0       	ldi	r20, 0x04	; 4
     f3a:	50 e0       	ldi	r21, 0x00	; 0
     f3c:	be 01       	movw	r22, r28
     f3e:	6b 5f       	subi	r22, 0xFB	; 251
     f40:	7f 4f       	sbci	r23, 0xFF	; 255
     f42:	87 e9       	ldi	r24, 0x97	; 151
     f44:	91 e0       	ldi	r25, 0x01	; 1
     f46:	0e 94 53 22 	call	0x44a6	; 0x44a6 <_ZN7Serial_5writeEPKhj>
     f4a:	28 96       	adiw	r28, 0x08	; 8
     f4c:	0f b6       	in	r0, 0x3f	; 63
     f4e:	f8 94       	cli
     f50:	de bf       	out	0x3e, r29	; 62
     f52:	0f be       	out	0x3f, r0	; 63
     f54:	cd bf       	out	0x3d, r28	; 61
     f56:	df 91       	pop	r29
     f58:	cf 91       	pop	r28
     f5a:	1f 91       	pop	r17
     f5c:	0f 91       	pop	r16
     f5e:	ff 90       	pop	r15
     f60:	ef 90       	pop	r14
     f62:	df 90       	pop	r13
     f64:	cf 90       	pop	r12
     f66:	bf 90       	pop	r11
     f68:	af 90       	pop	r10
     f6a:	9f 90       	pop	r9
     f6c:	8f 90       	pop	r8
     f6e:	7f 90       	pop	r7
     f70:	6f 90       	pop	r6
     f72:	08 95       	ret

00000f74 <_ZN28ImpedanceMultiSensingCircuit16measureImpedanceEaa15directPrintMode>:
     f74:	3f 92       	push	r3
     f76:	4f 92       	push	r4
     f78:	5f 92       	push	r5
     f7a:	6f 92       	push	r6
     f7c:	7f 92       	push	r7
     f7e:	8f 92       	push	r8
     f80:	9f 92       	push	r9
     f82:	af 92       	push	r10
     f84:	bf 92       	push	r11
     f86:	cf 92       	push	r12
     f88:	df 92       	push	r13
     f8a:	ef 92       	push	r14
     f8c:	ff 92       	push	r15
     f8e:	0f 93       	push	r16
     f90:	1f 93       	push	r17
     f92:	cf 93       	push	r28
     f94:	df 93       	push	r29
     f96:	cd b7       	in	r28, 0x3d	; 61
     f98:	de b7       	in	r29, 0x3e	; 62
     f9a:	2a 97       	sbiw	r28, 0x0a	; 10
     f9c:	0f b6       	in	r0, 0x3f	; 63
     f9e:	f8 94       	cli
     fa0:	de bf       	out	0x3e, r29	; 62
     fa2:	0f be       	out	0x3f, r0	; 63
     fa4:	cd bf       	out	0x3d, r28	; 61
     fa6:	9a 87       	std	Y+10, r25	; 0x0a
     fa8:	89 87       	std	Y+9, r24	; 0x09
     faa:	e6 2e       	mov	r14, r22
     fac:	f4 2e       	mov	r15, r20
     fae:	32 2e       	mov	r3, r18
     fb0:	81 e0       	ldi	r24, 0x01	; 1
     fb2:	86 0f       	add	r24, r22
     fb4:	09 85       	ldd	r16, Y+9	; 0x09
     fb6:	1a 85       	ldd	r17, Y+10	; 0x0a
     fb8:	00 51       	subi	r16, 0x10	; 16
     fba:	1f 4f       	sbci	r17, 0xFF	; 255
     fbc:	82 31       	cpi	r24, 0x12	; 18
     fbe:	20 f4       	brcc	.+8      	; 0xfc8 <_ZN28ImpedanceMultiSensingCircuit16measureImpedanceEaa15directPrintMode+0x54>
     fc0:	81 e0       	ldi	r24, 0x01	; 1
     fc2:	84 0f       	add	r24, r20
     fc4:	82 31       	cpi	r24, 0x12	; 18
     fc6:	40 f1       	brcs	.+80     	; 0x1018 <_ZN28ImpedanceMultiSensingCircuit16measureImpedanceEaa15directPrintMode+0xa4>
     fc8:	60 e1       	ldi	r22, 0x10	; 16
     fca:	89 85       	ldd	r24, Y+9	; 0x09
     fcc:	9a 85       	ldd	r25, Y+10	; 0x0a
     fce:	0e 94 0c 05 	call	0xa18	; 0xa18 <_ZN28ImpedanceMultiSensingCircuit17writeModesAndLedsEh>
     fd2:	6f ef       	ldi	r22, 0xFF	; 255
     fd4:	7f ef       	ldi	r23, 0xFF	; 255
     fd6:	f8 01       	movw	r30, r16
     fd8:	80 81       	ld	r24, Z
     fda:	91 81       	ldd	r25, Z+1	; 0x01
     fdc:	0e 94 b8 13 	call	0x2770	; 0x2770 <_ZN13MUX16_CIRCUIT16prepareSignalMuxEi>
     fe0:	6f ef       	ldi	r22, 0xFF	; 255
     fe2:	7f ef       	ldi	r23, 0xFF	; 255
     fe4:	f8 01       	movw	r30, r16
     fe6:	80 81       	ld	r24, Z
     fe8:	91 81       	ldd	r25, Z+1	; 0x01
     fea:	0e 94 c8 13 	call	0x2790	; 0x2790 <_ZN13MUX16_CIRCUIT17prepareMeasureMuxEi>
     fee:	6f ef       	ldi	r22, 0xFF	; 255
     ff0:	7f ef       	ldi	r23, 0xFF	; 255
     ff2:	f8 01       	movw	r30, r16
     ff4:	80 81       	ld	r24, Z
     ff6:	91 81       	ldd	r25, Z+1	; 0x01
     ff8:	0e 94 d8 13 	call	0x27b0	; 0x27b0 <_ZN13MUX16_CIRCUIT16prepareGroundMuxEi>
     ffc:	f8 01       	movw	r30, r16
     ffe:	80 81       	ld	r24, Z
    1000:	91 81       	ldd	r25, Z+1	; 0x01
    1002:	0e 94 7c 12 	call	0x24f8	; 0x24f8 <_ZN13MUX16_CIRCUIT26writePreparedChannelsToMuxEv>
    1006:	88 e2       	ldi	r24, 0x28	; 40
    1008:	90 e0       	ldi	r25, 0x00	; 0
    100a:	0e 94 3c 2a 	call	0x5478	; 0x5478 <delayMicroseconds>
    100e:	50 e0       	ldi	r21, 0x00	; 0
    1010:	40 e0       	ldi	r20, 0x00	; 0
    1012:	30 e8       	ldi	r19, 0x80	; 128
    1014:	2f eb       	ldi	r18, 0xBF	; 191
    1016:	14 c1       	rjmp	.+552    	; 0x1240 <_ZN28ImpedanceMultiSensingCircuit16measureImpedanceEaa15directPrintMode+0x2cc>
    1018:	89 85       	ldd	r24, Y+9	; 0x09
    101a:	9a 85       	ldd	r25, Y+10	; 0x0a
    101c:	0e 94 49 06 	call	0xc92	; 0xc92 <_ZN28ImpedanceMultiSensingCircuit12beginMeasureEv>
    1020:	f0 e1       	ldi	r31, 0x10	; 16
    1022:	ef 16       	cp	r14, r31
    1024:	19 f0       	breq	.+6      	; 0x102c <_ZN28ImpedanceMultiSensingCircuit16measureImpedanceEaa15directPrintMode+0xb8>
    1026:	ff 12       	cpse	r15, r31
    1028:	09 c0       	rjmp	.+18     	; 0x103c <_ZN28ImpedanceMultiSensingCircuit16measureImpedanceEaa15directPrintMode+0xc8>
    102a:	fe 2c       	mov	r15, r14
    102c:	63 e4       	ldi	r22, 0x43	; 67
    102e:	89 85       	ldd	r24, Y+9	; 0x09
    1030:	9a 85       	ldd	r25, Y+10	; 0x0a
    1032:	0e 94 0c 05 	call	0xa18	; 0xa18 <_ZN28ImpedanceMultiSensingCircuit17writeModesAndLedsEh>
    1036:	6f ef       	ldi	r22, 0xFF	; 255
    1038:	7f ef       	ldi	r23, 0xFF	; 255
    103a:	08 c0       	rjmp	.+16     	; 0x104c <_ZN28ImpedanceMultiSensingCircuit16measureImpedanceEaa15directPrintMode+0xd8>
    103c:	61 e4       	ldi	r22, 0x41	; 65
    103e:	89 85       	ldd	r24, Y+9	; 0x09
    1040:	9a 85       	ldd	r25, Y+10	; 0x0a
    1042:	0e 94 0c 05 	call	0xa18	; 0xa18 <_ZN28ImpedanceMultiSensingCircuit17writeModesAndLedsEh>
    1046:	6e 2d       	mov	r22, r14
    1048:	ee 0c       	add	r14, r14
    104a:	77 0b       	sbc	r23, r23
    104c:	f8 01       	movw	r30, r16
    104e:	80 81       	ld	r24, Z
    1050:	91 81       	ldd	r25, Z+1	; 0x01
    1052:	0e 94 b8 13 	call	0x2770	; 0x2770 <_ZN13MUX16_CIRCUIT16prepareSignalMuxEi>
    1056:	6f ef       	ldi	r22, 0xFF	; 255
    1058:	7f ef       	ldi	r23, 0xFF	; 255
    105a:	f8 01       	movw	r30, r16
    105c:	80 81       	ld	r24, Z
    105e:	91 81       	ldd	r25, Z+1	; 0x01
    1060:	0e 94 c8 13 	call	0x2790	; 0x2790 <_ZN13MUX16_CIRCUIT17prepareMeasureMuxEi>
    1064:	6f 2d       	mov	r22, r15
    1066:	ff 0c       	add	r15, r15
    1068:	77 0b       	sbc	r23, r23
    106a:	f8 01       	movw	r30, r16
    106c:	80 81       	ld	r24, Z
    106e:	91 81       	ldd	r25, Z+1	; 0x01
    1070:	0e 94 d8 13 	call	0x27b0	; 0x27b0 <_ZN13MUX16_CIRCUIT16prepareGroundMuxEi>
    1074:	f8 01       	movw	r30, r16
    1076:	80 81       	ld	r24, Z
    1078:	91 81       	ldd	r25, Z+1	; 0x01
    107a:	0e 94 7c 12 	call	0x24f8	; 0x24f8 <_ZN13MUX16_CIRCUIT26writePreparedChannelsToMuxEv>
    107e:	88 e2       	ldi	r24, 0x28	; 40
    1080:	90 e0       	ldi	r25, 0x00	; 0
    1082:	0e 94 3c 2a 	call	0x5478	; 0x5478 <delayMicroseconds>
    1086:	40 e0       	ldi	r20, 0x00	; 0
    1088:	50 e0       	ldi	r21, 0x00	; 0
    108a:	60 e0       	ldi	r22, 0x00	; 0
    108c:	70 e0       	ldi	r23, 0x00	; 0
    108e:	e9 84       	ldd	r14, Y+9	; 0x09
    1090:	fa 84       	ldd	r15, Y+10	; 0x0a
    1092:	f2 ef       	ldi	r31, 0xF2	; 242
    1094:	ef 0e       	add	r14, r31
    1096:	f1 1c       	adc	r15, r1
    1098:	f7 01       	movw	r30, r14
    109a:	80 81       	ld	r24, Z
    109c:	91 81       	ldd	r25, Z+1	; 0x01
    109e:	0e 94 ff 03 	call	0x7fe	; 0x7fe <_ZN7AD5933s15getOneFrequencyEPiS0_>
    10a2:	f7 01       	movw	r30, r14
    10a4:	e0 80       	ld	r14, Z
    10a6:	f1 80       	ldd	r15, Z+1	; 0x01
    10a8:	f7 01       	movw	r30, r14
    10aa:	60 81       	ld	r22, Z
    10ac:	71 81       	ldd	r23, Z+1	; 0x01
    10ae:	e9 85       	ldd	r30, Y+9	; 0x09
    10b0:	fa 85       	ldd	r31, Y+10	; 0x0a
    10b2:	e5 5b       	subi	r30, 0xB5	; 181
    10b4:	ff 4f       	sbci	r31, 0xFF	; 255
    10b6:	80 81       	ld	r24, Z
    10b8:	91 81       	ldd	r25, Z+1	; 0x01
    10ba:	68 1b       	sub	r22, r24
    10bc:	79 0b       	sbc	r23, r25
    10be:	07 2e       	mov	r0, r23
    10c0:	00 0c       	add	r0, r0
    10c2:	88 0b       	sbc	r24, r24
    10c4:	99 0b       	sbc	r25, r25
    10c6:	0e 94 8c 20 	call	0x4118	; 0x4118 <__floatsisf>
    10ca:	4b 01       	movw	r8, r22
    10cc:	5c 01       	movw	r10, r24
    10ce:	f7 01       	movw	r30, r14
    10d0:	62 81       	ldd	r22, Z+2	; 0x02
    10d2:	73 81       	ldd	r23, Z+3	; 0x03
    10d4:	e9 85       	ldd	r30, Y+9	; 0x09
    10d6:	fa 85       	ldd	r31, Y+10	; 0x0a
    10d8:	e3 5b       	subi	r30, 0xB3	; 179
    10da:	ff 4f       	sbci	r31, 0xFF	; 255
    10dc:	80 81       	ld	r24, Z
    10de:	91 81       	ldd	r25, Z+1	; 0x01
    10e0:	68 1b       	sub	r22, r24
    10e2:	79 0b       	sbc	r23, r25
    10e4:	07 2e       	mov	r0, r23
    10e6:	00 0c       	add	r0, r0
    10e8:	88 0b       	sbc	r24, r24
    10ea:	99 0b       	sbc	r25, r25
    10ec:	0e 94 8c 20 	call	0x4118	; 0x4118 <__floatsisf>
    10f0:	6d 83       	std	Y+5, r22	; 0x05
    10f2:	7e 83       	std	Y+6, r23	; 0x06
    10f4:	8f 83       	std	Y+7, r24	; 0x07
    10f6:	98 87       	std	Y+8, r25	; 0x08
    10f8:	9b 01       	movw	r18, r22
    10fa:	ac 01       	movw	r20, r24
    10fc:	0e 94 3c 21 	call	0x4278	; 0x4278 <__mulsf3>
    1100:	2b 01       	movw	r4, r22
    1102:	3c 01       	movw	r6, r24
    1104:	a5 01       	movw	r20, r10
    1106:	94 01       	movw	r18, r8
    1108:	c5 01       	movw	r24, r10
    110a:	b4 01       	movw	r22, r8
    110c:	0e 94 3c 21 	call	0x4278	; 0x4278 <__mulsf3>
    1110:	9b 01       	movw	r18, r22
    1112:	ac 01       	movw	r20, r24
    1114:	c3 01       	movw	r24, r6
    1116:	b2 01       	movw	r22, r4
    1118:	0e 94 71 1f 	call	0x3ee2	; 0x3ee2 <__addsf3>
    111c:	0e 94 af 21 	call	0x435e	; 0x435e <sqrt>
    1120:	2b 01       	movw	r4, r22
    1122:	3c 01       	movw	r6, r24
    1124:	e9 85       	ldd	r30, Y+9	; 0x09
    1126:	fa 85       	ldd	r31, Y+10	; 0x0a
    1128:	e1 5a       	subi	r30, 0xA1	; 161
    112a:	ff 4f       	sbci	r31, 0xFF	; 255
    112c:	20 81       	ld	r18, Z
    112e:	31 81       	ldd	r19, Z+1	; 0x01
    1130:	42 81       	ldd	r20, Z+2	; 0x02
    1132:	53 81       	ldd	r21, Z+3	; 0x03
    1134:	0e 94 3c 21 	call	0x4278	; 0x4278 <__mulsf3>
    1138:	9b 01       	movw	r18, r22
    113a:	ac 01       	movw	r20, r24
    113c:	60 e0       	ldi	r22, 0x00	; 0
    113e:	70 e0       	ldi	r23, 0x00	; 0
    1140:	80 e8       	ldi	r24, 0x80	; 128
    1142:	9f e3       	ldi	r25, 0x3F	; 63
    1144:	0e 94 e2 1f 	call	0x3fc4	; 0x3fc4 <__divsf3>
    1148:	69 83       	std	Y+1, r22	; 0x01
    114a:	7a 83       	std	Y+2, r23	; 0x02
    114c:	8b 83       	std	Y+3, r24	; 0x03
    114e:	9c 83       	std	Y+4, r25	; 0x04
    1150:	90 58       	subi	r25, 0x80	; 128
    1152:	a3 01       	movw	r20, r6
    1154:	92 01       	movw	r18, r4
    1156:	0e 94 e2 1f 	call	0x3fc4	; 0x3fc4 <__divsf3>
    115a:	2b 01       	movw	r4, r22
    115c:	3c 01       	movw	r6, r24
    115e:	9b 01       	movw	r18, r22
    1160:	ac 01       	movw	r20, r24
    1162:	c5 01       	movw	r24, r10
    1164:	b4 01       	movw	r22, r8
    1166:	0e 94 3c 21 	call	0x4278	; 0x4278 <__mulsf3>
    116a:	6b 01       	movw	r12, r22
    116c:	7c 01       	movw	r14, r24
    116e:	e9 85       	ldd	r30, Y+9	; 0x09
    1170:	fa 85       	ldd	r31, Y+10	; 0x0a
    1172:	ed 5b       	subi	r30, 0xBD	; 189
    1174:	ff 4f       	sbci	r31, 0xFF	; 255
    1176:	60 83       	st	Z, r22
    1178:	71 83       	std	Z+1, r23	; 0x01
    117a:	82 83       	std	Z+2, r24	; 0x02
    117c:	93 83       	std	Z+3, r25	; 0x03
    117e:	a3 01       	movw	r20, r6
    1180:	92 01       	movw	r18, r4
    1182:	6d 81       	ldd	r22, Y+5	; 0x05
    1184:	7e 81       	ldd	r23, Y+6	; 0x06
    1186:	8f 81       	ldd	r24, Y+7	; 0x07
    1188:	98 85       	ldd	r25, Y+8	; 0x08
    118a:	0e 94 3c 21 	call	0x4278	; 0x4278 <__mulsf3>
    118e:	4b 01       	movw	r8, r22
    1190:	5c 01       	movw	r10, r24
    1192:	e9 85       	ldd	r30, Y+9	; 0x09
    1194:	fa 85       	ldd	r31, Y+10	; 0x0a
    1196:	e9 5b       	subi	r30, 0xB9	; 185
    1198:	ff 4f       	sbci	r31, 0xFF	; 255
    119a:	60 83       	st	Z, r22
    119c:	71 83       	std	Z+1, r23	; 0x01
    119e:	82 83       	std	Z+2, r24	; 0x02
    11a0:	93 83       	std	Z+3, r25	; 0x03
    11a2:	f2 e0       	ldi	r31, 0x02	; 2
    11a4:	3f 12       	cpse	r3, r31
    11a6:	1c c0       	rjmp	.+56     	; 0x11e0 <_ZN28ImpedanceMultiSensingCircuit16measureImpedanceEaa15directPrintMode+0x26c>
    11a8:	f8 01       	movw	r30, r16
    11aa:	80 81       	ld	r24, Z
    11ac:	91 81       	ldd	r25, Z+1	; 0x01
    11ae:	0e 94 eb 13 	call	0x27d6	; 0x27d6 <_ZN13MUX16_CIRCUIT19getGroundMuxChannelEv>
    11b2:	78 2e       	mov	r7, r24
    11b4:	e9 85       	ldd	r30, Y+9	; 0x09
    11b6:	fa 85       	ldd	r31, Y+10	; 0x0a
    11b8:	e2 50       	subi	r30, 0x02	; 2
    11ba:	ff 4f       	sbci	r31, 0xFF	; 255
    11bc:	01 90       	ld	r0, Z+
    11be:	f0 81       	ld	r31, Z
    11c0:	e0 2d       	mov	r30, r0
    11c2:	84 81       	ldd	r24, Z+4	; 0x04
    11c4:	81 11       	cpse	r24, r1
    11c6:	06 c0       	rjmp	.+12     	; 0x11d4 <_ZN28ImpedanceMultiSensingCircuit16measureImpedanceEaa15directPrintMode+0x260>
    11c8:	f8 01       	movw	r30, r16
    11ca:	80 81       	ld	r24, Z
    11cc:	91 81       	ldd	r25, Z+1	; 0x01
    11ce:	0e 94 e8 13 	call	0x27d0	; 0x27d0 <_ZN13MUX16_CIRCUIT19getSignalMuxChannelEv>
    11d2:	01 c0       	rjmp	.+2      	; 0x11d6 <_ZN28ImpedanceMultiSensingCircuit16measureImpedanceEaa15directPrintMode+0x262>
    11d4:	80 e1       	ldi	r24, 0x10	; 16
    11d6:	0f ef       	ldi	r16, 0xFF	; 255
    11d8:	27 2d       	mov	r18, r7
    11da:	48 2f       	mov	r20, r24
    11dc:	64 e0       	ldi	r22, 0x04	; 4
    11de:	28 c0       	rjmp	.+80     	; 0x1230 <_ZN28ImpedanceMultiSensingCircuit16measureImpedanceEaa15directPrintMode+0x2bc>
    11e0:	f1 e0       	ldi	r31, 0x01	; 1
    11e2:	3f 12       	cpse	r3, r31
    11e4:	29 c0       	rjmp	.+82     	; 0x1238 <_ZN28ImpedanceMultiSensingCircuit16measureImpedanceEaa15directPrintMode+0x2c4>
    11e6:	f8 01       	movw	r30, r16
    11e8:	80 81       	ld	r24, Z
    11ea:	91 81       	ldd	r25, Z+1	; 0x01
    11ec:	0e 94 eb 13 	call	0x27d6	; 0x27d6 <_ZN13MUX16_CIRCUIT19getGroundMuxChannelEv>
    11f0:	78 2e       	mov	r7, r24
    11f2:	e9 85       	ldd	r30, Y+9	; 0x09
    11f4:	fa 85       	ldd	r31, Y+10	; 0x0a
    11f6:	e2 50       	subi	r30, 0x02	; 2
    11f8:	ff 4f       	sbci	r31, 0xFF	; 255
    11fa:	01 90       	ld	r0, Z+
    11fc:	f0 81       	ld	r31, Z
    11fe:	e0 2d       	mov	r30, r0
    1200:	84 81       	ldd	r24, Z+4	; 0x04
    1202:	81 11       	cpse	r24, r1
    1204:	06 c0       	rjmp	.+12     	; 0x1212 <_ZN28ImpedanceMultiSensingCircuit16measureImpedanceEaa15directPrintMode+0x29e>
    1206:	f8 01       	movw	r30, r16
    1208:	80 81       	ld	r24, Z
    120a:	91 81       	ldd	r25, Z+1	; 0x01
    120c:	0e 94 e8 13 	call	0x27d0	; 0x27d0 <_ZN13MUX16_CIRCUIT19getSignalMuxChannelEv>
    1210:	01 c0       	rjmp	.+2      	; 0x1214 <_ZN28ImpedanceMultiSensingCircuit16measureImpedanceEaa15directPrintMode+0x2a0>
    1212:	80 e1       	ldi	r24, 0x10	; 16
    1214:	81 2c       	mov	r8, r1
    1216:	91 2c       	mov	r9, r1
    1218:	90 ec       	ldi	r25, 0xC0	; 192
    121a:	a9 2e       	mov	r10, r25
    121c:	9f e7       	ldi	r25, 0x7F	; 127
    121e:	b9 2e       	mov	r11, r25
    1220:	c9 80       	ldd	r12, Y+1	; 0x01
    1222:	da 80       	ldd	r13, Y+2	; 0x02
    1224:	eb 80       	ldd	r14, Y+3	; 0x03
    1226:	fc 80       	ldd	r15, Y+4	; 0x04
    1228:	0f ef       	ldi	r16, 0xFF	; 255
    122a:	27 2d       	mov	r18, r7
    122c:	48 2f       	mov	r20, r24
    122e:	63 e0       	ldi	r22, 0x03	; 3
    1230:	89 85       	ldd	r24, Y+9	; 0x09
    1232:	9a 85       	ldd	r25, Y+10	; 0x0a
    1234:	0e 94 54 07 	call	0xea8	; 0xea8 <_ZN28ImpedanceMultiSensingCircuit14sendBinaryDataEaaaaff>
    1238:	59 81       	ldd	r21, Y+1	; 0x01
    123a:	4a 81       	ldd	r20, Y+2	; 0x02
    123c:	3b 81       	ldd	r19, Y+3	; 0x03
    123e:	2c 81       	ldd	r18, Y+4	; 0x04
    1240:	65 2f       	mov	r22, r21
    1242:	74 2f       	mov	r23, r20
    1244:	83 2f       	mov	r24, r19
    1246:	92 2f       	mov	r25, r18
    1248:	2a 96       	adiw	r28, 0x0a	; 10
    124a:	0f b6       	in	r0, 0x3f	; 63
    124c:	f8 94       	cli
    124e:	de bf       	out	0x3e, r29	; 62
    1250:	0f be       	out	0x3f, r0	; 63
    1252:	cd bf       	out	0x3d, r28	; 61
    1254:	df 91       	pop	r29
    1256:	cf 91       	pop	r28
    1258:	1f 91       	pop	r17
    125a:	0f 91       	pop	r16
    125c:	ff 90       	pop	r15
    125e:	ef 90       	pop	r14
    1260:	df 90       	pop	r13
    1262:	cf 90       	pop	r12
    1264:	bf 90       	pop	r11
    1266:	af 90       	pop	r10
    1268:	9f 90       	pop	r9
    126a:	8f 90       	pop	r8
    126c:	7f 90       	pop	r7
    126e:	6f 90       	pop	r6
    1270:	5f 90       	pop	r5
    1272:	4f 90       	pop	r4
    1274:	3f 90       	pop	r3
    1276:	08 95       	ret

00001278 <_ZN28ImpedanceMultiSensingCircuit14determineGainZEv>:
    1278:	0f 93       	push	r16
    127a:	1f 93       	push	r17
    127c:	cf 93       	push	r28
    127e:	df 93       	push	r29
    1280:	ec 01       	movw	r28, r24
    1282:	8c 01       	movw	r16, r24
    1284:	01 5a       	subi	r16, 0xA1	; 161
    1286:	1f 4f       	sbci	r17, 0xFF	; 255
    1288:	80 e0       	ldi	r24, 0x00	; 0
    128a:	90 e0       	ldi	r25, 0x00	; 0
    128c:	a0 e8       	ldi	r26, 0x80	; 128
    128e:	bf e3       	ldi	r27, 0x3F	; 63
    1290:	f8 01       	movw	r30, r16
    1292:	80 83       	st	Z, r24
    1294:	91 83       	std	Z+1, r25	; 0x01
    1296:	a2 83       	std	Z+2, r26	; 0x02
    1298:	b3 83       	std	Z+3, r27	; 0x03
    129a:	ce 01       	movw	r24, r28
    129c:	0e 94 49 06 	call	0xc92	; 0xc92 <_ZN28ImpedanceMultiSensingCircuit12beginMeasureEv>
    12a0:	6a e0       	ldi	r22, 0x0A	; 10
    12a2:	70 e0       	ldi	r23, 0x00	; 0
    12a4:	80 e0       	ldi	r24, 0x00	; 0
    12a6:	90 e0       	ldi	r25, 0x00	; 0
    12a8:	0e 94 00 2a 	call	0x5400	; 0x5400 <delay>
    12ac:	20 e0       	ldi	r18, 0x00	; 0
    12ae:	40 e0       	ldi	r20, 0x00	; 0
    12b0:	60 e0       	ldi	r22, 0x00	; 0
    12b2:	ce 01       	movw	r24, r28
    12b4:	0e 94 ba 07 	call	0xf74	; 0xf74 <_ZN28ImpedanceMultiSensingCircuit16measureImpedanceEaa15directPrintMode>
    12b8:	20 e0       	ldi	r18, 0x00	; 0
    12ba:	30 e0       	ldi	r19, 0x00	; 0
    12bc:	4b ee       	ldi	r20, 0xEB	; 235
    12be:	53 e4       	ldi	r21, 0x43	; 67
    12c0:	0e 94 e2 1f 	call	0x3fc4	; 0x3fc4 <__divsf3>
    12c4:	f8 01       	movw	r30, r16
    12c6:	60 83       	st	Z, r22
    12c8:	71 83       	std	Z+1, r23	; 0x01
    12ca:	82 83       	std	Z+2, r24	; 0x02
    12cc:	93 83       	std	Z+3, r25	; 0x03
    12ce:	ce 01       	movw	r24, r28
    12d0:	df 91       	pop	r29
    12d2:	cf 91       	pop	r28
    12d4:	1f 91       	pop	r17
    12d6:	0f 91       	pop	r16
    12d8:	0c 94 5e 06 	jmp	0xcbc	; 0xcbc <_ZN28ImpedanceMultiSensingCircuit10endMeasureEv>

000012dc <_ZN28ImpedanceMultiSensingCircuit14measureVoltageEaaa15directPrintModeb>:

// Measure Voltage:
float ImpedanceMultiSensingCircuit::measureVoltage(int8_t measuringEl, int8_t stimSig, int8_t stimGnd, directPrintMode measureVoltage_directPrint_MODE, bool correctLeakage){
    12dc:	2f 92       	push	r2
    12de:	3f 92       	push	r3
    12e0:	4f 92       	push	r4
    12e2:	5f 92       	push	r5
    12e4:	6f 92       	push	r6
    12e6:	7f 92       	push	r7
    12e8:	8f 92       	push	r8
    12ea:	9f 92       	push	r9
    12ec:	af 92       	push	r10
    12ee:	bf 92       	push	r11
    12f0:	cf 92       	push	r12
    12f2:	df 92       	push	r13
    12f4:	ef 92       	push	r14
    12f6:	ff 92       	push	r15
    12f8:	0f 93       	push	r16
    12fa:	1f 93       	push	r17
    12fc:	cf 93       	push	r28
    12fe:	df 93       	push	r29
    1300:	cd b7       	in	r28, 0x3d	; 61
    1302:	de b7       	in	r29, 0x3e	; 62
    1304:	27 97       	sbiw	r28, 0x07	; 7
    1306:	0f b6       	in	r0, 0x3f	; 63
    1308:	f8 94       	cli
    130a:	de bf       	out	0x3e, r29	; 62
    130c:	0f be       	out	0x3f, r0	; 63
    130e:	cd bf       	out	0x3d, r28	; 61
    1310:	9f 83       	std	Y+7, r25	; 0x07
    1312:	8e 83       	std	Y+6, r24	; 0x06
    1314:	36 2e       	mov	r3, r22
    1316:	f4 2e       	mov	r15, r20
    1318:	c2 2e       	mov	r12, r18
    131a:	0d 83       	std	Y+5, r16	; 0x05
    131c:	2e 2c       	mov	r2, r14
	// Correct Leakage:
	// !!EXPERIMENTAL!!
	float leakageCurrentCompensationFactorA;
	if (correctLeakage){
    131e:	ee 20       	and	r14, r14
    1320:	b9 f0       	breq	.+46     	; 0x1350 <_ZN28ImpedanceMultiSensingCircuit14measureVoltageEaaa15directPrintModeb+0x74>
		// leakageCurrentCompensationFactorA = maxRefV@SignalPin / LeakedVoltage_withoutGNDpin:
		// Faster Variant with only one additional Voltage measurement:
			//leakageCurrentCompensationFactorA = (maxMeasuredDFT * gain_U) / measureVoltage(measuringEl, stimSig, DISABLE_MUX, DirectPRINT_NONE, false);
		leakageCurrentCompensationFactorA = measureVoltage(measuringEl, measuringEl, DISABLE_MUX, DirectPRINT_NONE, false) / measureVoltage(measuringEl, stimSig, DISABLE_MUX, DirectPRINT_NONE, false);
    1322:	e1 2c       	mov	r14, r1
    1324:	00 e0       	ldi	r16, 0x00	; 0
    1326:	2f ef       	ldi	r18, 0xFF	; 255
    1328:	46 2f       	mov	r20, r22
    132a:	0e 94 6e 09 	call	0x12dc	; 0x12dc <_ZN28ImpedanceMultiSensingCircuit14measureVoltageEaaa15directPrintModeb>
    132e:	4b 01       	movw	r8, r22
    1330:	5c 01       	movw	r10, r24
    1332:	2f ef       	ldi	r18, 0xFF	; 255
    1334:	4f 2d       	mov	r20, r15
    1336:	63 2d       	mov	r22, r3
    1338:	8e 81       	ldd	r24, Y+6	; 0x06
    133a:	9f 81       	ldd	r25, Y+7	; 0x07
    133c:	0e 94 6e 09 	call	0x12dc	; 0x12dc <_ZN28ImpedanceMultiSensingCircuit14measureVoltageEaaa15directPrintModeb>
    1340:	9b 01       	movw	r18, r22
    1342:	ac 01       	movw	r20, r24
    1344:	c5 01       	movw	r24, r10
    1346:	b4 01       	movw	r22, r8
    1348:	0e 94 e2 1f 	call	0x3fc4	; 0x3fc4 <__divsf3>
    134c:	4b 01       	movw	r8, r22
    134e:	5c 01       	movw	r10, r24
    1350:	0e 81       	ldd	r16, Y+6	; 0x06
    1352:	1f 81       	ldd	r17, Y+7	; 0x07
    1354:	00 51       	subi	r16, 0x10	; 16
    1356:	1f 4f       	sbci	r17, 0xFF	; 255
	uint8_t mode4bit;
	uint8_t led4bit = HIGH<<PIN_LED_BLUE;	// Activate blue LED;
	int8_t stimGnd_ = stimGnd;
	// Check input:
	//if(stimSig == stimGnd  ||  ((stimSig < 0 || stimSig >= NELECTRODES) && stimSig != NEEDLE)  ||  ((stimGnd < 0 || stimGnd >= NELECTRODES) && stimGnd != NEEDLE) ){
	if(((stimSig < 0 || stimSig >= NELECTRODES) && stimSig != NEEDLE && stimSig != DISABLE_MUX) || ((stimGnd < 0 || stimGnd >= NELECTRODES) && stimGnd != NEEDLE && stimGnd != DISABLE_MUX) || ((measuringEl < 0 || measuringEl >= NELECTRODES) && measuringEl != NEEDLE && measuringEl != DISABLE_MUX)){
    1358:	81 e0       	ldi	r24, 0x01	; 1
    135a:	8f 0d       	add	r24, r15
    135c:	82 31       	cpi	r24, 0x12	; 18
    135e:	40 f4       	brcc	.+16     	; 0x1370 <_ZN28ImpedanceMultiSensingCircuit14measureVoltageEaaa15directPrintModeb+0x94>
    1360:	81 e0       	ldi	r24, 0x01	; 1
    1362:	8c 0d       	add	r24, r12
    1364:	82 31       	cpi	r24, 0x12	; 18
    1366:	20 f4       	brcc	.+8      	; 0x1370 <_ZN28ImpedanceMultiSensingCircuit14measureVoltageEaaa15directPrintModeb+0x94>
    1368:	81 e0       	ldi	r24, 0x01	; 1
    136a:	83 0d       	add	r24, r3
    136c:	82 31       	cpi	r24, 0x12	; 18
    136e:	40 f1       	brcs	.+80     	; 0x13c0 <_ZN28ImpedanceMultiSensingCircuit14measureVoltageEaaa15directPrintModeb+0xe4>
		// DISABLE ALL in case of invalid input arguments:
		writeModesAndLeds(HIGH<<PIN_LED_RED);
    1370:	60 e1       	ldi	r22, 0x10	; 16
    1372:	8e 81       	ldd	r24, Y+6	; 0x06
    1374:	9f 81       	ldd	r25, Y+7	; 0x07
    1376:	0e 94 0c 05 	call	0xa18	; 0xa18 <_ZN28ImpedanceMultiSensingCircuit17writeModesAndLedsEh>
		// Set MUX:
		trinityMUX->prepareSignalMux(DISABLE_MUX);
    137a:	6f ef       	ldi	r22, 0xFF	; 255
    137c:	7f ef       	ldi	r23, 0xFF	; 255
    137e:	f8 01       	movw	r30, r16
    1380:	80 81       	ld	r24, Z
    1382:	91 81       	ldd	r25, Z+1	; 0x01
    1384:	0e 94 b8 13 	call	0x2770	; 0x2770 <_ZN13MUX16_CIRCUIT16prepareSignalMuxEi>
		trinityMUX->prepareMeasureMux(DISABLE_MUX);
    1388:	6f ef       	ldi	r22, 0xFF	; 255
    138a:	7f ef       	ldi	r23, 0xFF	; 255
    138c:	f8 01       	movw	r30, r16
    138e:	80 81       	ld	r24, Z
    1390:	91 81       	ldd	r25, Z+1	; 0x01
    1392:	0e 94 c8 13 	call	0x2790	; 0x2790 <_ZN13MUX16_CIRCUIT17prepareMeasureMuxEi>
		trinityMUX->prepareGroundMux(DISABLE_MUX);
    1396:	6f ef       	ldi	r22, 0xFF	; 255
    1398:	7f ef       	ldi	r23, 0xFF	; 255
    139a:	f8 01       	movw	r30, r16
    139c:	80 81       	ld	r24, Z
    139e:	91 81       	ldd	r25, Z+1	; 0x01
    13a0:	0e 94 d8 13 	call	0x27b0	; 0x27b0 <_ZN13MUX16_CIRCUIT16prepareGroundMuxEi>
		trinityMUX->writePreparedChannelsToMux();
    13a4:	f8 01       	movw	r30, r16
    13a6:	80 81       	ld	r24, Z
    13a8:	91 81       	ldd	r25, Z+1	; 0x01
    13aa:	0e 94 7c 12 	call	0x24f8	; 0x24f8 <_ZN13MUX16_CIRCUIT26writePreparedChannelsToMuxEv>
		// Delay to wait twice the time while false electrodes may be active (caused by finite I2C writing speed combined with sequential writing of two separate registers)
		delayMicroseconds(2*I2C_8BIT_DELAY_US);
    13ae:	88 e2       	ldi	r24, 0x28	; 40
    13b0:	90 e0       	ldi	r25, 0x00	; 0
    13b2:	0e 94 3c 2a 	call	0x5478	; 0x5478 <delayMicroseconds>
		return -1;
    13b6:	71 2c       	mov	r7, r1
    13b8:	41 2c       	mov	r4, r1
    13ba:	30 e8       	ldi	r19, 0x80	; 128
    13bc:	2f eb       	ldi	r18, 0xBF	; 191
    13be:	5d c1       	rjmp	.+698    	; 0x167a <_ZN28ImpedanceMultiSensingCircuit14measureVoltageEaaa15directPrintModeb+0x39e>
	}
	// Start Measurement:
	beginMeasure();
    13c0:	8e 81       	ldd	r24, Y+6	; 0x06
    13c2:	9f 81       	ldd	r25, Y+7	; 0x07
    13c4:	0e 94 49 06 	call	0xc92	; 0xc92 <_ZN28ImpedanceMultiSensingCircuit12beginMeasureEv>
	if(stimSig == NEEDLE || stimGnd == NEEDLE){
    13c8:	f0 e1       	ldi	r31, 0x10	; 16
    13ca:	ff 16       	cp	r15, r31
    13cc:	19 f0       	breq	.+6      	; 0x13d4 <_ZN28ImpedanceMultiSensingCircuit14measureVoltageEaaa15directPrintModeb+0xf8>
    13ce:	cf 12       	cpse	r12, r31
    13d0:	2d c0       	rjmp	.+90     	; 0x142c <_ZN28ImpedanceMultiSensingCircuit14measureVoltageEaaa15directPrintModeb+0x150>
    13d2:	cf 2c       	mov	r12, r15
    13d4:	ec 2c       	mov	r14, r12
    13d6:	cc 0c       	add	r12, r12
    13d8:	ff 08       	sbc	r15, r15
		stimGnd_ = (stimSig == NEEDLE ? stimGnd : stimSig);
		if(measuringEl == NEEDLE){ // this case is not relevant for usual measuring
    13da:	80 e1       	ldi	r24, 0x10	; 16
    13dc:	38 12       	cpse	r3, r24
    13de:	0f c0       	rjmp	.+30     	; 0x13fe <_ZN28ImpedanceMultiSensingCircuit14measureVoltageEaaa15directPrintModeb+0x122>
			writeModesAndLeds(HIGH<<PIN_LED_BLUE | HIGH<<PIN_MODE_NEEDLE_OUT | HIGH<<PIN_MODE_NEEDLE_IN);
    13e0:	66 e8       	ldi	r22, 0x86	; 134
    13e2:	8e 81       	ldd	r24, Y+6	; 0x06
    13e4:	9f 81       	ldd	r25, Y+7	; 0x07
    13e6:	0e 94 0c 05 	call	0xa18	; 0xa18 <_ZN28ImpedanceMultiSensingCircuit17writeModesAndLedsEh>
			// Set MUX:
			trinityMUX->prepareSignalMux(DISABLE_MUX);
    13ea:	6f ef       	ldi	r22, 0xFF	; 255
    13ec:	7f ef       	ldi	r23, 0xFF	; 255
    13ee:	f8 01       	movw	r30, r16
    13f0:	80 81       	ld	r24, Z
    13f2:	91 81       	ldd	r25, Z+1	; 0x01
    13f4:	0e 94 b8 13 	call	0x2770	; 0x2770 <_ZN13MUX16_CIRCUIT16prepareSignalMuxEi>
			trinityMUX->prepareMeasureMux(DISABLE_MUX);
    13f8:	6f ef       	ldi	r22, 0xFF	; 255
    13fa:	7f ef       	ldi	r23, 0xFF	; 255
    13fc:	10 c0       	rjmp	.+32     	; 0x141e <_ZN28ImpedanceMultiSensingCircuit14measureVoltageEaaa15directPrintModeb+0x142>
			trinityMUX->prepareGroundMux(stimGnd_);
		}
		else{
			writeModesAndLeds(HIGH<<PIN_LED_BLUE | HIGH<<PIN_MODE_NEEDLE_OUT | HIGH<<PIN_MODE_V_MEAS_IN);
    13fe:	6a e8       	ldi	r22, 0x8A	; 138
    1400:	8e 81       	ldd	r24, Y+6	; 0x06
    1402:	9f 81       	ldd	r25, Y+7	; 0x07
    1404:	0e 94 0c 05 	call	0xa18	; 0xa18 <_ZN28ImpedanceMultiSensingCircuit17writeModesAndLedsEh>
			// Set MUX:
			trinityMUX->prepareSignalMux(DISABLE_MUX);
    1408:	6f ef       	ldi	r22, 0xFF	; 255
    140a:	7f ef       	ldi	r23, 0xFF	; 255
    140c:	f8 01       	movw	r30, r16
    140e:	80 81       	ld	r24, Z
    1410:	91 81       	ldd	r25, Z+1	; 0x01
    1412:	0e 94 b8 13 	call	0x2770	; 0x2770 <_ZN13MUX16_CIRCUIT16prepareSignalMuxEi>
			trinityMUX->prepareMeasureMux(measuringEl);
    1416:	63 2d       	mov	r22, r3
    1418:	03 2c       	mov	r0, r3
    141a:	00 0c       	add	r0, r0
    141c:	77 0b       	sbc	r23, r23
    141e:	f8 01       	movw	r30, r16
    1420:	80 81       	ld	r24, Z
    1422:	91 81       	ldd	r25, Z+1	; 0x01
    1424:	0e 94 c8 13 	call	0x2790	; 0x2790 <_ZN13MUX16_CIRCUIT17prepareMeasureMuxEi>
			trinityMUX->prepareGroundMux(stimGnd_);
    1428:	b7 01       	movw	r22, r14
    142a:	2c c0       	rjmp	.+88     	; 0x1484 <_ZN28ImpedanceMultiSensingCircuit14measureVoltageEaaa15directPrintModeb+0x1a8>
    142c:	0c 2c       	mov	r0, r12
    142e:	00 0c       	add	r0, r0
    1430:	dd 08       	sbc	r13, r13
    1432:	ef 2c       	mov	r14, r15
    1434:	ff 0c       	add	r15, r15
    1436:	ff 08       	sbc	r15, r15
		}
	}
	else{
		if(measuringEl == NEEDLE){ // this case is not relevant for usual measuring
    1438:	f0 e1       	ldi	r31, 0x10	; 16
    143a:	3f 12       	cpse	r3, r31
    143c:	0e c0       	rjmp	.+28     	; 0x145a <_ZN28ImpedanceMultiSensingCircuit14measureVoltageEaaa15directPrintModeb+0x17e>
			writeModesAndLeds(HIGH<<PIN_LED_BLUE | HIGH<<PIN_MODE_NEEDLE_IN);
    143e:	64 e8       	ldi	r22, 0x84	; 132
    1440:	8e 81       	ldd	r24, Y+6	; 0x06
    1442:	9f 81       	ldd	r25, Y+7	; 0x07
    1444:	0e 94 0c 05 	call	0xa18	; 0xa18 <_ZN28ImpedanceMultiSensingCircuit17writeModesAndLedsEh>
			// Set MUX:
			trinityMUX->prepareSignalMux(stimSig);
    1448:	b7 01       	movw	r22, r14
    144a:	f8 01       	movw	r30, r16
    144c:	80 81       	ld	r24, Z
    144e:	91 81       	ldd	r25, Z+1	; 0x01
    1450:	0e 94 b8 13 	call	0x2770	; 0x2770 <_ZN13MUX16_CIRCUIT16prepareSignalMuxEi>
			trinityMUX->prepareMeasureMux(DISABLE_MUX);
    1454:	6f ef       	ldi	r22, 0xFF	; 255
    1456:	7f ef       	ldi	r23, 0xFF	; 255
    1458:	0f c0       	rjmp	.+30     	; 0x1478 <_ZN28ImpedanceMultiSensingCircuit14measureVoltageEaaa15directPrintModeb+0x19c>
			trinityMUX->prepareGroundMux(stimGnd);
		}
		else{
			writeModesAndLeds(HIGH<<PIN_LED_BLUE | HIGH<<PIN_MODE_V_MEAS_IN);
    145a:	68 e8       	ldi	r22, 0x88	; 136
    145c:	8e 81       	ldd	r24, Y+6	; 0x06
    145e:	9f 81       	ldd	r25, Y+7	; 0x07
    1460:	0e 94 0c 05 	call	0xa18	; 0xa18 <_ZN28ImpedanceMultiSensingCircuit17writeModesAndLedsEh>
			// Set MUX:
			trinityMUX->prepareSignalMux(stimSig);
    1464:	b7 01       	movw	r22, r14
    1466:	f8 01       	movw	r30, r16
    1468:	80 81       	ld	r24, Z
    146a:	91 81       	ldd	r25, Z+1	; 0x01
    146c:	0e 94 b8 13 	call	0x2770	; 0x2770 <_ZN13MUX16_CIRCUIT16prepareSignalMuxEi>
			trinityMUX->prepareMeasureMux(measuringEl);
    1470:	63 2d       	mov	r22, r3
    1472:	03 2c       	mov	r0, r3
    1474:	00 0c       	add	r0, r0
    1476:	77 0b       	sbc	r23, r23
    1478:	f8 01       	movw	r30, r16
    147a:	80 81       	ld	r24, Z
    147c:	91 81       	ldd	r25, Z+1	; 0x01
    147e:	0e 94 c8 13 	call	0x2790	; 0x2790 <_ZN13MUX16_CIRCUIT17prepareMeasureMuxEi>
			trinityMUX->prepareGroundMux(stimGnd);
    1482:	b6 01       	movw	r22, r12
    1484:	f8 01       	movw	r30, r16
    1486:	80 81       	ld	r24, Z
    1488:	91 81       	ldd	r25, Z+1	; 0x01
    148a:	0e 94 d8 13 	call	0x27b0	; 0x27b0 <_ZN13MUX16_CIRCUIT16prepareGroundMuxEi>
		}
}
	trinityMUX->writePreparedChannelsToMux();
    148e:	f8 01       	movw	r30, r16
    1490:	80 81       	ld	r24, Z
    1492:	91 81       	ldd	r25, Z+1	; 0x01
    1494:	0e 94 7c 12 	call	0x24f8	; 0x24f8 <_ZN13MUX16_CIRCUIT26writePreparedChannelsToMuxEv>
	// Delay to wait twice the time while false electrodes may be active (caused by finite I2C writing speed combined with sequential writing of two separate registers)
	delayMicroseconds(2*I2C_8BIT_DELAY_US);
    1498:	88 e2       	ldi	r24, 0x28	; 40
    149a:	90 e0       	ldi	r25, 0x00	; 0
    149c:	0e 94 3c 2a 	call	0x5478	; 0x5478 <delayMicroseconds>
	// Measure:
	ad5933ciruit->getOneFrequency(nullptr, nullptr);
    14a0:	40 e0       	ldi	r20, 0x00	; 0
    14a2:	50 e0       	ldi	r21, 0x00	; 0
    14a4:	60 e0       	ldi	r22, 0x00	; 0
    14a6:	70 e0       	ldi	r23, 0x00	; 0
    14a8:	6e 80       	ldd	r6, Y+6	; 0x06
    14aa:	7f 80       	ldd	r7, Y+7	; 0x07
    14ac:	f2 ef       	ldi	r31, 0xF2	; 242
    14ae:	6f 0e       	add	r6, r31
    14b0:	71 1c       	adc	r7, r1
    14b2:	f3 01       	movw	r30, r6
    14b4:	80 81       	ld	r24, Z
    14b6:	91 81       	ldd	r25, Z+1	; 0x01
    14b8:	0e 94 ff 03 	call	0x7fe	; 0x7fe <_ZN7AD5933s15getOneFrequencyEPiS0_>
	result_Real = gain_U*(ad5933ciruit->tempRealData - compensation_V_Re);
    14bc:	ee 81       	ldd	r30, Y+6	; 0x06
    14be:	ff 81       	ldd	r31, Y+7	; 0x07
    14c0:	e5 5a       	subi	r30, 0xA5	; 165
    14c2:	ff 4f       	sbci	r31, 0xFF	; 255
    14c4:	c0 80       	ld	r12, Z
    14c6:	d1 80       	ldd	r13, Z+1	; 0x01
    14c8:	e2 80       	ldd	r14, Z+2	; 0x02
    14ca:	f3 80       	ldd	r15, Z+3	; 0x03
    14cc:	f3 01       	movw	r30, r6
    14ce:	01 90       	ld	r0, Z+
    14d0:	f0 81       	ld	r31, Z
    14d2:	e0 2d       	mov	r30, r0
    14d4:	fc 83       	std	Y+4, r31	; 0x04
    14d6:	eb 83       	std	Y+3, r30	; 0x03
    14d8:	60 81       	ld	r22, Z
    14da:	71 81       	ldd	r23, Z+1	; 0x01
    14dc:	ee 81       	ldd	r30, Y+6	; 0x06
    14de:	ff 81       	ldd	r31, Y+7	; 0x07
    14e0:	e1 5b       	subi	r30, 0xB1	; 177
    14e2:	ff 4f       	sbci	r31, 0xFF	; 255
    14e4:	80 81       	ld	r24, Z
    14e6:	91 81       	ldd	r25, Z+1	; 0x01
    14e8:	68 1b       	sub	r22, r24
    14ea:	79 0b       	sbc	r23, r25
    14ec:	07 2e       	mov	r0, r23
    14ee:	00 0c       	add	r0, r0
    14f0:	88 0b       	sbc	r24, r24
    14f2:	99 0b       	sbc	r25, r25
    14f4:	0e 94 8c 20 	call	0x4118	; 0x4118 <__floatsisf>
    14f8:	a7 01       	movw	r20, r14
    14fa:	96 01       	movw	r18, r12
    14fc:	0e 94 3c 21 	call	0x4278	; 0x4278 <__mulsf3>
    1500:	2b 01       	movw	r4, r22
    1502:	3c 01       	movw	r6, r24
    1504:	8e 81       	ldd	r24, Y+6	; 0x06
    1506:	9f 81       	ldd	r25, Y+7	; 0x07
    1508:	8d 5b       	subi	r24, 0xBD	; 189
    150a:	9f 4f       	sbci	r25, 0xFF	; 255
    150c:	9a 83       	std	Y+2, r25	; 0x02
    150e:	89 83       	std	Y+1, r24	; 0x01
    1510:	fc 01       	movw	r30, r24
    1512:	40 82       	st	Z, r4
    1514:	51 82       	std	Z+1, r5	; 0x01
    1516:	62 82       	std	Z+2, r6	; 0x02
    1518:	73 82       	std	Z+3, r7	; 0x03
	result_Imag = gain_U*(ad5933ciruit->tempImagData - compensation_V_Im);
    151a:	eb 81       	ldd	r30, Y+3	; 0x03
    151c:	fc 81       	ldd	r31, Y+4	; 0x04
    151e:	62 81       	ldd	r22, Z+2	; 0x02
    1520:	73 81       	ldd	r23, Z+3	; 0x03
    1522:	ee 81       	ldd	r30, Y+6	; 0x06
    1524:	ff 81       	ldd	r31, Y+7	; 0x07
    1526:	ef 5a       	subi	r30, 0xAF	; 175
    1528:	ff 4f       	sbci	r31, 0xFF	; 255
    152a:	80 81       	ld	r24, Z
    152c:	91 81       	ldd	r25, Z+1	; 0x01
    152e:	68 1b       	sub	r22, r24
    1530:	79 0b       	sbc	r23, r25
    1532:	07 2e       	mov	r0, r23
    1534:	00 0c       	add	r0, r0
    1536:	88 0b       	sbc	r24, r24
    1538:	99 0b       	sbc	r25, r25
    153a:	0e 94 8c 20 	call	0x4118	; 0x4118 <__floatsisf>
    153e:	a7 01       	movw	r20, r14
    1540:	96 01       	movw	r18, r12
    1542:	0e 94 3c 21 	call	0x4278	; 0x4278 <__mulsf3>
    1546:	6b 01       	movw	r12, r22
    1548:	7c 01       	movw	r14, r24
    154a:	8e 81       	ldd	r24, Y+6	; 0x06
    154c:	9f 81       	ldd	r25, Y+7	; 0x07
    154e:	89 5b       	subi	r24, 0xB9	; 185
    1550:	9f 4f       	sbci	r25, 0xFF	; 255
    1552:	9c 83       	std	Y+4, r25	; 0x04
    1554:	8b 83       	std	Y+3, r24	; 0x03
    1556:	fc 01       	movw	r30, r24
    1558:	c0 82       	st	Z, r12
    155a:	d1 82       	std	Z+1, r13	; 0x01
    155c:	e2 82       	std	Z+2, r14	; 0x02
    155e:	f3 82       	std	Z+3, r15	; 0x03
		Serial.println(result_Real);
		Serial.print("result_Imag = ");
		Serial.println(result_Imag);
	#endif
	// Correct Leakage:
	if (correctLeakage){
    1560:	22 20       	and	r2, r2
    1562:	c1 f0       	breq	.+48     	; 0x1594 <_ZN28ImpedanceMultiSensingCircuit14measureVoltageEaaa15directPrintModeb+0x2b8>
		result_Real *= leakageCurrentCompensationFactorA;
    1564:	a3 01       	movw	r20, r6
    1566:	92 01       	movw	r18, r4
    1568:	c5 01       	movw	r24, r10
    156a:	b4 01       	movw	r22, r8
    156c:	0e 94 3c 21 	call	0x4278	; 0x4278 <__mulsf3>
    1570:	e9 81       	ldd	r30, Y+1	; 0x01
    1572:	fa 81       	ldd	r31, Y+2	; 0x02
    1574:	60 83       	st	Z, r22
    1576:	71 83       	std	Z+1, r23	; 0x01
    1578:	82 83       	std	Z+2, r24	; 0x02
    157a:	93 83       	std	Z+3, r25	; 0x03
		result_Imag *= leakageCurrentCompensationFactorA;
    157c:	a7 01       	movw	r20, r14
    157e:	96 01       	movw	r18, r12
    1580:	c5 01       	movw	r24, r10
    1582:	b4 01       	movw	r22, r8
    1584:	0e 94 3c 21 	call	0x4278	; 0x4278 <__mulsf3>
    1588:	eb 81       	ldd	r30, Y+3	; 0x03
    158a:	fc 81       	ldd	r31, Y+4	; 0x04
    158c:	60 83       	st	Z, r22
    158e:	71 83       	std	Z+1, r23	; 0x01
    1590:	82 83       	std	Z+2, r24	; 0x02
    1592:	93 83       	std	Z+3, r25	; 0x03
	}
	// Magnitude calculation:
	float magnitude = sqrt(pow(result_Real, 2) + pow(result_Imag, 2));
    1594:	e9 81       	ldd	r30, Y+1	; 0x01
    1596:	fa 81       	ldd	r31, Y+2	; 0x02
    1598:	c0 80       	ld	r12, Z
    159a:	d1 80       	ldd	r13, Z+1	; 0x01
    159c:	e2 80       	ldd	r14, Z+2	; 0x02
    159e:	f3 80       	ldd	r15, Z+3	; 0x03
    15a0:	eb 81       	ldd	r30, Y+3	; 0x03
    15a2:	fc 81       	ldd	r31, Y+4	; 0x04
    15a4:	80 80       	ld	r8, Z
    15a6:	91 80       	ldd	r9, Z+1	; 0x01
    15a8:	a2 80       	ldd	r10, Z+2	; 0x02
    15aa:	b3 80       	ldd	r11, Z+3	; 0x03
    15ac:	a5 01       	movw	r20, r10
    15ae:	94 01       	movw	r18, r8
    15b0:	c5 01       	movw	r24, r10
    15b2:	b4 01       	movw	r22, r8
    15b4:	0e 94 3c 21 	call	0x4278	; 0x4278 <__mulsf3>
    15b8:	2b 01       	movw	r4, r22
    15ba:	3c 01       	movw	r6, r24
    15bc:	a7 01       	movw	r20, r14
    15be:	96 01       	movw	r18, r12
    15c0:	c7 01       	movw	r24, r14
    15c2:	b6 01       	movw	r22, r12
    15c4:	0e 94 3c 21 	call	0x4278	; 0x4278 <__mulsf3>
    15c8:	9b 01       	movw	r18, r22
    15ca:	ac 01       	movw	r20, r24
    15cc:	c3 01       	movw	r24, r6
    15ce:	b2 01       	movw	r22, r4
    15d0:	0e 94 71 1f 	call	0x3ee2	; 0x3ee2 <__addsf3>
    15d4:	0e 94 af 21 	call	0x435e	; 0x435e <sqrt>
    15d8:	76 2e       	mov	r7, r22
    15da:	47 2e       	mov	r4, r23
    15dc:	68 2e       	mov	r6, r24
    15de:	59 2e       	mov	r5, r25
	if(measureVoltage_directPrint_MODE == DirectPRINT_COMPLEX){
    15e0:	fd 81       	ldd	r31, Y+5	; 0x05
    15e2:	f2 30       	cpi	r31, 0x02	; 2
    15e4:	e1 f4       	brne	.+56     	; 0x161e <_ZN28ImpedanceMultiSensingCircuit14measureVoltageEaaa15directPrintModeb+0x342>
		sendBinaryData(MODE_Complex_Voltage, analogSwitch_SIG_OUT_NEEDLE->getState() ? NEEDLE : trinityMUX->getSignalMuxChannel(), trinityMUX->getGroundMuxChannel(), measuringEl, result_Real, result_Imag);
    15e6:	f8 01       	movw	r30, r16
    15e8:	80 81       	ld	r24, Z
    15ea:	91 81       	ldd	r25, Z+1	; 0x01
    15ec:	0e 94 eb 13 	call	0x27d6	; 0x27d6 <_ZN13MUX16_CIRCUIT19getGroundMuxChannelEv>
    15f0:	28 2e       	mov	r2, r24
	ioExpander->digitalWrite(pin, LOW != loglow);
	state = LOW;
}

bool imsc_LED::getState(){
	return state;
    15f2:	ee 81       	ldd	r30, Y+6	; 0x06
    15f4:	ff 81       	ldd	r31, Y+7	; 0x07
    15f6:	e2 50       	subi	r30, 0x02	; 2
    15f8:	ff 4f       	sbci	r31, 0xFF	; 255
    15fa:	01 90       	ld	r0, Z+
    15fc:	f0 81       	ld	r31, Z
    15fe:	e0 2d       	mov	r30, r0
		result_Imag *= leakageCurrentCompensationFactorA;
	}
	// Magnitude calculation:
	float magnitude = sqrt(pow(result_Real, 2) + pow(result_Imag, 2));
	if(measureVoltage_directPrint_MODE == DirectPRINT_COMPLEX){
		sendBinaryData(MODE_Complex_Voltage, analogSwitch_SIG_OUT_NEEDLE->getState() ? NEEDLE : trinityMUX->getSignalMuxChannel(), trinityMUX->getGroundMuxChannel(), measuringEl, result_Real, result_Imag);
    1600:	84 81       	ldd	r24, Z+4	; 0x04
    1602:	81 11       	cpse	r24, r1
    1604:	06 c0       	rjmp	.+12     	; 0x1612 <_ZN28ImpedanceMultiSensingCircuit14measureVoltageEaaa15directPrintModeb+0x336>
    1606:	f8 01       	movw	r30, r16
    1608:	80 81       	ld	r24, Z
    160a:	91 81       	ldd	r25, Z+1	; 0x01
    160c:	0e 94 e8 13 	call	0x27d0	; 0x27d0 <_ZN13MUX16_CIRCUIT19getSignalMuxChannelEv>
    1610:	01 c0       	rjmp	.+2      	; 0x1614 <_ZN28ImpedanceMultiSensingCircuit14measureVoltageEaaa15directPrintModeb+0x338>
    1612:	80 e1       	ldi	r24, 0x10	; 16
    1614:	03 2d       	mov	r16, r3
    1616:	22 2d       	mov	r18, r2
    1618:	48 2f       	mov	r20, r24
    161a:	62 e0       	ldi	r22, 0x02	; 2
    161c:	28 c0       	rjmp	.+80     	; 0x166e <_ZN28ImpedanceMultiSensingCircuit14measureVoltageEaaa15directPrintModeb+0x392>
	}else if (measureVoltage_directPrint_MODE == DirectPRINT_MAGNITUDE){
    161e:	fd 81       	ldd	r31, Y+5	; 0x05
    1620:	f1 30       	cpi	r31, 0x01	; 1
    1622:	49 f5       	brne	.+82     	; 0x1676 <_ZN28ImpedanceMultiSensingCircuit14measureVoltageEaaa15directPrintModeb+0x39a>
		sendBinaryData(MODE_Magnitude_of_Voltage, analogSwitch_SIG_OUT_NEEDLE->getState() ? NEEDLE : trinityMUX->getSignalMuxChannel(), trinityMUX->getGroundMuxChannel(), measuringEl, magnitude);
    1624:	f8 01       	movw	r30, r16
    1626:	80 81       	ld	r24, Z
    1628:	91 81       	ldd	r25, Z+1	; 0x01
    162a:	0e 94 eb 13 	call	0x27d6	; 0x27d6 <_ZN13MUX16_CIRCUIT19getGroundMuxChannelEv>
    162e:	28 2e       	mov	r2, r24
	ioExpander->digitalWrite(pin, LOW != loglow);
	state = LOW;
}

bool imsc_LED::getState(){
	return state;
    1630:	ee 81       	ldd	r30, Y+6	; 0x06
    1632:	ff 81       	ldd	r31, Y+7	; 0x07
    1634:	e2 50       	subi	r30, 0x02	; 2
    1636:	ff 4f       	sbci	r31, 0xFF	; 255
    1638:	01 90       	ld	r0, Z+
    163a:	f0 81       	ld	r31, Z
    163c:	e0 2d       	mov	r30, r0
	// Magnitude calculation:
	float magnitude = sqrt(pow(result_Real, 2) + pow(result_Imag, 2));
	if(measureVoltage_directPrint_MODE == DirectPRINT_COMPLEX){
		sendBinaryData(MODE_Complex_Voltage, analogSwitch_SIG_OUT_NEEDLE->getState() ? NEEDLE : trinityMUX->getSignalMuxChannel(), trinityMUX->getGroundMuxChannel(), measuringEl, result_Real, result_Imag);
	}else if (measureVoltage_directPrint_MODE == DirectPRINT_MAGNITUDE){
		sendBinaryData(MODE_Magnitude_of_Voltage, analogSwitch_SIG_OUT_NEEDLE->getState() ? NEEDLE : trinityMUX->getSignalMuxChannel(), trinityMUX->getGroundMuxChannel(), measuringEl, magnitude);
    163e:	84 81       	ldd	r24, Z+4	; 0x04
    1640:	81 11       	cpse	r24, r1
    1642:	06 c0       	rjmp	.+12     	; 0x1650 <_ZN28ImpedanceMultiSensingCircuit14measureVoltageEaaa15directPrintModeb+0x374>
    1644:	f8 01       	movw	r30, r16
    1646:	80 81       	ld	r24, Z
    1648:	91 81       	ldd	r25, Z+1	; 0x01
    164a:	0e 94 e8 13 	call	0x27d0	; 0x27d0 <_ZN13MUX16_CIRCUIT19getSignalMuxChannelEv>
    164e:	01 c0       	rjmp	.+2      	; 0x1652 <_ZN28ImpedanceMultiSensingCircuit14measureVoltageEaaa15directPrintModeb+0x376>
    1650:	80 e1       	ldi	r24, 0x10	; 16
    1652:	81 2c       	mov	r8, r1
    1654:	91 2c       	mov	r9, r1
    1656:	90 ec       	ldi	r25, 0xC0	; 192
    1658:	a9 2e       	mov	r10, r25
    165a:	9f e7       	ldi	r25, 0x7F	; 127
    165c:	b9 2e       	mov	r11, r25
    165e:	c7 2c       	mov	r12, r7
    1660:	d4 2c       	mov	r13, r4
    1662:	e6 2c       	mov	r14, r6
    1664:	f5 2c       	mov	r15, r5
    1666:	03 2d       	mov	r16, r3
    1668:	22 2d       	mov	r18, r2
    166a:	48 2f       	mov	r20, r24
    166c:	61 e0       	ldi	r22, 0x01	; 1
    166e:	8e 81       	ldd	r24, Y+6	; 0x06
    1670:	9f 81       	ldd	r25, Y+7	; 0x07
    1672:	0e 94 54 07 	call	0xea8	; 0xea8 <_ZN28ImpedanceMultiSensingCircuit14sendBinaryDataEaaaaff>
	}
	// Return L2 of Voltages:
	return magnitude;
    1676:	36 2d       	mov	r19, r6
    1678:	25 2d       	mov	r18, r5
}
    167a:	67 2d       	mov	r22, r7
    167c:	74 2d       	mov	r23, r4
    167e:	83 2f       	mov	r24, r19
    1680:	92 2f       	mov	r25, r18
    1682:	27 96       	adiw	r28, 0x07	; 7
    1684:	0f b6       	in	r0, 0x3f	; 63
    1686:	f8 94       	cli
    1688:	de bf       	out	0x3e, r29	; 62
    168a:	0f be       	out	0x3f, r0	; 63
    168c:	cd bf       	out	0x3d, r28	; 61
    168e:	df 91       	pop	r29
    1690:	cf 91       	pop	r28
    1692:	1f 91       	pop	r17
    1694:	0f 91       	pop	r16
    1696:	ff 90       	pop	r15
    1698:	ef 90       	pop	r14
    169a:	df 90       	pop	r13
    169c:	cf 90       	pop	r12
    169e:	bf 90       	pop	r11
    16a0:	af 90       	pop	r10
    16a2:	9f 90       	pop	r9
    16a4:	8f 90       	pop	r8
    16a6:	7f 90       	pop	r7
    16a8:	6f 90       	pop	r6
    16aa:	5f 90       	pop	r5
    16ac:	4f 90       	pop	r4
    16ae:	3f 90       	pop	r3
    16b0:	2f 90       	pop	r2
    16b2:	08 95       	ret

000016b4 <_ZN28ImpedanceMultiSensingCircuit27determineCompensationValuesEv>:
		Serial.print(gain_Z, 12);
	#endif
}

// Measure Compensation Values !IF! nothing is connected:
void ImpedanceMultiSensingCircuit::determineCompensationValues(){
    16b4:	8f 92       	push	r8
    16b6:	9f 92       	push	r9
    16b8:	af 92       	push	r10
    16ba:	bf 92       	push	r11
    16bc:	cf 92       	push	r12
    16be:	df 92       	push	r13
    16c0:	ef 92       	push	r14
    16c2:	ff 92       	push	r15
    16c4:	0f 93       	push	r16
    16c6:	1f 93       	push	r17
    16c8:	cf 93       	push	r28
    16ca:	df 93       	push	r29
    16cc:	ec 01       	movw	r28, r24
	// Auch fr nadelmessungen extra kompensationswerte vorsehen
	// Zustzliche kompensationsmessungen sind auch notwendig, wenn der Analogschalter in eine andere schaltstellung schaltet, da dann die Impedanzwandler und mux abgekoppelt werden.
	// !!!!! ----- TODO ----- !!!!!
	// !!!!! ----- TODO ----- !!!!!
	// Begin Measuring:
	beginMeasure();
    16ce:	0e 94 49 06 	call	0xc92	; 0xc92 <_ZN28ImpedanceMultiSensingCircuit12beginMeasureEv>
	// Check if something is connected:
	// Measured Impedance between 0 and 1:
	measureImpedance(0, 1);
    16d2:	20 e0       	ldi	r18, 0x00	; 0
    16d4:	41 e0       	ldi	r20, 0x01	; 1
    16d6:	60 e0       	ldi	r22, 0x00	; 0
    16d8:	ce 01       	movw	r24, r28
    16da:	0e 94 ba 07 	call	0xf74	; 0xf74 <_ZN28ImpedanceMultiSensingCircuit16measureImpedanceEaa15directPrintMode>
	// Check if nothing is connected (only Valid for exactly THIS used PCB):
	if(ad5933ciruit->tempRealData > HIGH_Z_REAL_neg && ad5933ciruit->tempImagData < HIGH_Z_IMAG_pos){
    16de:	6e 01       	movw	r12, r28
    16e0:	22 ef       	ldi	r18, 0xF2	; 242
    16e2:	c2 0e       	add	r12, r18
    16e4:	d1 1c       	adc	r13, r1
    16e6:	d6 01       	movw	r26, r12
    16e8:	ed 91       	ld	r30, X+
    16ea:	fc 91       	ld	r31, X
    16ec:	11 97       	sbiw	r26, 0x01	; 1
    16ee:	80 81       	ld	r24, Z
    16f0:	91 81       	ldd	r25, Z+1	; 0x01
    16f2:	9e 01       	movw	r18, r28
    16f4:	21 5b       	subi	r18, 0xB1	; 177
    16f6:	3f 4f       	sbci	r19, 0xFF	; 255
    16f8:	49 01       	movw	r8, r18
    16fa:	a1 5a       	subi	r26, 0xA1	; 161
    16fc:	b1 09       	sbc	r27, r1
    16fe:	5d 01       	movw	r10, r26
    1700:	8f 3c       	cpi	r24, 0xCF	; 207
    1702:	9f 4f       	sbci	r25, 0xFF	; 255
    1704:	0c f4       	brge	.+2      	; 0x1708 <_ZN28ImpedanceMultiSensingCircuit27determineCompensationValuesEv+0x54>
    1706:	89 c0       	rjmp	.+274    	; 0x181a <_ZN28ImpedanceMultiSensingCircuit27determineCompensationValuesEv+0x166>
    1708:	82 81       	ldd	r24, Z+2	; 0x02
    170a:	93 81       	ldd	r25, Z+3	; 0x03
    170c:	8c 32       	cpi	r24, 0x2C	; 44
    170e:	91 40       	sbci	r25, 0x01	; 1
    1710:	0c f0       	brlt	.+2      	; 0x1714 <_ZN28ImpedanceMultiSensingCircuit27determineCompensationValuesEv+0x60>
    1712:	83 c0       	rjmp	.+262    	; 0x181a <_ZN28ImpedanceMultiSensingCircuit27determineCompensationValuesEv+0x166>
		// Nothing connected!
		// Voltage correction:
		setElectrodeInitCond();
    1714:	ce 01       	movw	r24, r28
    1716:	0e 94 21 06 	call	0xc42	; 0xc42 <_ZN28ImpedanceMultiSensingCircuit20setElectrodeInitCondEv>
		disableModes();
    171a:	ce 01       	movw	r24, r28
    171c:	0e 94 3e 06 	call	0xc7c	; 0xc7c <_ZN28ImpedanceMultiSensingCircuit12disableModesEv>
		// Safety loop to ensure valid results:
		uint8_t similarResults = 0;
    1720:	10 e0       	ldi	r17, 0x00	; 0
		while(true){
			// Wait and re-measure:
			delay(10);
    1722:	6a e0       	ldi	r22, 0x0A	; 10
    1724:	70 e0       	ldi	r23, 0x00	; 0
    1726:	80 e0       	ldi	r24, 0x00	; 0
    1728:	90 e0       	ldi	r25, 0x00	; 0
    172a:	0e 94 00 2a 	call	0x5400	; 0x5400 <delay>
			//ad5933ciruit->getOneFrequency(nullptr, nullptr);
			measureVoltage(1,0,1, DirectPRINT_NONE, false); // Sould deliver 0 V
    172e:	e1 2c       	mov	r14, r1
    1730:	00 e0       	ldi	r16, 0x00	; 0
    1732:	21 e0       	ldi	r18, 0x01	; 1
    1734:	40 e0       	ldi	r20, 0x00	; 0
    1736:	61 e0       	ldi	r22, 0x01	; 1
    1738:	ce 01       	movw	r24, r28
    173a:	0e 94 6e 09 	call	0x12dc	; 0x12dc <_ZN28ImpedanceMultiSensingCircuit14measureVoltageEaaa15directPrintModeb>
			// Check if similar to last measurement:
			if(abs(compensation_V_Re - ad5933ciruit->tempRealData) + abs(compensation_V_Im - ad5933ciruit->tempImagData) < 2*COMPENSATION_DETERMINATION_SAFETY_REPETITIONS){
    173e:	d6 01       	movw	r26, r12
    1740:	ed 91       	ld	r30, X+
    1742:	fc 91       	ld	r31, X
    1744:	60 81       	ld	r22, Z
    1746:	71 81       	ldd	r23, Z+1	; 0x01
    1748:	42 81       	ldd	r20, Z+2	; 0x02
    174a:	53 81       	ldd	r21, Z+3	; 0x03
    174c:	f4 01       	movw	r30, r8
    174e:	80 81       	ld	r24, Z
    1750:	91 81       	ldd	r25, Z+1	; 0x01
    1752:	fc 01       	movw	r30, r24
    1754:	e6 1b       	sub	r30, r22
    1756:	f7 0b       	sbc	r31, r23
    1758:	f7 ff       	sbrs	r31, 7
    175a:	03 c0       	rjmp	.+6      	; 0x1762 <_ZN28ImpedanceMultiSensingCircuit27determineCompensationValuesEv+0xae>
    175c:	f1 95       	neg	r31
    175e:	e1 95       	neg	r30
    1760:	f1 09       	sbc	r31, r1
    1762:	d5 01       	movw	r26, r10
    1764:	2d 91       	ld	r18, X+
    1766:	3c 91       	ld	r19, X
    1768:	c9 01       	movw	r24, r18
    176a:	84 1b       	sub	r24, r20
    176c:	95 0b       	sbc	r25, r21
    176e:	97 ff       	sbrs	r25, 7
    1770:	03 c0       	rjmp	.+6      	; 0x1778 <_ZN28ImpedanceMultiSensingCircuit27determineCompensationValuesEv+0xc4>
    1772:	91 95       	neg	r25
    1774:	81 95       	neg	r24
    1776:	91 09       	sbc	r25, r1
    1778:	8e 0f       	add	r24, r30
    177a:	9f 1f       	adc	r25, r31
    177c:	06 97       	sbiw	r24, 0x06	; 6
    177e:	14 f4       	brge	.+4      	; 0x1784 <_ZN28ImpedanceMultiSensingCircuit27determineCompensationValuesEv+0xd0>
				similarResults++;
    1780:	1f 5f       	subi	r17, 0xFF	; 255
    1782:	01 c0       	rjmp	.+2      	; 0x1786 <_ZN28ImpedanceMultiSensingCircuit27determineCompensationValuesEv+0xd2>
			}else{
				similarResults = 0;
    1784:	10 e0       	ldi	r17, 0x00	; 0
			}
			// Update Values:
			compensation_V_Re = ad5933ciruit->tempRealData;
    1786:	f4 01       	movw	r30, r8
    1788:	71 83       	std	Z+1, r23	; 0x01
    178a:	60 83       	st	Z, r22
			compensation_V_Im = ad5933ciruit->tempImagData;
    178c:	d5 01       	movw	r26, r10
    178e:	4d 93       	st	X+, r20
    1790:	5c 93       	st	X, r21
			// Enough similar results - accept as valid:
			if(similarResults >= COMPENSATION_DETERMINATION_SAFETY_REPETITIONS){
    1792:	13 30       	cpi	r17, 0x03	; 3
    1794:	30 f2       	brcs	.-116    	; 0x1722 <_ZN28ImpedanceMultiSensingCircuit27determineCompensationValuesEv+0x6e>
    1796:	b1 2c       	mov	r11, r1
		while(true){
			// Wait and re-measure:
			delay(10);
			measureImpedance(0, 1);
			// Check if similar to last measurement:
			if(abs(compensation_Z_Re - ad5933ciruit->tempRealData) + abs(compensation_Z_Im - ad5933ciruit->tempImagData) < 2*COMPENSATION_DETERMINATION_SAFETY_REPETITIONS){
    1798:	7e 01       	movw	r14, r28
    179a:	bb e4       	ldi	r27, 0x4B	; 75
    179c:	eb 0e       	add	r14, r27
    179e:	f1 1c       	adc	r15, r1
    17a0:	8e 01       	movw	r16, r28
    17a2:	03 5b       	subi	r16, 0xB3	; 179
    17a4:	1f 4f       	sbci	r17, 0xFF	; 255
		// Measured Impedance between 0 and 1:
		// Safety loop to ensure valid results:
		similarResults = 0;
		while(true){
			// Wait and re-measure:
			delay(10);
    17a6:	6a e0       	ldi	r22, 0x0A	; 10
    17a8:	70 e0       	ldi	r23, 0x00	; 0
    17aa:	80 e0       	ldi	r24, 0x00	; 0
    17ac:	90 e0       	ldi	r25, 0x00	; 0
    17ae:	0e 94 00 2a 	call	0x5400	; 0x5400 <delay>
			measureImpedance(0, 1);
    17b2:	20 e0       	ldi	r18, 0x00	; 0
    17b4:	41 e0       	ldi	r20, 0x01	; 1
    17b6:	60 e0       	ldi	r22, 0x00	; 0
    17b8:	ce 01       	movw	r24, r28
    17ba:	0e 94 ba 07 	call	0xf74	; 0xf74 <_ZN28ImpedanceMultiSensingCircuit16measureImpedanceEaa15directPrintMode>
			// Check if similar to last measurement:
			if(abs(compensation_Z_Re - ad5933ciruit->tempRealData) + abs(compensation_Z_Im - ad5933ciruit->tempImagData) < 2*COMPENSATION_DETERMINATION_SAFETY_REPETITIONS){
    17be:	d6 01       	movw	r26, r12
    17c0:	ed 91       	ld	r30, X+
    17c2:	fc 91       	ld	r31, X
    17c4:	60 81       	ld	r22, Z
    17c6:	71 81       	ldd	r23, Z+1	; 0x01
    17c8:	42 81       	ldd	r20, Z+2	; 0x02
    17ca:	53 81       	ldd	r21, Z+3	; 0x03
    17cc:	f7 01       	movw	r30, r14
    17ce:	80 81       	ld	r24, Z
    17d0:	91 81       	ldd	r25, Z+1	; 0x01
    17d2:	fc 01       	movw	r30, r24
    17d4:	e6 1b       	sub	r30, r22
    17d6:	f7 0b       	sbc	r31, r23
    17d8:	f7 ff       	sbrs	r31, 7
    17da:	03 c0       	rjmp	.+6      	; 0x17e2 <_ZN28ImpedanceMultiSensingCircuit27determineCompensationValuesEv+0x12e>
    17dc:	f1 95       	neg	r31
    17de:	e1 95       	neg	r30
    17e0:	f1 09       	sbc	r31, r1
    17e2:	d8 01       	movw	r26, r16
    17e4:	2d 91       	ld	r18, X+
    17e6:	3c 91       	ld	r19, X
    17e8:	c9 01       	movw	r24, r18
    17ea:	84 1b       	sub	r24, r20
    17ec:	95 0b       	sbc	r25, r21
    17ee:	97 ff       	sbrs	r25, 7
    17f0:	03 c0       	rjmp	.+6      	; 0x17f8 <_ZN28ImpedanceMultiSensingCircuit27determineCompensationValuesEv+0x144>
    17f2:	91 95       	neg	r25
    17f4:	81 95       	neg	r24
    17f6:	91 09       	sbc	r25, r1
    17f8:	8e 0f       	add	r24, r30
    17fa:	9f 1f       	adc	r25, r31
    17fc:	06 97       	sbiw	r24, 0x06	; 6
    17fe:	14 f4       	brge	.+4      	; 0x1804 <_ZN28ImpedanceMultiSensingCircuit27determineCompensationValuesEv+0x150>
				similarResults++;
    1800:	b3 94       	inc	r11
    1802:	01 c0       	rjmp	.+2      	; 0x1806 <_ZN28ImpedanceMultiSensingCircuit27determineCompensationValuesEv+0x152>
			}else{
				similarResults = 0;
    1804:	b1 2c       	mov	r11, r1
			}
			// Update Values:
			// Use raw Data from AD5933:
			compensation_Z_Re = ad5933ciruit->tempRealData;
    1806:	f7 01       	movw	r30, r14
    1808:	71 83       	std	Z+1, r23	; 0x01
    180a:	60 83       	st	Z, r22
			compensation_Z_Im = ad5933ciruit->tempImagData;
    180c:	d8 01       	movw	r26, r16
    180e:	4d 93       	st	X+, r20
    1810:	5c 93       	st	X, r21
			// Enough similar results - accept as valid:
			if(similarResults >= COMPENSATION_DETERMINATION_SAFETY_REPETITIONS){
    1812:	b2 e0       	ldi	r27, 0x02	; 2
    1814:	bb 15       	cp	r27, r11
    1816:	38 f6       	brcc	.-114    	; 0x17a6 <_ZN28ImpedanceMultiSensingCircuit27determineCompensationValuesEv+0xf2>
    1818:	0e c0       	rjmp	.+28     	; 0x1836 <_ZN28ImpedanceMultiSensingCircuit27determineCompensationValuesEv+0x182>
			Serial.print("compensation_Z_Im = ");
			Serial.println(compensation_Z_Im);
		#endif
	}else{
		// Default Values:
		compensation_V_Re = 0;
    181a:	f4 01       	movw	r30, r8
    181c:	11 82       	std	Z+1, r1	; 0x01
    181e:	10 82       	st	Z, r1
		compensation_V_Im = 0;
    1820:	d5 01       	movw	r26, r10
    1822:	1d 92       	st	X+, r1
    1824:	1c 92       	st	X, r1
		compensation_Z_Re = 0;
    1826:	fe 01       	movw	r30, r28
    1828:	e5 5b       	subi	r30, 0xB5	; 181
    182a:	ff 4f       	sbci	r31, 0xFF	; 255
    182c:	11 82       	std	Z+1, r1	; 0x01
    182e:	10 82       	st	Z, r1
		compensation_Z_Im = 0;
    1830:	32 96       	adiw	r30, 0x02	; 2
    1832:	11 82       	std	Z+1, r1	; 0x01
    1834:	10 82       	st	Z, r1
	}
	// End Measuring:
	endMeasure();
    1836:	ce 01       	movw	r24, r28
}
    1838:	df 91       	pop	r29
    183a:	cf 91       	pop	r28
    183c:	1f 91       	pop	r17
    183e:	0f 91       	pop	r16
    1840:	ff 90       	pop	r15
    1842:	ef 90       	pop	r14
    1844:	df 90       	pop	r13
    1846:	cf 90       	pop	r12
    1848:	bf 90       	pop	r11
    184a:	af 90       	pop	r10
    184c:	9f 90       	pop	r9
    184e:	8f 90       	pop	r8
		compensation_V_Im = 0;
		compensation_Z_Re = 0;
		compensation_Z_Im = 0;
	}
	// End Measuring:
	endMeasure();
    1850:	0c 94 5e 06 	jmp	0xcbc	; 0xcbc <_ZN28ImpedanceMultiSensingCircuit10endMeasureEv>

00001854 <_ZN28ImpedanceMultiSensingCircuit18calibrationRoutineEv>:
	trinityMUX->prepareGroundMux(-1);
	trinityMUX->writePreparedChannelsToMux();
}

// Self Calibration if nothing is connected (checked between Pin 0 and 1):
void ImpedanceMultiSensingCircuit::calibrationRoutine(){
    1854:	0f 93       	push	r16
    1856:	1f 93       	push	r17
    1858:	cf 93       	push	r28
    185a:	df 93       	push	r29
    185c:	ec 01       	movw	r28, r24
	// Start Measurement:
	beginMeasure();
    185e:	0e 94 49 06 	call	0xc92	; 0xc92 <_ZN28ImpedanceMultiSensingCircuit12beginMeasureEv>
	// Measure Compensation Values !IF! nothing is connected:
	determineCompensationValues();
    1862:	ce 01       	movw	r24, r28
    1864:	0e 94 5a 0b 	call	0x16b4	; 0x16b4 <_ZN28ImpedanceMultiSensingCircuit27determineCompensationValuesEv>
	// Refresh max. measurable DFT-Value int 'maxMeasuredDFT':
	getMaxMeasuredDFT();
    1868:	ce 01       	movw	r24, r28
    186a:	0e 94 7a 06 	call	0xcf4	; 0xcf4 <_ZN28ImpedanceMultiSensingCircuit17getMaxMeasuredDFTEv>
	// Gain factor for Voltage Ue(max)/DFT_value(max)  [Ue..Output voltage of AD5933; DFT_value..calculated result of DFT in the AD5933]:
	gain_U = (SIGNAL_VPP/2)/maxMeasuredDFT;
    186e:	8e 01       	movw	r16, r28
    1870:	05 5a       	subi	r16, 0xA5	; 165
    1872:	1f 4f       	sbci	r17, 0xFF	; 255
    1874:	fe 01       	movw	r30, r28
    1876:	e9 5a       	subi	r30, 0xA9	; 169
    1878:	ff 4f       	sbci	r31, 0xFF	; 255
    187a:	20 81       	ld	r18, Z
    187c:	31 81       	ldd	r19, Z+1	; 0x01
    187e:	42 81       	ldd	r20, Z+2	; 0x02
    1880:	53 81       	ldd	r21, Z+3	; 0x03
    1882:	64 ea       	ldi	r22, 0xA4	; 164
    1884:	70 e7       	ldi	r23, 0x70	; 112
    1886:	8d e7       	ldi	r24, 0x7D	; 125
    1888:	9f e3       	ldi	r25, 0x3F	; 63
    188a:	0e 94 e2 1f 	call	0x3fc4	; 0x3fc4 <__divsf3>
    188e:	f8 01       	movw	r30, r16
    1890:	60 83       	st	Z, r22
    1892:	71 83       	std	Z+1, r23	; 0x01
    1894:	82 83       	std	Z+2, r24	; 0x02
    1896:	93 83       	std	Z+3, r25	; 0x03
	// Gain factor for Impedance:
	determineGainZ();
    1898:	ce 01       	movw	r24, r28
}
    189a:	df 91       	pop	r29
    189c:	cf 91       	pop	r28
    189e:	1f 91       	pop	r17
    18a0:	0f 91       	pop	r16
	// Refresh max. measurable DFT-Value int 'maxMeasuredDFT':
	getMaxMeasuredDFT();
	// Gain factor for Voltage Ue(max)/DFT_value(max)  [Ue..Output voltage of AD5933; DFT_value..calculated result of DFT in the AD5933]:
	gain_U = (SIGNAL_VPP/2)/maxMeasuredDFT;
	// Gain factor for Impedance:
	determineGainZ();
    18a2:	0c 94 3c 09 	jmp	0x1278	; 0x1278 <_ZN28ImpedanceMultiSensingCircuit14determineGainZEv>

000018a6 <_ZN28ImpedanceMultiSensingCircuit8initIMSCEv>:
		delete ad5933ciruit;
		delete mcp23017_ModeExpander;
} //~ImpedanceMultiSensingCircuit

// Initialize Module for EIT:
int8_t ImpedanceMultiSensingCircuit::initIMSC(){
    18a6:	6f 92       	push	r6
    18a8:	7f 92       	push	r7
    18aa:	8f 92       	push	r8
    18ac:	9f 92       	push	r9
    18ae:	af 92       	push	r10
    18b0:	bf 92       	push	r11
    18b2:	cf 92       	push	r12
    18b4:	df 92       	push	r13
    18b6:	ef 92       	push	r14
    18b8:	ff 92       	push	r15
    18ba:	0f 93       	push	r16
    18bc:	1f 93       	push	r17
    18be:	cf 93       	push	r28
    18c0:	df 93       	push	r29
    18c2:	ec 01       	movw	r28, r24
	// Initialize Mode Expander:
	if(mcp23017_ModeExpander->begin(MCP23017_MODE_ADDR)){
    18c4:	8c 01       	movw	r16, r24
    18c6:	0c 50       	subi	r16, 0x0C	; 12
    18c8:	1f 4f       	sbci	r17, 0xFF	; 255
    18ca:	61 e0       	ldi	r22, 0x01	; 1
    18cc:	f8 01       	movw	r30, r16
    18ce:	80 81       	ld	r24, Z
    18d0:	91 81       	ldd	r25, Z+1	; 0x01
    18d2:	0e 94 d5 10 	call	0x21aa	; 0x21aa <_ZN8MCP230175beginEh>
    18d6:	81 11       	cpse	r24, r1
    18d8:	f8 c0       	rjmp	.+496    	; 0x1aca <_ZN28ImpedanceMultiSensingCircuit8initIMSCEv+0x224>
		// Return Error:
		return 1;
	}
	
	// Initialize Mode- and LED- Pins:
	redLED    = new imsc_LED(mcp23017_ModeExpander, PIN_LED_RED   );
    18da:	85 e0       	ldi	r24, 0x05	; 5
    18dc:	90 e0       	ldi	r25, 0x00	; 0
    18de:	0e 94 3b 23 	call	0x4676	; 0x4676 <_Znwj>
    18e2:	7c 01       	movw	r14, r24
    18e4:	f8 01       	movw	r30, r16
    18e6:	60 81       	ld	r22, Z
    18e8:	71 81       	ldd	r23, Z+1	; 0x01
    18ea:	20 e0       	ldi	r18, 0x00	; 0
    18ec:	44 e0       	ldi	r20, 0x04	; 4
    18ee:	0e 94 af 04 	call	0x95e	; 0x95e <_ZN8imsc_LEDC1EP8MCP23017hb>
    18f2:	4e 01       	movw	r8, r28
    18f4:	f6 ef       	ldi	r31, 0xF6	; 246
    18f6:	8f 0e       	add	r8, r31
    18f8:	91 1c       	adc	r9, r1
    18fa:	f4 01       	movw	r30, r8
    18fc:	f1 82       	std	Z+1, r15	; 0x01
    18fe:	e0 82       	st	Z, r14
	yellowLED = new imsc_LED(mcp23017_ModeExpander, PIN_LED_YELLOW);
    1900:	85 e0       	ldi	r24, 0x05	; 5
    1902:	90 e0       	ldi	r25, 0x00	; 0
    1904:	0e 94 3b 23 	call	0x4676	; 0x4676 <_Znwj>
    1908:	7c 01       	movw	r14, r24
    190a:	f8 01       	movw	r30, r16
    190c:	60 81       	ld	r22, Z
    190e:	71 81       	ldd	r23, Z+1	; 0x01
    1910:	20 e0       	ldi	r18, 0x00	; 0
    1912:	45 e0       	ldi	r20, 0x05	; 5
    1914:	0e 94 af 04 	call	0x95e	; 0x95e <_ZN8imsc_LEDC1EP8MCP23017hb>
    1918:	5e 01       	movw	r10, r28
    191a:	f8 ef       	ldi	r31, 0xF8	; 248
    191c:	af 0e       	add	r10, r31
    191e:	b1 1c       	adc	r11, r1
    1920:	f5 01       	movw	r30, r10
    1922:	f1 82       	std	Z+1, r15	; 0x01
    1924:	e0 82       	st	Z, r14
	greenLED  = new imsc_LED(mcp23017_ModeExpander, PIN_LED_GREEN );
    1926:	85 e0       	ldi	r24, 0x05	; 5
    1928:	90 e0       	ldi	r25, 0x00	; 0
    192a:	0e 94 3b 23 	call	0x4676	; 0x4676 <_Znwj>
    192e:	7c 01       	movw	r14, r24
    1930:	f8 01       	movw	r30, r16
    1932:	60 81       	ld	r22, Z
    1934:	71 81       	ldd	r23, Z+1	; 0x01
    1936:	20 e0       	ldi	r18, 0x00	; 0
    1938:	46 e0       	ldi	r20, 0x06	; 6
    193a:	0e 94 af 04 	call	0x95e	; 0x95e <_ZN8imsc_LEDC1EP8MCP23017hb>
    193e:	6e 01       	movw	r12, r28
    1940:	fa ef       	ldi	r31, 0xFA	; 250
    1942:	cf 0e       	add	r12, r31
    1944:	d1 1c       	adc	r13, r1
    1946:	f6 01       	movw	r30, r12
    1948:	f1 82       	std	Z+1, r15	; 0x01
    194a:	e0 82       	st	Z, r14
	blueLED   = new imsc_LED(mcp23017_ModeExpander, PIN_LED_BLUE  );
    194c:	85 e0       	ldi	r24, 0x05	; 5
    194e:	90 e0       	ldi	r25, 0x00	; 0
    1950:	0e 94 3b 23 	call	0x4676	; 0x4676 <_Znwj>
    1954:	3c 01       	movw	r6, r24
    1956:	f8 01       	movw	r30, r16
    1958:	60 81       	ld	r22, Z
    195a:	71 81       	ldd	r23, Z+1	; 0x01
    195c:	20 e0       	ldi	r18, 0x00	; 0
    195e:	47 e0       	ldi	r20, 0x07	; 7
    1960:	0e 94 af 04 	call	0x95e	; 0x95e <_ZN8imsc_LEDC1EP8MCP23017hb>
    1964:	7e 01       	movw	r14, r28
    1966:	fc ef       	ldi	r31, 0xFC	; 252
    1968:	ef 0e       	add	r14, r31
    196a:	f1 1c       	adc	r15, r1
    196c:	f7 01       	movw	r30, r14
    196e:	71 82       	std	Z+1, r7	; 0x01
    1970:	60 82       	st	Z, r6
	analogSwitch_SIG_OUT_NEEDLE = new imsc_LED(mcp23017_ModeExpander, PIN_MODE_NEEDLE_OUT, ADG1611_LOG_OFF);
    1972:	85 e0       	ldi	r24, 0x05	; 5
    1974:	90 e0       	ldi	r25, 0x00	; 0
    1976:	0e 94 3b 23 	call	0x4676	; 0x4676 <_Znwj>
    197a:	3c 01       	movw	r6, r24
    197c:	f8 01       	movw	r30, r16
    197e:	60 81       	ld	r22, Z
    1980:	71 81       	ldd	r23, Z+1	; 0x01
    1982:	21 e0       	ldi	r18, 0x01	; 1
    1984:	41 e0       	ldi	r20, 0x01	; 1
    1986:	0e 94 af 04 	call	0x95e	; 0x95e <_ZN8imsc_LEDC1EP8MCP23017hb>
    198a:	fe 01       	movw	r30, r28
    198c:	e2 50       	subi	r30, 0x02	; 2
    198e:	ff 4f       	sbci	r31, 0xFF	; 255
    1990:	71 82       	std	Z+1, r7	; 0x01
    1992:	60 82       	st	Z, r6
	analogSwitch_V_MEAS_NEEDLE  = new imsc_LED(mcp23017_ModeExpander, PIN_MODE_NEEDLE_IN,  ADG1611_LOG_OFF);
    1994:	85 e0       	ldi	r24, 0x05	; 5
    1996:	90 e0       	ldi	r25, 0x00	; 0
    1998:	0e 94 3b 23 	call	0x4676	; 0x4676 <_Znwj>
    199c:	3c 01       	movw	r6, r24
    199e:	f8 01       	movw	r30, r16
    19a0:	60 81       	ld	r22, Z
    19a2:	71 81       	ldd	r23, Z+1	; 0x01
    19a4:	21 e0       	ldi	r18, 0x01	; 1
    19a6:	42 e0       	ldi	r20, 0x02	; 2
    19a8:	0e 94 af 04 	call	0x95e	; 0x95e <_ZN8imsc_LEDC1EP8MCP23017hb>
    19ac:	fe 01       	movw	r30, r28
    19ae:	f3 95       	inc	r31
    19b0:	71 82       	std	Z+1, r7	; 0x01
    19b2:	60 82       	st	Z, r6
	analogSwitch_V_MEAS 		= new imsc_LED(mcp23017_ModeExpander, PIN_MODE_V_MEAS_IN,  ADG1611_LOG_OFF);
    19b4:	85 e0       	ldi	r24, 0x05	; 5
    19b6:	90 e0       	ldi	r25, 0x00	; 0
    19b8:	0e 94 3b 23 	call	0x4676	; 0x4676 <_Znwj>
    19bc:	3c 01       	movw	r6, r24
    19be:	f8 01       	movw	r30, r16
    19c0:	60 81       	ld	r22, Z
    19c2:	71 81       	ldd	r23, Z+1	; 0x01
    19c4:	21 e0       	ldi	r18, 0x01	; 1
    19c6:	43 e0       	ldi	r20, 0x03	; 3
    19c8:	0e 94 af 04 	call	0x95e	; 0x95e <_ZN8imsc_LEDC1EP8MCP23017hb>
    19cc:	fe 01       	movw	r30, r28
    19ce:	ee 5f       	subi	r30, 0xFE	; 254
    19d0:	fe 4f       	sbci	r31, 0xFE	; 254
    19d2:	71 82       	std	Z+1, r7	; 0x01
    19d4:	60 82       	st	Z, r6
	analogSwitch_Z_MEAS 		= new imsc_LED(mcp23017_ModeExpander, PIN_MODE_Z_MEAS_IN,  ADG1611_LOG_OFF);
    19d6:	85 e0       	ldi	r24, 0x05	; 5
    19d8:	90 e0       	ldi	r25, 0x00	; 0
    19da:	0e 94 3b 23 	call	0x4676	; 0x4676 <_Znwj>
    19de:	3c 01       	movw	r6, r24
    19e0:	f8 01       	movw	r30, r16
    19e2:	60 81       	ld	r22, Z
    19e4:	71 81       	ldd	r23, Z+1	; 0x01
    19e6:	21 e0       	ldi	r18, 0x01	; 1
    19e8:	40 e0       	ldi	r20, 0x00	; 0
    19ea:	0e 94 af 04 	call	0x95e	; 0x95e <_ZN8imsc_LEDC1EP8MCP23017hb>
    19ee:	fe 01       	movw	r30, r28
    19f0:	ec 5f       	subi	r30, 0xFC	; 252
    19f2:	fe 4f       	sbci	r31, 0xFE	; 254
    19f4:	71 82       	std	Z+1, r7	; 0x01
    19f6:	60 82       	st	Z, r6
	// LED flash on:
	redLED->on(); yellowLED->on(); greenLED->on(); blueLED->on(); 
    19f8:	f4 01       	movw	r30, r8
    19fa:	80 81       	ld	r24, Z
    19fc:	91 81       	ldd	r25, Z+1	; 0x01
    19fe:	0e 94 c8 04 	call	0x990	; 0x990 <_ZN8imsc_LED2onEv>
    1a02:	f5 01       	movw	r30, r10
    1a04:	80 81       	ld	r24, Z
    1a06:	91 81       	ldd	r25, Z+1	; 0x01
    1a08:	0e 94 c8 04 	call	0x990	; 0x990 <_ZN8imsc_LED2onEv>
    1a0c:	f6 01       	movw	r30, r12
    1a0e:	80 81       	ld	r24, Z
    1a10:	91 81       	ldd	r25, Z+1	; 0x01
    1a12:	0e 94 c8 04 	call	0x990	; 0x990 <_ZN8imsc_LED2onEv>
    1a16:	f7 01       	movw	r30, r14
    1a18:	80 81       	ld	r24, Z
    1a1a:	91 81       	ldd	r25, Z+1	; 0x01
    1a1c:	0e 94 c8 04 	call	0x990	; 0x990 <_ZN8imsc_LED2onEv>
	// Initialize Trinity-MUX
	if(trinityMUX->begin(MCP23017_MUX_ADDR)){
    1a20:	60 e0       	ldi	r22, 0x00	; 0
    1a22:	70 e0       	ldi	r23, 0x00	; 0
    1a24:	fe 01       	movw	r30, r28
    1a26:	e0 51       	subi	r30, 0x10	; 16
    1a28:	ff 4f       	sbci	r31, 0xFF	; 255
    1a2a:	80 81       	ld	r24, Z
    1a2c:	91 81       	ldd	r25, Z+1	; 0x01
    1a2e:	0e 94 60 13 	call	0x26c0	; 0x26c0 <_ZN13MUX16_CIRCUIT5beginEi>
    1a32:	18 2f       	mov	r17, r24
    1a34:	81 11       	cpse	r24, r1
    1a36:	35 c0       	rjmp	.+106    	; 0x1aa2 <_ZN28ImpedanceMultiSensingCircuit8initIMSCEv+0x1fc>
		// Red LED:
		redLED->on(); yellowLED->off(); greenLED->off(); blueLED->off();
		return 1;
	}
	// Initialize Pin Electrode configuration by disabling all:
	setElectrodeInitCond();
    1a38:	ce 01       	movw	r24, r28
    1a3a:	0e 94 21 06 	call	0xc42	; 0xc42 <_ZN28ImpedanceMultiSensingCircuit20setElectrodeInitCondEv>
	// Perform initial configuration. Fail if any one of these fail.
	if (!(ad5933ciruit->reset() &&
    1a3e:	0e 94 55 03 	call	0x6aa	; 0x6aa <_ZN7AD5933s5resetEv>
		ad5933ciruit->setInternalClock(USE_INTERNAL_CLOCK) &&
		ad5933ciruit->setStartFrequency(measureFrequency) &&
		ad5933ciruit->setIncrementFrequency(FREQ_INCR) &&
		ad5933ciruit->setNumberIncrements(NUM_INCR) &&
		ad5933ciruit->setPGAGain(PGA_GAIN_X1) &&
		ad5933ciruit->setSettlingTimeCycles(SETTLING_TIME_CYCLES)))
    1a42:	88 23       	and	r24, r24
    1a44:	41 f1       	breq	.+80     	; 0x1a96 <_ZN28ImpedanceMultiSensingCircuit8initIMSCEv+0x1f0>
	}
	// Initialize Pin Electrode configuration by disabling all:
	setElectrodeInitCond();
	// Perform initial configuration. Fail if any one of these fail.
	if (!(ad5933ciruit->reset() &&
		ad5933ciruit->setInternalClock(USE_INTERNAL_CLOCK) &&
    1a46:	80 e0       	ldi	r24, 0x00	; 0
    1a48:	0e 94 d1 02 	call	0x5a2	; 0x5a2 <_ZN7AD5933s16setInternalClockEb>
		return 1;
	}
	// Initialize Pin Electrode configuration by disabling all:
	setElectrodeInitCond();
	// Perform initial configuration. Fail if any one of these fail.
	if (!(ad5933ciruit->reset() &&
    1a4c:	88 23       	and	r24, r24
    1a4e:	19 f1       	breq	.+70     	; 0x1a96 <_ZN28ImpedanceMultiSensingCircuit8initIMSCEv+0x1f0>
		ad5933ciruit->setInternalClock(USE_INTERNAL_CLOCK) &&
		ad5933ciruit->setStartFrequency(measureFrequency) &&
    1a50:	fe 01       	movw	r30, r28
    1a52:	ed 5a       	subi	r30, 0xAD	; 173
    1a54:	ff 4f       	sbci	r31, 0xFF	; 255
    1a56:	60 81       	ld	r22, Z
    1a58:	71 81       	ldd	r23, Z+1	; 0x01
    1a5a:	82 81       	ldd	r24, Z+2	; 0x02
    1a5c:	93 81       	ldd	r25, Z+3	; 0x03
    1a5e:	0e 94 0f 02 	call	0x41e	; 0x41e <_ZN7AD5933s17setStartFrequencyEm>
	}
	// Initialize Pin Electrode configuration by disabling all:
	setElectrodeInitCond();
	// Perform initial configuration. Fail if any one of these fail.
	if (!(ad5933ciruit->reset() &&
		ad5933ciruit->setInternalClock(USE_INTERNAL_CLOCK) &&
    1a62:	88 23       	and	r24, r24
    1a64:	c1 f0       	breq	.+48     	; 0x1a96 <_ZN28ImpedanceMultiSensingCircuit8initIMSCEv+0x1f0>
		ad5933ciruit->setStartFrequency(measureFrequency) &&
		ad5933ciruit->setIncrementFrequency(FREQ_INCR) &&
    1a66:	60 e0       	ldi	r22, 0x00	; 0
    1a68:	70 e0       	ldi	r23, 0x00	; 0
    1a6a:	cb 01       	movw	r24, r22
    1a6c:	0e 94 4e 02 	call	0x49c	; 0x49c <_ZN7AD5933s21setIncrementFrequencyEm>
	// Initialize Pin Electrode configuration by disabling all:
	setElectrodeInitCond();
	// Perform initial configuration. Fail if any one of these fail.
	if (!(ad5933ciruit->reset() &&
		ad5933ciruit->setInternalClock(USE_INTERNAL_CLOCK) &&
		ad5933ciruit->setStartFrequency(measureFrequency) &&
    1a70:	88 23       	and	r24, r24
    1a72:	89 f0       	breq	.+34     	; 0x1a96 <_ZN28ImpedanceMultiSensingCircuit8initIMSCEv+0x1f0>
		ad5933ciruit->setIncrementFrequency(FREQ_INCR) &&
		ad5933ciruit->setNumberIncrements(NUM_INCR) &&
    1a74:	8a e0       	ldi	r24, 0x0A	; 10
    1a76:	90 e0       	ldi	r25, 0x00	; 0
    1a78:	0e 94 8d 02 	call	0x51a	; 0x51a <_ZN7AD5933s19setNumberIncrementsEj>
	setElectrodeInitCond();
	// Perform initial configuration. Fail if any one of these fail.
	if (!(ad5933ciruit->reset() &&
		ad5933ciruit->setInternalClock(USE_INTERNAL_CLOCK) &&
		ad5933ciruit->setStartFrequency(measureFrequency) &&
		ad5933ciruit->setIncrementFrequency(FREQ_INCR) &&
    1a7c:	88 23       	and	r24, r24
    1a7e:	59 f0       	breq	.+22     	; 0x1a96 <_ZN28ImpedanceMultiSensingCircuit8initIMSCEv+0x1f0>
		ad5933ciruit->setNumberIncrements(NUM_INCR) &&
		ad5933ciruit->setPGAGain(PGA_GAIN_X1) &&
    1a80:	81 e0       	ldi	r24, 0x01	; 1
    1a82:	0e 94 6e 03 	call	0x6dc	; 0x6dc <_ZN7AD5933s10setPGAGainEh>
	// Perform initial configuration. Fail if any one of these fail.
	if (!(ad5933ciruit->reset() &&
		ad5933ciruit->setInternalClock(USE_INTERNAL_CLOCK) &&
		ad5933ciruit->setStartFrequency(measureFrequency) &&
		ad5933ciruit->setIncrementFrequency(FREQ_INCR) &&
		ad5933ciruit->setNumberIncrements(NUM_INCR) &&
    1a86:	88 23       	and	r24, r24
    1a88:	31 f0       	breq	.+12     	; 0x1a96 <_ZN28ImpedanceMultiSensingCircuit8initIMSCEv+0x1f0>
		ad5933ciruit->setPGAGain(PGA_GAIN_X1) &&
		ad5933ciruit->setSettlingTimeCycles(SETTLING_TIME_CYCLES)))
    1a8a:	85 e0       	ldi	r24, 0x05	; 5
    1a8c:	90 e0       	ldi	r25, 0x00	; 0
    1a8e:	0e 94 a4 02 	call	0x548	; 0x548 <_ZN7AD5933s21setSettlingTimeCyclesEj>
    1a92:	81 11       	cpse	r24, r1
    1a94:	1c c0       	rjmp	.+56     	; 0x1ace <_ZN28ImpedanceMultiSensingCircuit8initIMSCEv+0x228>
	{	
		// ERROR:
		Serial.println("ERROR @ AD5933"); 
    1a96:	6a e3       	ldi	r22, 0x3A	; 58
    1a98:	71 e0       	ldi	r23, 0x01	; 1
    1a9a:	87 e9       	ldi	r24, 0x97	; 151
    1a9c:	91 e0       	ldi	r25, 0x01	; 1
    1a9e:	0e 94 95 23 	call	0x472a	; 0x472a <_ZN5Print7printlnEPKc>
		// Red LED:
		redLED->on(); yellowLED->off(); greenLED->off(); blueLED->off();
    1aa2:	f4 01       	movw	r30, r8
    1aa4:	80 81       	ld	r24, Z
    1aa6:	91 81       	ldd	r25, Z+1	; 0x01
    1aa8:	0e 94 c8 04 	call	0x990	; 0x990 <_ZN8imsc_LED2onEv>
    1aac:	f5 01       	movw	r30, r10
    1aae:	80 81       	ld	r24, Z
    1ab0:	91 81       	ldd	r25, Z+1	; 0x01
    1ab2:	0e 94 d9 04 	call	0x9b2	; 0x9b2 <_ZN8imsc_LED3offEv>
    1ab6:	f6 01       	movw	r30, r12
    1ab8:	80 81       	ld	r24, Z
    1aba:	91 81       	ldd	r25, Z+1	; 0x01
    1abc:	0e 94 d9 04 	call	0x9b2	; 0x9b2 <_ZN8imsc_LED3offEv>
    1ac0:	f7 01       	movw	r30, r14
    1ac2:	80 81       	ld	r24, Z
    1ac4:	91 81       	ldd	r25, Z+1	; 0x01
    1ac6:	0e 94 d9 04 	call	0x9b2	; 0x9b2 <_ZN8imsc_LED3offEv>
		return 1;
    1aca:	11 e0       	ldi	r17, 0x01	; 1
    1acc:	34 c0       	rjmp	.+104    	; 0x1b36 <_ZN28ImpedanceMultiSensingCircuit8initIMSCEv+0x290>
	}
	// Self Calibration if nothing is connected (checked between Pin 0 and 1):
	calibrationRoutine();
    1ace:	ce 01       	movw	r24, r28
    1ad0:	0e 94 2a 0c 	call	0x1854	; 0x1854 <_ZN28ImpedanceMultiSensingCircuit18calibrationRoutineEv>
	// Disable Modes:
	disableModes();
    1ad4:	ce 01       	movw	r24, r28
    1ad6:	0e 94 3e 06 	call	0xc7c	; 0xc7c <_ZN28ImpedanceMultiSensingCircuit12disableModesEv>
	// LED flash on:
	redLED->on(); yellowLED->on(); greenLED->on(); blueLED->on();
    1ada:	f4 01       	movw	r30, r8
    1adc:	80 81       	ld	r24, Z
    1ade:	91 81       	ldd	r25, Z+1	; 0x01
    1ae0:	0e 94 c8 04 	call	0x990	; 0x990 <_ZN8imsc_LED2onEv>
    1ae4:	f5 01       	movw	r30, r10
    1ae6:	80 81       	ld	r24, Z
    1ae8:	91 81       	ldd	r25, Z+1	; 0x01
    1aea:	0e 94 c8 04 	call	0x990	; 0x990 <_ZN8imsc_LED2onEv>
    1aee:	f6 01       	movw	r30, r12
    1af0:	80 81       	ld	r24, Z
    1af2:	91 81       	ldd	r25, Z+1	; 0x01
    1af4:	0e 94 c8 04 	call	0x990	; 0x990 <_ZN8imsc_LED2onEv>
    1af8:	f7 01       	movw	r30, r14
    1afa:	80 81       	ld	r24, Z
    1afc:	91 81       	ldd	r25, Z+1	; 0x01
    1afe:	0e 94 c8 04 	call	0x990	; 0x990 <_ZN8imsc_LED2onEv>
	// Wait some time:
	delay(500);
    1b02:	64 ef       	ldi	r22, 0xF4	; 244
    1b04:	71 e0       	ldi	r23, 0x01	; 1
    1b06:	80 e0       	ldi	r24, 0x00	; 0
    1b08:	90 e0       	ldi	r25, 0x00	; 0
    1b0a:	0e 94 00 2a 	call	0x5400	; 0x5400 <delay>
	// LED flash off:
	redLED->off(); yellowLED->on(); greenLED->off(); blueLED->off();
    1b0e:	f4 01       	movw	r30, r8
    1b10:	80 81       	ld	r24, Z
    1b12:	91 81       	ldd	r25, Z+1	; 0x01
    1b14:	0e 94 d9 04 	call	0x9b2	; 0x9b2 <_ZN8imsc_LED3offEv>
    1b18:	f5 01       	movw	r30, r10
    1b1a:	80 81       	ld	r24, Z
    1b1c:	91 81       	ldd	r25, Z+1	; 0x01
    1b1e:	0e 94 c8 04 	call	0x990	; 0x990 <_ZN8imsc_LED2onEv>
    1b22:	f6 01       	movw	r30, r12
    1b24:	80 81       	ld	r24, Z
    1b26:	91 81       	ldd	r25, Z+1	; 0x01
    1b28:	0e 94 d9 04 	call	0x9b2	; 0x9b2 <_ZN8imsc_LED3offEv>
    1b2c:	f7 01       	movw	r30, r14
    1b2e:	80 81       	ld	r24, Z
    1b30:	91 81       	ldd	r25, Z+1	; 0x01
    1b32:	0e 94 d9 04 	call	0x9b2	; 0x9b2 <_ZN8imsc_LED3offEv>
	// Return Success:
	return 0;
}
    1b36:	81 2f       	mov	r24, r17
    1b38:	df 91       	pop	r29
    1b3a:	cf 91       	pop	r28
    1b3c:	1f 91       	pop	r17
    1b3e:	0f 91       	pop	r16
    1b40:	ff 90       	pop	r15
    1b42:	ef 90       	pop	r14
    1b44:	df 90       	pop	r13
    1b46:	cf 90       	pop	r12
    1b48:	bf 90       	pop	r11
    1b4a:	af 90       	pop	r10
    1b4c:	9f 90       	pop	r9
    1b4e:	8f 90       	pop	r8
    1b50:	7f 90       	pop	r7
    1b52:	6f 90       	pop	r6
    1b54:	08 95       	ret

00001b56 <_ZN28ImpedanceMultiSensingCircuit22measureAllPrepreparedVE15directPrintMode>:
	delay(HP_SETTLING_TIME); // Wait ? ms until Signal is settled to steady state (HP)
	sigGenEnabled = true;
}

// Measure all electrodes (Stimulation or similar must be prepared before):
void ImpedanceMultiSensingCircuit::measureAllPrepreparedV(directPrintMode measureAllVolt_directPrint_MODE){
    1b56:	2f 92       	push	r2
    1b58:	3f 92       	push	r3
    1b5a:	4f 92       	push	r4
    1b5c:	5f 92       	push	r5
    1b5e:	6f 92       	push	r6
    1b60:	7f 92       	push	r7
    1b62:	8f 92       	push	r8
    1b64:	9f 92       	push	r9
    1b66:	af 92       	push	r10
    1b68:	bf 92       	push	r11
    1b6a:	cf 92       	push	r12
    1b6c:	df 92       	push	r13
    1b6e:	ef 92       	push	r14
    1b70:	ff 92       	push	r15
    1b72:	0f 93       	push	r16
    1b74:	1f 93       	push	r17
    1b76:	cf 93       	push	r28
    1b78:	df 93       	push	r29
    1b7a:	cd b7       	in	r28, 0x3d	; 61
    1b7c:	de b7       	in	r29, 0x3e	; 62
    1b7e:	66 97       	sbiw	r28, 0x16	; 22
    1b80:	0f b6       	in	r0, 0x3f	; 63
    1b82:	f8 94       	cli
    1b84:	de bf       	out	0x3e, r29	; 62
    1b86:	0f be       	out	0x3f, r0	; 63
    1b88:	cd bf       	out	0x3d, r28	; 61
    1b8a:	9e 8b       	std	Y+22, r25	; 0x16
    1b8c:	8d 8b       	std	Y+21, r24	; 0x15
    1b8e:	16 2f       	mov	r17, r22
	// Start Measurement:
	beginMeasure();
    1b90:	0e 94 49 06 	call	0xc92	; 0xc92 <_ZN28ImpedanceMultiSensingCircuit12beginMeasureEv>
	ioExpander->digitalWrite(pin, LOW != loglow);
	state = LOW;
}

bool imsc_LED::getState(){
	return state;
    1b94:	ed 89       	ldd	r30, Y+21	; 0x15
    1b96:	fe 89       	ldd	r31, Y+22	; 0x16
    1b98:	e2 50       	subi	r30, 0x02	; 2
    1b9a:	ff 4f       	sbci	r31, 0xFF	; 255
    1b9c:	01 90       	ld	r0, Z+
    1b9e:	f0 81       	ld	r31, Z
    1ba0:	e0 2d       	mov	r30, r0
	#ifdef DEBUG_MODE
		unsigned long timestamp = micros();
		unsigned long timeConsumption = 0;
	#endif
	// Measure all electrodes:
	byte optionalNeedleMode = (analogSwitch_SIG_OUT_NEEDLE->getState() ? HIGH<<PIN_MODE_NEEDLE_OUT : LOW);
    1ba2:	84 81       	ldd	r24, Z+4	; 0x04
    1ba4:	88 23       	and	r24, r24
    1ba6:	11 f0       	breq	.+4      	; 0x1bac <_ZN28ImpedanceMultiSensingCircuit22measureAllPrepreparedVE15directPrintMode+0x56>
    1ba8:	02 e0       	ldi	r16, 0x02	; 2
    1baa:	01 c0       	rjmp	.+2      	; 0x1bae <_ZN28ImpedanceMultiSensingCircuit22measureAllPrepreparedVE15directPrintMode+0x58>
    1bac:	00 e0       	ldi	r16, 0x00	; 0
	writeModesAndLeds( HIGH<<PIN_LED_BLUE | HIGH<<PIN_MODE_V_MEAS_IN | optionalNeedleMode);
    1bae:	60 2f       	mov	r22, r16
    1bb0:	68 68       	ori	r22, 0x88	; 136
    1bb2:	8d 89       	ldd	r24, Y+21	; 0x15
    1bb4:	9e 89       	ldd	r25, Y+22	; 0x16
    1bb6:	0e 94 0c 05 	call	0xa18	; 0xa18 <_ZN28ImpedanceMultiSensingCircuit17writeModesAndLedsEh>
    1bba:	8d 89       	ldd	r24, Y+21	; 0x15
    1bbc:	9e 89       	ldd	r25, Y+22	; 0x16
    1bbe:	88 59       	subi	r24, 0x98	; 152
    1bc0:	9f 4f       	sbci	r25, 0xFF	; 255
    1bc2:	9c 83       	std	Y+4, r25	; 0x04
    1bc4:	8b 83       	std	Y+3, r24	; 0x03
	for(int i = 0; i<ELECTRODE_NUMBER+NEEDLE_NUMBER; i++){
    1bc6:	21 2c       	mov	r2, r1
    1bc8:	31 2c       	mov	r3, r1
		if(i == ELECTRODE_NUMBER){	// Switch to needle-measuring
			writeModesAndLeds( HIGH<<PIN_LED_BLUE | HIGH<<PIN_MODE_NEEDLE_IN | optionalNeedleMode);
		}
		// Prepare Measure-Electrode to be set:
		trinityMUX->prepareMeasureMux(i); // @NEEDLE == 16, MUX gets disabled anyway...
    1bca:	ad 89       	ldd	r26, Y+21	; 0x15
    1bcc:	be 89       	ldd	r27, Y+22	; 0x16
    1bce:	a0 51       	subi	r26, 0x10	; 16
    1bd0:	bf 4f       	sbci	r27, 0xFF	; 255
    1bd2:	ba 83       	std	Y+2, r27	; 0x02
    1bd4:	a9 83       	std	Y+1, r26	; 0x01
		// Set MUXs by writing Registers of GPIO-Expander:
		trinityMUX->writePreparedChannelsToMux();
		// Delay to wait twice the time while false electrodes may be active (caused by finite I2C writing speed combined with sequential writing of two separate registers)
		delayMicroseconds(2*I2C_8BIT_DELAY_US);
		// Measurement it selves:
		ad5933ciruit->getOneFrequency(nullptr, nullptr);
    1bd6:	ed 89       	ldd	r30, Y+21	; 0x15
    1bd8:	fe 89       	ldd	r31, Y+22	; 0x16
    1bda:	ee 50       	subi	r30, 0x0E	; 14
    1bdc:	ff 4f       	sbci	r31, 0xFF	; 255
    1bde:	fe 83       	std	Y+6, r31	; 0x06
    1be0:	ed 83       	std	Y+5, r30	; 0x05
		result_Real = gain_U*(ad5933ciruit->tempRealData - compensation_V_Re);
    1be2:	8d 89       	ldd	r24, Y+21	; 0x15
    1be4:	9e 89       	ldd	r25, Y+22	; 0x16
    1be6:	85 5a       	subi	r24, 0xA5	; 165
    1be8:	9f 4f       	sbci	r25, 0xFF	; 255
    1bea:	9b 87       	std	Y+11, r25	; 0x0b
    1bec:	8a 87       	std	Y+10, r24	; 0x0a
    1bee:	ad 89       	ldd	r26, Y+21	; 0x15
    1bf0:	be 89       	ldd	r27, Y+22	; 0x16
    1bf2:	a1 5b       	subi	r26, 0xB1	; 177
    1bf4:	bf 4f       	sbci	r27, 0xFF	; 255
    1bf6:	bd 87       	std	Y+13, r27	; 0x0d
    1bf8:	ac 87       	std	Y+12, r26	; 0x0c
    1bfa:	ed 89       	ldd	r30, Y+21	; 0x15
    1bfc:	fe 89       	ldd	r31, Y+22	; 0x16
    1bfe:	ed 5b       	subi	r30, 0xBD	; 189
    1c00:	ff 4f       	sbci	r31, 0xFF	; 255
    1c02:	ff 87       	std	Y+15, r31	; 0x0f
    1c04:	ee 87       	std	Y+14, r30	; 0x0e
		result_Imag = gain_U*(ad5933ciruit->tempImagData - compensation_V_Im);
    1c06:	8d 89       	ldd	r24, Y+21	; 0x15
    1c08:	9e 89       	ldd	r25, Y+22	; 0x16
    1c0a:	8f 5a       	subi	r24, 0xAF	; 175
    1c0c:	9f 4f       	sbci	r25, 0xFF	; 255
    1c0e:	99 8b       	std	Y+17, r25	; 0x11
    1c10:	88 8b       	std	Y+16, r24	; 0x10
    1c12:	ad 89       	ldd	r26, Y+21	; 0x15
    1c14:	be 89       	ldd	r27, Y+22	; 0x16
    1c16:	a9 5b       	subi	r26, 0xB9	; 185
    1c18:	bf 4f       	sbci	r27, 0xFF	; 255
    1c1a:	bb 8b       	std	Y+19, r27	; 0x13
    1c1c:	aa 8b       	std	Y+18, r26	; 0x12
	ioExpander->digitalWrite(pin, LOW != loglow);
	state = LOW;
}

bool imsc_LED::getState(){
	return state;
    1c1e:	ed 89       	ldd	r30, Y+21	; 0x15
    1c20:	fe 89       	ldd	r31, Y+22	; 0x16
    1c22:	e2 50       	subi	r30, 0x02	; 2
    1c24:	ff 4f       	sbci	r31, 0xFF	; 255
    1c26:	f8 87       	std	Y+8, r31	; 0x08
    1c28:	ef 83       	std	Y+7, r30	; 0x07
	// Measure all electrodes:
	byte optionalNeedleMode = (analogSwitch_SIG_OUT_NEEDLE->getState() ? HIGH<<PIN_MODE_NEEDLE_OUT : LOW);
	writeModesAndLeds( HIGH<<PIN_LED_BLUE | HIGH<<PIN_MODE_V_MEAS_IN | optionalNeedleMode);
	for(int i = 0; i<ELECTRODE_NUMBER+NEEDLE_NUMBER; i++){
		if(i == ELECTRODE_NUMBER){	// Switch to needle-measuring
			writeModesAndLeds( HIGH<<PIN_LED_BLUE | HIGH<<PIN_MODE_NEEDLE_IN | optionalNeedleMode);
    1c2a:	04 68       	ori	r16, 0x84	; 132
    1c2c:	0c 8b       	std	Y+20, r16	; 0x14
		}
		// Prepare Measure-Electrode to be set:
		trinityMUX->prepareMeasureMux(i); // @NEEDLE == 16, MUX gets disabled anyway...
    1c2e:	b1 01       	movw	r22, r2
    1c30:	a9 81       	ldd	r26, Y+1	; 0x01
    1c32:	ba 81       	ldd	r27, Y+2	; 0x02
    1c34:	8d 91       	ld	r24, X+
    1c36:	9c 91       	ld	r25, X
    1c38:	0e 94 c8 13 	call	0x2790	; 0x2790 <_ZN13MUX16_CIRCUIT17prepareMeasureMuxEi>
		// Set MUXs by writing Registers of GPIO-Expander:
		trinityMUX->writePreparedChannelsToMux();
    1c3c:	e9 81       	ldd	r30, Y+1	; 0x01
    1c3e:	fa 81       	ldd	r31, Y+2	; 0x02
    1c40:	80 81       	ld	r24, Z
    1c42:	91 81       	ldd	r25, Z+1	; 0x01
    1c44:	0e 94 7c 12 	call	0x24f8	; 0x24f8 <_ZN13MUX16_CIRCUIT26writePreparedChannelsToMuxEv>
		// Delay to wait twice the time while false electrodes may be active (caused by finite I2C writing speed combined with sequential writing of two separate registers)
		delayMicroseconds(2*I2C_8BIT_DELAY_US);
    1c48:	88 e2       	ldi	r24, 0x28	; 40
    1c4a:	90 e0       	ldi	r25, 0x00	; 0
    1c4c:	0e 94 3c 2a 	call	0x5478	; 0x5478 <delayMicroseconds>
		// Measurement it selves:
		ad5933ciruit->getOneFrequency(nullptr, nullptr);
    1c50:	40 e0       	ldi	r20, 0x00	; 0
    1c52:	50 e0       	ldi	r21, 0x00	; 0
    1c54:	60 e0       	ldi	r22, 0x00	; 0
    1c56:	70 e0       	ldi	r23, 0x00	; 0
    1c58:	ad 81       	ldd	r26, Y+5	; 0x05
    1c5a:	be 81       	ldd	r27, Y+6	; 0x06
    1c5c:	8d 91       	ld	r24, X+
    1c5e:	9c 91       	ld	r25, X
    1c60:	0e 94 ff 03 	call	0x7fe	; 0x7fe <_ZN7AD5933s15getOneFrequencyEPiS0_>
		result_Real = gain_U*(ad5933ciruit->tempRealData - compensation_V_Re);
    1c64:	ea 85       	ldd	r30, Y+10	; 0x0a
    1c66:	fb 85       	ldd	r31, Y+11	; 0x0b
    1c68:	40 80       	ld	r4, Z
    1c6a:	51 80       	ldd	r5, Z+1	; 0x01
    1c6c:	62 80       	ldd	r6, Z+2	; 0x02
    1c6e:	73 80       	ldd	r7, Z+3	; 0x03
    1c70:	ad 81       	ldd	r26, Y+5	; 0x05
    1c72:	be 81       	ldd	r27, Y+6	; 0x06
    1c74:	ad 90       	ld	r10, X+
    1c76:	bc 90       	ld	r11, X
    1c78:	f5 01       	movw	r30, r10
    1c7a:	60 81       	ld	r22, Z
    1c7c:	71 81       	ldd	r23, Z+1	; 0x01
    1c7e:	ac 85       	ldd	r26, Y+12	; 0x0c
    1c80:	bd 85       	ldd	r27, Y+13	; 0x0d
    1c82:	8d 91       	ld	r24, X+
    1c84:	9c 91       	ld	r25, X
    1c86:	68 1b       	sub	r22, r24
    1c88:	79 0b       	sbc	r23, r25
    1c8a:	07 2e       	mov	r0, r23
    1c8c:	00 0c       	add	r0, r0
    1c8e:	88 0b       	sbc	r24, r24
    1c90:	99 0b       	sbc	r25, r25
    1c92:	0e 94 8c 20 	call	0x4118	; 0x4118 <__floatsisf>
    1c96:	a3 01       	movw	r20, r6
    1c98:	92 01       	movw	r18, r4
    1c9a:	0e 94 3c 21 	call	0x4278	; 0x4278 <__mulsf3>
    1c9e:	6b 01       	movw	r12, r22
    1ca0:	7c 01       	movw	r14, r24
    1ca2:	ee 85       	ldd	r30, Y+14	; 0x0e
    1ca4:	ff 85       	ldd	r31, Y+15	; 0x0f
    1ca6:	60 83       	st	Z, r22
    1ca8:	71 83       	std	Z+1, r23	; 0x01
    1caa:	82 83       	std	Z+2, r24	; 0x02
    1cac:	93 83       	std	Z+3, r25	; 0x03
		result_Imag = gain_U*(ad5933ciruit->tempImagData - compensation_V_Im);
    1cae:	d5 01       	movw	r26, r10
    1cb0:	12 96       	adiw	r26, 0x02	; 2
    1cb2:	6d 91       	ld	r22, X+
    1cb4:	7c 91       	ld	r23, X
    1cb6:	13 97       	sbiw	r26, 0x03	; 3
    1cb8:	e8 89       	ldd	r30, Y+16	; 0x10
    1cba:	f9 89       	ldd	r31, Y+17	; 0x11
    1cbc:	80 81       	ld	r24, Z
    1cbe:	91 81       	ldd	r25, Z+1	; 0x01
    1cc0:	68 1b       	sub	r22, r24
    1cc2:	79 0b       	sbc	r23, r25
    1cc4:	07 2e       	mov	r0, r23
    1cc6:	00 0c       	add	r0, r0
    1cc8:	88 0b       	sbc	r24, r24
    1cca:	99 0b       	sbc	r25, r25
    1ccc:	0e 94 8c 20 	call	0x4118	; 0x4118 <__floatsisf>
    1cd0:	a3 01       	movw	r20, r6
    1cd2:	92 01       	movw	r18, r4
    1cd4:	0e 94 3c 21 	call	0x4278	; 0x4278 <__mulsf3>
    1cd8:	4b 01       	movw	r8, r22
    1cda:	5c 01       	movw	r10, r24
    1cdc:	aa 89       	ldd	r26, Y+18	; 0x12
    1cde:	bb 89       	ldd	r27, Y+19	; 0x13
    1ce0:	6d 93       	st	X+, r22
    1ce2:	7d 93       	st	X+, r23
    1ce4:	8d 93       	st	X+, r24
    1ce6:	9c 93       	st	X, r25
    1ce8:	13 97       	sbiw	r26, 0x03	; 3
		magnitude = sqrt(pow(result_Real, 2) + pow(result_Imag, 2));
    1cea:	9b 01       	movw	r18, r22
    1cec:	ac 01       	movw	r20, r24
    1cee:	0e 94 3c 21 	call	0x4278	; 0x4278 <__mulsf3>
    1cf2:	2b 01       	movw	r4, r22
    1cf4:	3c 01       	movw	r6, r24
    1cf6:	a7 01       	movw	r20, r14
    1cf8:	96 01       	movw	r18, r12
    1cfa:	c7 01       	movw	r24, r14
    1cfc:	b6 01       	movw	r22, r12
    1cfe:	0e 94 3c 21 	call	0x4278	; 0x4278 <__mulsf3>
    1d02:	9b 01       	movw	r18, r22
    1d04:	ac 01       	movw	r20, r24
    1d06:	c3 01       	movw	r24, r6
    1d08:	b2 01       	movw	r22, r4
    1d0a:	0e 94 71 1f 	call	0x3ee2	; 0x3ee2 <__addsf3>
    1d0e:	0e 94 af 21 	call	0x435e	; 0x435e <sqrt>
    1d12:	2b 01       	movw	r4, r22
    1d14:	3c 01       	movw	r6, r24
		// Save Results:
		tempRawData[i] = magnitude;
    1d16:	eb 81       	ldd	r30, Y+3	; 0x03
    1d18:	fc 81       	ldd	r31, Y+4	; 0x04
    1d1a:	61 93       	st	Z+, r22
    1d1c:	71 93       	st	Z+, r23
    1d1e:	81 93       	st	Z+, r24
    1d20:	91 93       	st	Z+, r25
    1d22:	fc 83       	std	Y+4, r31	; 0x04
    1d24:	eb 83       	std	Y+3, r30	; 0x03
			Serial.print(",  magnitude = ");Serial.print(magnitude, 4);
			Serial.print(",  time-consumption = ");Serial.println(timeConsumption); 
			timestamp = micros();
		#endif
		// Send binary Data if requested:
		if(measureAllVolt_directPrint_MODE == DirectPRINT_COMPLEX){
    1d26:	12 30       	cpi	r17, 0x02	; 2
    1d28:	d9 f4       	brne	.+54     	; 0x1d60 <_ZN28ImpedanceMultiSensingCircuit22measureAllPrepreparedVE15directPrintMode+0x20a>
			//sendBinaryData(MODE_Complex_Voltage, stim_pattern&0x0F, stim_pattern>>4, i, result_Real, result_Imag);
			sendBinaryData(MODE_Complex_Voltage, analogSwitch_SIG_OUT_NEEDLE->getState() ? NEEDLE : trinityMUX->getSignalMuxChannel(), trinityMUX->getGroundMuxChannel(), i, result_Real, result_Imag);
    1d2a:	02 2d       	mov	r16, r2
    1d2c:	a9 81       	ldd	r26, Y+1	; 0x01
    1d2e:	ba 81       	ldd	r27, Y+2	; 0x02
    1d30:	8d 91       	ld	r24, X+
    1d32:	9c 91       	ld	r25, X
    1d34:	0e 94 eb 13 	call	0x27d6	; 0x27d6 <_ZN13MUX16_CIRCUIT19getGroundMuxChannelEv>
    1d38:	78 2e       	mov	r7, r24
	ioExpander->digitalWrite(pin, LOW != loglow);
	state = LOW;
}

bool imsc_LED::getState(){
	return state;
    1d3a:	af 81       	ldd	r26, Y+7	; 0x07
    1d3c:	b8 85       	ldd	r27, Y+8	; 0x08
    1d3e:	ed 91       	ld	r30, X+
    1d40:	fc 91       	ld	r31, X
			timestamp = micros();
		#endif
		// Send binary Data if requested:
		if(measureAllVolt_directPrint_MODE == DirectPRINT_COMPLEX){
			//sendBinaryData(MODE_Complex_Voltage, stim_pattern&0x0F, stim_pattern>>4, i, result_Real, result_Imag);
			sendBinaryData(MODE_Complex_Voltage, analogSwitch_SIG_OUT_NEEDLE->getState() ? NEEDLE : trinityMUX->getSignalMuxChannel(), trinityMUX->getGroundMuxChannel(), i, result_Real, result_Imag);
    1d42:	84 81       	ldd	r24, Z+4	; 0x04
    1d44:	81 11       	cpse	r24, r1
    1d46:	07 c0       	rjmp	.+14     	; 0x1d56 <_ZN28ImpedanceMultiSensingCircuit22measureAllPrepreparedVE15directPrintMode+0x200>
    1d48:	e9 81       	ldd	r30, Y+1	; 0x01
    1d4a:	fa 81       	ldd	r31, Y+2	; 0x02
    1d4c:	80 81       	ld	r24, Z
    1d4e:	91 81       	ldd	r25, Z+1	; 0x01
    1d50:	0e 94 e8 13 	call	0x27d0	; 0x27d0 <_ZN13MUX16_CIRCUIT19getSignalMuxChannelEv>
    1d54:	01 c0       	rjmp	.+2      	; 0x1d58 <_ZN28ImpedanceMultiSensingCircuit22measureAllPrepreparedVE15directPrintMode+0x202>
    1d56:	80 e1       	ldi	r24, 0x10	; 16
    1d58:	27 2d       	mov	r18, r7
    1d5a:	48 2f       	mov	r20, r24
    1d5c:	62 e0       	ldi	r22, 0x02	; 2
    1d5e:	24 c0       	rjmp	.+72     	; 0x1da8 <_ZN28ImpedanceMultiSensingCircuit22measureAllPrepreparedVE15directPrintMode+0x252>
		}else if (measureAllVolt_directPrint_MODE == DirectPRINT_MAGNITUDE){
    1d60:	11 30       	cpi	r17, 0x01	; 1
    1d62:	31 f5       	brne	.+76     	; 0x1db0 <_ZN28ImpedanceMultiSensingCircuit22measureAllPrepreparedVE15directPrintMode+0x25a>
			sendBinaryData(MODE_Magnitude_of_Voltage, analogSwitch_SIG_OUT_NEEDLE->getState() ? NEEDLE : trinityMUX->getSignalMuxChannel(), trinityMUX->getGroundMuxChannel(), i, magnitude);		
    1d64:	02 2d       	mov	r16, r2
    1d66:	a9 81       	ldd	r26, Y+1	; 0x01
    1d68:	ba 81       	ldd	r27, Y+2	; 0x02
    1d6a:	8d 91       	ld	r24, X+
    1d6c:	9c 91       	ld	r25, X
    1d6e:	0e 94 eb 13 	call	0x27d6	; 0x27d6 <_ZN13MUX16_CIRCUIT19getGroundMuxChannelEv>
    1d72:	89 87       	std	Y+9, r24	; 0x09
	ioExpander->digitalWrite(pin, LOW != loglow);
	state = LOW;
}

bool imsc_LED::getState(){
	return state;
    1d74:	af 81       	ldd	r26, Y+7	; 0x07
    1d76:	b8 85       	ldd	r27, Y+8	; 0x08
    1d78:	ed 91       	ld	r30, X+
    1d7a:	fc 91       	ld	r31, X
		// Send binary Data if requested:
		if(measureAllVolt_directPrint_MODE == DirectPRINT_COMPLEX){
			//sendBinaryData(MODE_Complex_Voltage, stim_pattern&0x0F, stim_pattern>>4, i, result_Real, result_Imag);
			sendBinaryData(MODE_Complex_Voltage, analogSwitch_SIG_OUT_NEEDLE->getState() ? NEEDLE : trinityMUX->getSignalMuxChannel(), trinityMUX->getGroundMuxChannel(), i, result_Real, result_Imag);
		}else if (measureAllVolt_directPrint_MODE == DirectPRINT_MAGNITUDE){
			sendBinaryData(MODE_Magnitude_of_Voltage, analogSwitch_SIG_OUT_NEEDLE->getState() ? NEEDLE : trinityMUX->getSignalMuxChannel(), trinityMUX->getGroundMuxChannel(), i, magnitude);		
    1d7c:	84 81       	ldd	r24, Z+4	; 0x04
    1d7e:	81 11       	cpse	r24, r1
    1d80:	07 c0       	rjmp	.+14     	; 0x1d90 <_ZN28ImpedanceMultiSensingCircuit22measureAllPrepreparedVE15directPrintMode+0x23a>
    1d82:	e9 81       	ldd	r30, Y+1	; 0x01
    1d84:	fa 81       	ldd	r31, Y+2	; 0x02
    1d86:	80 81       	ld	r24, Z
    1d88:	91 81       	ldd	r25, Z+1	; 0x01
    1d8a:	0e 94 e8 13 	call	0x27d0	; 0x27d0 <_ZN13MUX16_CIRCUIT19getSignalMuxChannelEv>
    1d8e:	01 c0       	rjmp	.+2      	; 0x1d92 <_ZN28ImpedanceMultiSensingCircuit22measureAllPrepreparedVE15directPrintMode+0x23c>
    1d90:	80 e1       	ldi	r24, 0x10	; 16
    1d92:	81 2c       	mov	r8, r1
    1d94:	91 2c       	mov	r9, r1
    1d96:	90 ec       	ldi	r25, 0xC0	; 192
    1d98:	a9 2e       	mov	r10, r25
    1d9a:	9f e7       	ldi	r25, 0x7F	; 127
    1d9c:	b9 2e       	mov	r11, r25
    1d9e:	73 01       	movw	r14, r6
    1da0:	62 01       	movw	r12, r4
    1da2:	29 85       	ldd	r18, Y+9	; 0x09
    1da4:	48 2f       	mov	r20, r24
    1da6:	61 e0       	ldi	r22, 0x01	; 1
    1da8:	8d 89       	ldd	r24, Y+21	; 0x15
    1daa:	9e 89       	ldd	r25, Y+22	; 0x16
    1dac:	0e 94 54 07 	call	0xea8	; 0xea8 <_ZN28ImpedanceMultiSensingCircuit14sendBinaryDataEaaaaff>
		unsigned long timeConsumption = 0;
	#endif
	// Measure all electrodes:
	byte optionalNeedleMode = (analogSwitch_SIG_OUT_NEEDLE->getState() ? HIGH<<PIN_MODE_NEEDLE_OUT : LOW);
	writeModesAndLeds( HIGH<<PIN_LED_BLUE | HIGH<<PIN_MODE_V_MEAS_IN | optionalNeedleMode);
	for(int i = 0; i<ELECTRODE_NUMBER+NEEDLE_NUMBER; i++){
    1db0:	ff ef       	ldi	r31, 0xFF	; 255
    1db2:	2f 1a       	sub	r2, r31
    1db4:	3f 0a       	sbc	r3, r31
    1db6:	81 e1       	ldi	r24, 0x11	; 17
    1db8:	28 16       	cp	r2, r24
    1dba:	31 04       	cpc	r3, r1
    1dbc:	59 f0       	breq	.+22     	; 0x1dd4 <_ZN28ImpedanceMultiSensingCircuit22measureAllPrepreparedVE15directPrintMode+0x27e>
		if(i == ELECTRODE_NUMBER){	// Switch to needle-measuring
    1dbe:	f0 e1       	ldi	r31, 0x10	; 16
    1dc0:	2f 16       	cp	r2, r31
    1dc2:	31 04       	cpc	r3, r1
    1dc4:	09 f0       	breq	.+2      	; 0x1dc8 <_ZN28ImpedanceMultiSensingCircuit22measureAllPrepreparedVE15directPrintMode+0x272>
    1dc6:	33 cf       	rjmp	.-410    	; 0x1c2e <_ZN28ImpedanceMultiSensingCircuit22measureAllPrepreparedVE15directPrintMode+0xd8>
			writeModesAndLeds( HIGH<<PIN_LED_BLUE | HIGH<<PIN_MODE_NEEDLE_IN | optionalNeedleMode);
    1dc8:	6c 89       	ldd	r22, Y+20	; 0x14
    1dca:	8d 89       	ldd	r24, Y+21	; 0x15
    1dcc:	9e 89       	ldd	r25, Y+22	; 0x16
    1dce:	0e 94 0c 05 	call	0xa18	; 0xa18 <_ZN28ImpedanceMultiSensingCircuit17writeModesAndLedsEh>
    1dd2:	2d cf       	rjmp	.-422    	; 0x1c2e <_ZN28ImpedanceMultiSensingCircuit22measureAllPrepreparedVE15directPrintMode+0xd8>
			sendBinaryData(MODE_Complex_Voltage, analogSwitch_SIG_OUT_NEEDLE->getState() ? NEEDLE : trinityMUX->getSignalMuxChannel(), trinityMUX->getGroundMuxChannel(), i, result_Real, result_Imag);
		}else if (measureAllVolt_directPrint_MODE == DirectPRINT_MAGNITUDE){
			sendBinaryData(MODE_Magnitude_of_Voltage, analogSwitch_SIG_OUT_NEEDLE->getState() ? NEEDLE : trinityMUX->getSignalMuxChannel(), trinityMUX->getGroundMuxChannel(), i, magnitude);		
		}
	}
}
    1dd4:	66 96       	adiw	r28, 0x16	; 22
    1dd6:	0f b6       	in	r0, 0x3f	; 63
    1dd8:	f8 94       	cli
    1dda:	de bf       	out	0x3e, r29	; 62
    1ddc:	0f be       	out	0x3f, r0	; 63
    1dde:	cd bf       	out	0x3d, r28	; 61
    1de0:	df 91       	pop	r29
    1de2:	cf 91       	pop	r28
    1de4:	1f 91       	pop	r17
    1de6:	0f 91       	pop	r16
    1de8:	ff 90       	pop	r15
    1dea:	ef 90       	pop	r14
    1dec:	df 90       	pop	r13
    1dee:	cf 90       	pop	r12
    1df0:	bf 90       	pop	r11
    1df2:	af 90       	pop	r10
    1df4:	9f 90       	pop	r9
    1df6:	8f 90       	pop	r8
    1df8:	7f 90       	pop	r7
    1dfa:	6f 90       	pop	r6
    1dfc:	5f 90       	pop	r5
    1dfe:	4f 90       	pop	r4
    1e00:	3f 90       	pop	r3
    1e02:	2f 90       	pop	r2
    1e04:	08 95       	ret

00001e06 <_ZN28ImpedanceMultiSensingCircuit18getLeakageImpactVsEv>:
	writeModesAndLeds(HIGH<<PIN_LED_YELLOW);
}


// Refresh leakageCurrentCompensationFactorA [Array] to compensate leakage currents / their impact:
void ImpedanceMultiSensingCircuit::getLeakageImpactVs(){
    1e06:	8f 92       	push	r8
    1e08:	9f 92       	push	r9
    1e0a:	af 92       	push	r10
    1e0c:	bf 92       	push	r11
    1e0e:	ef 92       	push	r14
    1e10:	ff 92       	push	r15
    1e12:	0f 93       	push	r16
    1e14:	1f 93       	push	r17
    1e16:	cf 93       	push	r28
    1e18:	df 93       	push	r29
    1e1a:	ec 01       	movw	r28, r24
	ioExpander->digitalWrite(pin, LOW != loglow);
	state = LOW;
}

bool imsc_LED::getState(){
	return state;
    1e1c:	fc 01       	movw	r30, r24
    1e1e:	e2 50       	subi	r30, 0x02	; 2
    1e20:	ff 4f       	sbci	r31, 0xFF	; 255
    1e22:	01 90       	ld	r0, Z+
    1e24:	f0 81       	ld	r31, Z
    1e26:	e0 2d       	mov	r30, r0


// Refresh leakageCurrentCompensationFactorA [Array] to compensate leakage currents / their impact:
void ImpedanceMultiSensingCircuit::getLeakageImpactVs(){
	// Set Analog Switch:
	byte optionalNeedleMode = (analogSwitch_SIG_OUT_NEEDLE->getState() ? HIGH<<PIN_MODE_NEEDLE_OUT : LOW);
    1e28:	84 81       	ldd	r24, Z+4	; 0x04
    1e2a:	81 11       	cpse	r24, r1
    1e2c:	02 c0       	rjmp	.+4      	; 0x1e32 <_ZN28ImpedanceMultiSensingCircuit18getLeakageImpactVsEv+0x2c>
    1e2e:	10 e0       	ldi	r17, 0x00	; 0
    1e30:	01 c0       	rjmp	.+2      	; 0x1e34 <_ZN28ImpedanceMultiSensingCircuit18getLeakageImpactVsEv+0x2e>
    1e32:	12 e0       	ldi	r17, 0x02	; 2
	writeModesAndLeds( HIGH<<PIN_LED_BLUE | HIGH<<PIN_MODE_V_MEAS_IN | optionalNeedleMode);
    1e34:	61 2f       	mov	r22, r17
    1e36:	68 68       	ori	r22, 0x88	; 136
    1e38:	ce 01       	movw	r24, r28
    1e3a:	0e 94 0c 05 	call	0xa18	; 0xa18 <_ZN28ImpedanceMultiSensingCircuit17writeModesAndLedsEh>
	// Create single high pin stimulation for leakage detection:
	// Prepare Electrodes for correct stimulation:
	trinityMUX->prepareSignalMux((optionalNeedleMode == LOW) ? (stim_pattern & 0x0F) : DISABLE_MUX);
    1e3e:	11 11       	cpse	r17, r1
    1e40:	04 c0       	rjmp	.+8      	; 0x1e4a <_ZN28ImpedanceMultiSensingCircuit18getLeakageImpactVsEv+0x44>
    1e42:	6d 85       	ldd	r22, Y+13	; 0x0d
    1e44:	6f 70       	andi	r22, 0x0F	; 15
    1e46:	70 e0       	ldi	r23, 0x00	; 0
    1e48:	02 c0       	rjmp	.+4      	; 0x1e4e <_ZN28ImpedanceMultiSensingCircuit18getLeakageImpactVsEv+0x48>
    1e4a:	6f ef       	ldi	r22, 0xFF	; 255
    1e4c:	7f ef       	ldi	r23, 0xFF	; 255
    1e4e:	8e 01       	movw	r16, r28
    1e50:	00 51       	subi	r16, 0x10	; 16
    1e52:	1f 4f       	sbci	r17, 0xFF	; 255
    1e54:	f8 01       	movw	r30, r16
    1e56:	80 81       	ld	r24, Z
    1e58:	91 81       	ldd	r25, Z+1	; 0x01
    1e5a:	0e 94 b8 13 	call	0x2770	; 0x2770 <_ZN13MUX16_CIRCUIT16prepareSignalMuxEi>
	trinityMUX->prepareGroundMux(DISABLE_MUX);
    1e5e:	6f ef       	ldi	r22, 0xFF	; 255
    1e60:	7f ef       	ldi	r23, 0xFF	; 255
    1e62:	f8 01       	movw	r30, r16
    1e64:	80 81       	ld	r24, Z
    1e66:	91 81       	ldd	r25, Z+1	; 0x01
    1e68:	0e 94 d8 13 	call	0x27b0	; 0x27b0 <_ZN13MUX16_CIRCUIT16prepareGroundMuxEi>
	// Measure all Voltages :
	measureAllPrepreparedV();
    1e6c:	60 e0       	ldi	r22, 0x00	; 0
    1e6e:	ce 01       	movw	r24, r28
    1e70:	0e 94 ab 0d 	call	0x1b56	; 0x1b56 <_ZN28ImpedanceMultiSensingCircuit22measureAllPrepreparedVE15directPrintMode>
	// Calculate compensation Array to eliminate impact of leakages:
	float maxRefV = tempRawData[stim_pattern & 0x0F];
    1e74:	8d 85       	ldd	r24, Y+13	; 0x0d
    1e76:	8f 70       	andi	r24, 0x0F	; 15
    1e78:	fe 01       	movw	r30, r28
    1e7a:	94 e0       	ldi	r25, 0x04	; 4
    1e7c:	89 9f       	mul	r24, r25
    1e7e:	e0 0d       	add	r30, r0
    1e80:	f1 1d       	adc	r31, r1
    1e82:	11 24       	eor	r1, r1
    1e84:	e8 59       	subi	r30, 0x98	; 152
    1e86:	ff 4f       	sbci	r31, 0xFF	; 255
    1e88:	80 80       	ld	r8, Z
    1e8a:	91 80       	ldd	r9, Z+1	; 0x01
    1e8c:	a2 80       	ldd	r10, Z+2	; 0x02
    1e8e:	b3 80       	ldd	r11, Z+3	; 0x03
    1e90:	08 58       	subi	r16, 0x88	; 136
    1e92:	11 09       	sbc	r17, r1
    1e94:	c4 55       	subi	r28, 0x54	; 84
    1e96:	df 4f       	sbci	r29, 0xFF	; 255
	for (int i = 0; i < ELECTRODE_NUMBER+NEEDLE_NUMBER; i++) {
		leakageCurrentCompensationFactorA[i] = maxRefV / tempRawData[i];
    1e98:	f8 01       	movw	r30, r16
    1e9a:	21 91       	ld	r18, Z+
    1e9c:	31 91       	ld	r19, Z+
    1e9e:	41 91       	ld	r20, Z+
    1ea0:	51 91       	ld	r21, Z+
    1ea2:	8f 01       	movw	r16, r30
    1ea4:	7f 01       	movw	r14, r30
    1ea6:	f0 e4       	ldi	r31, 0x40	; 64
    1ea8:	ef 0e       	add	r14, r31
    1eaa:	f1 1c       	adc	r15, r1
    1eac:	c5 01       	movw	r24, r10
    1eae:	b4 01       	movw	r22, r8
    1eb0:	0e 94 e2 1f 	call	0x3fc4	; 0x3fc4 <__divsf3>
    1eb4:	f7 01       	movw	r30, r14
    1eb6:	60 83       	st	Z, r22
    1eb8:	71 83       	std	Z+1, r23	; 0x01
    1eba:	82 83       	std	Z+2, r24	; 0x02
    1ebc:	93 83       	std	Z+3, r25	; 0x03
	trinityMUX->prepareGroundMux(DISABLE_MUX);
	// Measure all Voltages :
	measureAllPrepreparedV();
	// Calculate compensation Array to eliminate impact of leakages:
	float maxRefV = tempRawData[stim_pattern & 0x0F];
	for (int i = 0; i < ELECTRODE_NUMBER+NEEDLE_NUMBER; i++) {
    1ebe:	0c 17       	cp	r16, r28
    1ec0:	1d 07       	cpc	r17, r29
    1ec2:	51 f7       	brne	.-44     	; 0x1e98 <_ZN28ImpedanceMultiSensingCircuit18getLeakageImpactVsEv+0x92>
		leakageCurrentCompensationFactorA[i] = maxRefV / tempRawData[i];
	}
}
    1ec4:	df 91       	pop	r29
    1ec6:	cf 91       	pop	r28
    1ec8:	1f 91       	pop	r17
    1eca:	0f 91       	pop	r16
    1ecc:	ff 90       	pop	r15
    1ece:	ef 90       	pop	r14
    1ed0:	bf 90       	pop	r11
    1ed2:	af 90       	pop	r10
    1ed4:	9f 90       	pop	r9
    1ed6:	8f 90       	pop	r8
    1ed8:	08 95       	ret

00001eda <_ZN28ImpedanceMultiSensingCircuit14acquireEITdataE15directPrintModebb>:
	trinityMUX->prepareSignalMux(stim_pattern & 0x0F);
	trinityMUX->prepareGroundMux(stim_pattern >> 4);
}

// Acquire data via Stimulation pattern and Measurement pattern:
void ImpedanceMultiSensingCircuit::acquireEITdata(directPrintMode aquireData_directPrint_MODE, bool compensateLeakage, bool measureStimCurrent){
    1eda:	2f 92       	push	r2
    1edc:	3f 92       	push	r3
    1ede:	4f 92       	push	r4
    1ee0:	5f 92       	push	r5
    1ee2:	6f 92       	push	r6
    1ee4:	7f 92       	push	r7
    1ee6:	8f 92       	push	r8
    1ee8:	9f 92       	push	r9
    1eea:	af 92       	push	r10
    1eec:	bf 92       	push	r11
    1eee:	cf 92       	push	r12
    1ef0:	df 92       	push	r13
    1ef2:	ef 92       	push	r14
    1ef4:	ff 92       	push	r15
    1ef6:	0f 93       	push	r16
    1ef8:	1f 93       	push	r17
    1efa:	cf 93       	push	r28
    1efc:	df 93       	push	r29
    1efe:	cd b7       	in	r28, 0x3d	; 61
    1f00:	de b7       	in	r29, 0x3e	; 62
    1f02:	29 97       	sbiw	r28, 0x09	; 9
    1f04:	0f b6       	in	r0, 0x3f	; 63
    1f06:	f8 94       	cli
    1f08:	de bf       	out	0x3e, r29	; 62
    1f0a:	0f be       	out	0x3f, r0	; 63
    1f0c:	cd bf       	out	0x3d, r28	; 61
    1f0e:	99 87       	std	Y+9, r25	; 0x09
    1f10:	88 87       	std	Y+8, r24	; 0x08
    1f12:	6d 83       	std	Y+5, r22	; 0x05
    1f14:	14 2f       	mov	r17, r20
    1f16:	02 2f       	mov	r16, r18
	// Start Measurement:
	beginMeasure();
    1f18:	0e 94 49 06 	call	0xc92	; 0xc92 <_ZN28ImpedanceMultiSensingCircuit12beginMeasureEv>
	// Set Analog Switch:
	writeModesAndLeds(HIGH<<PIN_LED_BLUE | HIGH<<PIN_MODE_V_MEAS_IN);
    1f1c:	68 e8       	ldi	r22, 0x88	; 136
    1f1e:	88 85       	ldd	r24, Y+8	; 0x08
    1f20:	99 85       	ldd	r25, Y+9	; 0x09
    1f22:	0e 94 0c 05 	call	0xa18	; 0xa18 <_ZN28ImpedanceMultiSensingCircuit17writeModesAndLedsEh>
	// Leakage detention:
	if(compensateLeakage){ getLeakageImpactVs(); }
    1f26:	11 23       	and	r17, r17
    1f28:	21 f0       	breq	.+8      	; 0x1f32 <_ZN28ImpedanceMultiSensingCircuit14acquireEITdataE15directPrintModebb+0x58>
    1f2a:	88 85       	ldd	r24, Y+8	; 0x08
    1f2c:	99 85       	ldd	r25, Y+9	; 0x09
    1f2e:	0e 94 03 0f 	call	0x1e06	; 0x1e06 <_ZN28ImpedanceMultiSensingCircuit18getLeakageImpactVsEv>
	// Prepare Electrodes for correct stimulation:
	prepareStimulation();
    1f32:	88 85       	ldd	r24, Y+8	; 0x08
    1f34:	99 85       	ldd	r25, Y+9	; 0x09
    1f36:	0e 94 01 07 	call	0xe02	; 0xe02 <_ZN28ImpedanceMultiSensingCircuit18prepareStimulationEv>
	// Measure all Voltages:
	measureAllPrepreparedV();
    1f3a:	60 e0       	ldi	r22, 0x00	; 0
    1f3c:	88 85       	ldd	r24, Y+8	; 0x08
    1f3e:	99 85       	ldd	r25, Y+9	; 0x09
    1f40:	0e 94 ab 0d 	call	0x1b56	; 0x1b56 <_ZN28ImpedanceMultiSensingCircuit22measureAllPrepreparedVE15directPrintMode>
	// Leakage correction:
	if(compensateLeakage){ correctLeakingDataVs(); }
    1f44:	11 23       	and	r17, r17
    1f46:	21 f0       	breq	.+8      	; 0x1f50 <_ZN28ImpedanceMultiSensingCircuit14acquireEITdataE15directPrintModebb+0x76>
    1f48:	88 85       	ldd	r24, Y+8	; 0x08
    1f4a:	99 85       	ldd	r25, Y+9	; 0x09
    1f4c:	0e 94 21 07 	call	0xe42	; 0xe42 <_ZN28ImpedanceMultiSensingCircuit20correctLeakingDataVsEv>
    1f50:	e8 85       	ldd	r30, Y+8	; 0x08
    1f52:	f9 85       	ldd	r31, Y+9	; 0x09
    1f54:	65 85       	ldd	r22, Z+13	; 0x0d
    1f56:	ec 59       	subi	r30, 0x9C	; 156
    1f58:	ff 4f       	sbci	r31, 0xFF	; 255
    1f5a:	2f 01       	movw	r4, r30
	if(measureStimCurrent){ // Measure Stimulation Current via Stimulation Resistance
    1f5c:	00 23       	and	r16, r16
    1f5e:	e1 f0       	breq	.+56     	; 0x1f98 <_ZN28ImpedanceMultiSensingCircuit14acquireEITdataE15directPrintModebb+0xbe>
		float stimulationResistance = measureImpedance(stim_pattern & 0x0F, stim_pattern>>4);
    1f60:	46 2f       	mov	r20, r22
    1f62:	50 e0       	ldi	r21, 0x00	; 0
    1f64:	74 e0       	ldi	r23, 0x04	; 4
    1f66:	55 95       	asr	r21
    1f68:	47 95       	ror	r20
    1f6a:	7a 95       	dec	r23
    1f6c:	e1 f7       	brne	.-8      	; 0x1f66 <_ZN28ImpedanceMultiSensingCircuit14acquireEITdataE15directPrintModebb+0x8c>
    1f6e:	6f 70       	andi	r22, 0x0F	; 15
    1f70:	20 e0       	ldi	r18, 0x00	; 0
    1f72:	88 85       	ldd	r24, Y+8	; 0x08
    1f74:	99 85       	ldd	r25, Y+9	; 0x09
    1f76:	0e 94 ba 07 	call	0xf74	; 0xf74 <_ZN28ImpedanceMultiSensingCircuit16measureImpedanceEaa15directPrintMode>
		lastMeasuredStimCurrent = (SIGNAL_VPP/2)/(stimulationResistance-SHUNT_RESIST);
    1f7a:	20 e0       	ldi	r18, 0x00	; 0
    1f7c:	30 e0       	ldi	r19, 0x00	; 0
    1f7e:	4b ee       	ldi	r20, 0xEB	; 235
    1f80:	53 e4       	ldi	r21, 0x43	; 67
    1f82:	0e 94 70 1f 	call	0x3ee0	; 0x3ee0 <__subsf3>
    1f86:	9b 01       	movw	r18, r22
    1f88:	ac 01       	movw	r20, r24
    1f8a:	64 ea       	ldi	r22, 0xA4	; 164
    1f8c:	70 e7       	ldi	r23, 0x70	; 112
    1f8e:	8d e7       	ldi	r24, 0x7D	; 125
    1f90:	9f e3       	ldi	r25, 0x3F	; 63
    1f92:	0e 94 e2 1f 	call	0x3fc4	; 0x3fc4 <__divsf3>
    1f96:	2f c0       	rjmp	.+94     	; 0x1ff6 <_ZN28ImpedanceMultiSensingCircuit14acquireEITdataE15directPrintModebb+0x11c>
	}
	else{ // Calculate Stimulation Current via Shunt-Resistor:
		// Voltage at Shunt-Resistor:
		float uShunt = tempRawData[stim_pattern>>4];     // Voltage across Shunt-Resistance#ifdef DEBUG_MODE
    1f98:	e6 2f       	mov	r30, r22
    1f9a:	f0 e0       	ldi	r31, 0x00	; 0
    1f9c:	44 e0       	ldi	r20, 0x04	; 4
    1f9e:	f5 95       	asr	r31
    1fa0:	e7 95       	ror	r30
    1fa2:	4a 95       	dec	r20
    1fa4:	e1 f7       	brne	.-8      	; 0x1f9e <_ZN28ImpedanceMultiSensingCircuit14acquireEITdataE15directPrintModebb+0xc4>
    1fa6:	7a 96       	adiw	r30, 0x1a	; 26
    1fa8:	ee 0f       	add	r30, r30
    1faa:	ff 1f       	adc	r31, r31
    1fac:	ee 0f       	add	r30, r30
    1fae:	ff 1f       	adc	r31, r31
    1fb0:	88 85       	ldd	r24, Y+8	; 0x08
    1fb2:	99 85       	ldd	r25, Y+9	; 0x09
    1fb4:	e8 0f       	add	r30, r24
    1fb6:	f9 1f       	adc	r31, r25
		#ifdef DEBUG_MODE
			Serial.print("uShunt = ");Serial.println(uShunt);
		#endif
		// Consequent Stimulation-Current [mA]:
		lastMeasuredStimCurrent = (uShunt/maxMeasuredDFT*(SIGNAL_VPP/2)/SHUNT_RESIST) * 1000;
    1fb8:	dc 01       	movw	r26, r24
    1fba:	a9 5a       	subi	r26, 0xA9	; 169
    1fbc:	bf 4f       	sbci	r27, 0xFF	; 255
    1fbe:	2d 91       	ld	r18, X+
    1fc0:	3d 91       	ld	r19, X+
    1fc2:	4d 91       	ld	r20, X+
    1fc4:	5c 91       	ld	r21, X
    1fc6:	60 81       	ld	r22, Z
    1fc8:	71 81       	ldd	r23, Z+1	; 0x01
    1fca:	82 81       	ldd	r24, Z+2	; 0x02
    1fcc:	93 81       	ldd	r25, Z+3	; 0x03
    1fce:	0e 94 e2 1f 	call	0x3fc4	; 0x3fc4 <__divsf3>
    1fd2:	24 ea       	ldi	r18, 0xA4	; 164
    1fd4:	30 e7       	ldi	r19, 0x70	; 112
    1fd6:	4d e7       	ldi	r20, 0x7D	; 125
    1fd8:	5f e3       	ldi	r21, 0x3F	; 63
    1fda:	0e 94 3c 21 	call	0x4278	; 0x4278 <__mulsf3>
    1fde:	20 e0       	ldi	r18, 0x00	; 0
    1fe0:	30 e0       	ldi	r19, 0x00	; 0
    1fe2:	4b ee       	ldi	r20, 0xEB	; 235
    1fe4:	53 e4       	ldi	r21, 0x43	; 67
    1fe6:	0e 94 e2 1f 	call	0x3fc4	; 0x3fc4 <__divsf3>
    1fea:	20 e0       	ldi	r18, 0x00	; 0
    1fec:	30 e0       	ldi	r19, 0x00	; 0
    1fee:	4a e7       	ldi	r20, 0x7A	; 122
    1ff0:	54 e4       	ldi	r21, 0x44	; 68
    1ff2:	0e 94 3c 21 	call	0x4278	; 0x4278 <__mulsf3>
    1ff6:	f2 01       	movw	r30, r4
    1ff8:	60 83       	st	Z, r22
    1ffa:	71 83       	std	Z+1, r23	; 0x01
    1ffc:	82 83       	std	Z+2, r24	; 0x02
    1ffe:	93 83       	std	Z+3, r25	; 0x03
    2000:	88 85       	ldd	r24, Y+8	; 0x08
    2002:	99 85       	ldd	r25, Y+9	; 0x09
    2004:	9a 83       	std	Y+2, r25	; 0x02
    2006:	89 83       	std	Y+1, r24	; 0x01
    2008:	3c 01       	movw	r6, r24
    200a:	9f e0       	ldi	r25, 0x0F	; 15
    200c:	69 0e       	add	r6, r25
    200e:	71 1c       	adc	r7, r1
    2010:	e8 85       	ldd	r30, Y+8	; 0x08
    2012:	f9 85       	ldd	r31, Y+9	; 0x09
    2014:	ed 5b       	subi	r30, 0xBD	; 189
    2016:	ff 4f       	sbci	r31, 0xFF	; 255
    2018:	fc 83       	std	Y+4, r31	; 0x04
    201a:	eb 83       	std	Y+3, r30	; 0x03
		Serial.print("iStimWanted = ");Serial.println(stim_current);
		Serial.print("lastMeasuredStimCurrent = ");Serial.println(lastMeasuredStimCurrent, 10);
		Serial.print("( gain_U ) * iStimWanted / lastMeasuredStimCurrent = ");Serial.println(( gain_U ) * ((float)stim_current) / lastMeasuredStimCurrent,6);
	#endif
	for (int i = 0; i<MEASURE_NUMBER_PER_STIMULATION; i++){
		resultVsEIT[i] = (tempRawData[meas_pattern[i] & 0x0F] - tempRawData[meas_pattern[i]>>4]) * gain_U  * ((float)stim_current) / lastMeasuredStimCurrent;
    201c:	88 85       	ldd	r24, Y+8	; 0x08
    201e:	99 85       	ldd	r25, Y+9	; 0x09
    2020:	85 5a       	subi	r24, 0xA5	; 165
    2022:	9f 4f       	sbci	r25, 0xFF	; 255
    2024:	9f 83       	std	Y+7, r25	; 0x07
    2026:	8e 83       	std	Y+6, r24	; 0x06
		if(aquireData_directPrint_MODE == DirectPRINT_MAGNITUDE){
			sendBinaryData(MODE_Magnitude_EIT_Data, trinityMUX->getSignalMuxChannel(), trinityMUX->getGroundMuxChannel(), meas_pattern[i], resultVsEIT[i]);
    2028:	28 84       	ldd	r2, Y+8	; 0x08
    202a:	39 84       	ldd	r3, Y+9	; 0x09
    202c:	90 ef       	ldi	r25, 0xF0	; 240
    202e:	29 0e       	add	r2, r25
    2030:	31 1c       	adc	r3, r1
		Serial.print("iStimWanted = ");Serial.println(stim_current);
		Serial.print("lastMeasuredStimCurrent = ");Serial.println(lastMeasuredStimCurrent, 10);
		Serial.print("( gain_U ) * iStimWanted / lastMeasuredStimCurrent = ");Serial.println(( gain_U ) * ((float)stim_current) / lastMeasuredStimCurrent,6);
	#endif
	for (int i = 0; i<MEASURE_NUMBER_PER_STIMULATION; i++){
		resultVsEIT[i] = (tempRawData[meas_pattern[i] & 0x0F] - tempRawData[meas_pattern[i]>>4]) * gain_U  * ((float)stim_current) / lastMeasuredStimCurrent;
    2032:	e9 81       	ldd	r30, Y+1	; 0x01
    2034:	fa 81       	ldd	r31, Y+2	; 0x02
    2036:	01 91       	ld	r16, Z+
    2038:	fa 83       	std	Y+2, r31	; 0x02
    203a:	e9 83       	std	Y+1, r30	; 0x01
    203c:	80 2f       	mov	r24, r16
    203e:	8f 70       	andi	r24, 0x0F	; 15
    2040:	e8 85       	ldd	r30, Y+8	; 0x08
    2042:	f9 85       	ldd	r31, Y+9	; 0x09
    2044:	94 e0       	ldi	r25, 0x04	; 4
    2046:	89 9f       	mul	r24, r25
    2048:	e0 0d       	add	r30, r0
    204a:	f1 1d       	adc	r31, r1
    204c:	11 24       	eor	r1, r1
    204e:	e8 59       	subi	r30, 0x98	; 152
    2050:	ff 4f       	sbci	r31, 0xFF	; 255
    2052:	a0 2f       	mov	r26, r16
    2054:	b0 e0       	ldi	r27, 0x00	; 0
    2056:	24 e0       	ldi	r18, 0x04	; 4
    2058:	b5 95       	asr	r27
    205a:	a7 95       	ror	r26
    205c:	2a 95       	dec	r18
    205e:	e1 f7       	brne	.-8      	; 0x2058 <_ZN28ImpedanceMultiSensingCircuit14acquireEITdataE15directPrintModebb+0x17e>
    2060:	5a 96       	adiw	r26, 0x1a	; 26
    2062:	aa 0f       	add	r26, r26
    2064:	bb 1f       	adc	r27, r27
    2066:	aa 0f       	add	r26, r26
    2068:	bb 1f       	adc	r27, r27
    206a:	88 85       	ldd	r24, Y+8	; 0x08
    206c:	99 85       	ldd	r25, Y+9	; 0x09
    206e:	a8 0f       	add	r26, r24
    2070:	b9 1f       	adc	r27, r25
    2072:	2d 91       	ld	r18, X+
    2074:	3d 91       	ld	r19, X+
    2076:	4d 91       	ld	r20, X+
    2078:	5c 91       	ld	r21, X
    207a:	60 81       	ld	r22, Z
    207c:	71 81       	ldd	r23, Z+1	; 0x01
    207e:	82 81       	ldd	r24, Z+2	; 0x02
    2080:	93 81       	ldd	r25, Z+3	; 0x03
    2082:	0e 94 70 1f 	call	0x3ee0	; 0x3ee0 <__subsf3>
    2086:	ee 81       	ldd	r30, Y+6	; 0x06
    2088:	ff 81       	ldd	r31, Y+7	; 0x07
    208a:	20 81       	ld	r18, Z
    208c:	31 81       	ldd	r19, Z+1	; 0x01
    208e:	42 81       	ldd	r20, Z+2	; 0x02
    2090:	53 81       	ldd	r21, Z+3	; 0x03
    2092:	0e 94 3c 21 	call	0x4278	; 0x4278 <__mulsf3>
    2096:	6b 01       	movw	r12, r22
    2098:	7c 01       	movw	r14, r24
    209a:	e8 85       	ldd	r30, Y+8	; 0x08
    209c:	f9 85       	ldd	r31, Y+9	; 0x09
    209e:	66 85       	ldd	r22, Z+14	; 0x0e
    20a0:	70 e0       	ldi	r23, 0x00	; 0
    20a2:	80 e0       	ldi	r24, 0x00	; 0
    20a4:	90 e0       	ldi	r25, 0x00	; 0
    20a6:	0e 94 8a 20 	call	0x4114	; 0x4114 <__floatunsisf>
    20aa:	9b 01       	movw	r18, r22
    20ac:	ac 01       	movw	r20, r24
    20ae:	c7 01       	movw	r24, r14
    20b0:	b6 01       	movw	r22, r12
    20b2:	0e 94 3c 21 	call	0x4278	; 0x4278 <__mulsf3>
    20b6:	f2 01       	movw	r30, r4
    20b8:	20 81       	ld	r18, Z
    20ba:	31 81       	ldd	r19, Z+1	; 0x01
    20bc:	42 81       	ldd	r20, Z+2	; 0x02
    20be:	53 81       	ldd	r21, Z+3	; 0x03
    20c0:	0e 94 e2 1f 	call	0x3fc4	; 0x3fc4 <__divsf3>
    20c4:	6b 01       	movw	r12, r22
    20c6:	7c 01       	movw	r14, r24
    20c8:	f3 01       	movw	r30, r6
    20ca:	61 93       	st	Z+, r22
    20cc:	71 93       	st	Z+, r23
    20ce:	81 93       	st	Z+, r24
    20d0:	91 93       	st	Z+, r25
    20d2:	3f 01       	movw	r6, r30
		if(aquireData_directPrint_MODE == DirectPRINT_MAGNITUDE){
    20d4:	fd 81       	ldd	r31, Y+5	; 0x05
    20d6:	f1 30       	cpi	r31, 0x01	; 1
    20d8:	c1 f4       	brne	.+48     	; 0x210a <_ZN28ImpedanceMultiSensingCircuit14acquireEITdataE15directPrintModebb+0x230>
			sendBinaryData(MODE_Magnitude_EIT_Data, trinityMUX->getSignalMuxChannel(), trinityMUX->getGroundMuxChannel(), meas_pattern[i], resultVsEIT[i]);
    20da:	f1 01       	movw	r30, r2
    20dc:	80 81       	ld	r24, Z
    20de:	91 81       	ldd	r25, Z+1	; 0x01
    20e0:	0e 94 eb 13 	call	0x27d6	; 0x27d6 <_ZN13MUX16_CIRCUIT19getGroundMuxChannelEv>
    20e4:	18 2f       	mov	r17, r24
    20e6:	f1 01       	movw	r30, r2
    20e8:	80 81       	ld	r24, Z
    20ea:	91 81       	ldd	r25, Z+1	; 0x01
    20ec:	0e 94 e8 13 	call	0x27d0	; 0x27d0 <_ZN13MUX16_CIRCUIT19getSignalMuxChannelEv>
    20f0:	81 2c       	mov	r8, r1
    20f2:	91 2c       	mov	r9, r1
    20f4:	90 ec       	ldi	r25, 0xC0	; 192
    20f6:	a9 2e       	mov	r10, r25
    20f8:	9f e7       	ldi	r25, 0x7F	; 127
    20fa:	b9 2e       	mov	r11, r25
    20fc:	21 2f       	mov	r18, r17
    20fe:	48 2f       	mov	r20, r24
    2100:	67 e0       	ldi	r22, 0x07	; 7
    2102:	88 85       	ldd	r24, Y+8	; 0x08
    2104:	99 85       	ldd	r25, Y+9	; 0x09
    2106:	0e 94 54 07 	call	0xea8	; 0xea8 <_ZN28ImpedanceMultiSensingCircuit14sendBinaryDataEaaaaff>
		Serial.print("gain_U = ");Serial.println(gain_U, 10);
		Serial.print("iStimWanted = ");Serial.println(stim_current);
		Serial.print("lastMeasuredStimCurrent = ");Serial.println(lastMeasuredStimCurrent, 10);
		Serial.print("( gain_U ) * iStimWanted / lastMeasuredStimCurrent = ");Serial.println(( gain_U ) * ((float)stim_current) / lastMeasuredStimCurrent,6);
	#endif
	for (int i = 0; i<MEASURE_NUMBER_PER_STIMULATION; i++){
    210a:	8b 81       	ldd	r24, Y+3	; 0x03
    210c:	9c 81       	ldd	r25, Y+4	; 0x04
    210e:	86 15       	cp	r24, r6
    2110:	97 05       	cpc	r25, r7
    2112:	09 f0       	breq	.+2      	; 0x2116 <_ZN28ImpedanceMultiSensingCircuit14acquireEITdataE15directPrintModebb+0x23c>
    2114:	8e cf       	rjmp	.-228    	; 0x2032 <_ZN28ImpedanceMultiSensingCircuit14acquireEITdataE15directPrintModebb+0x158>
			sendBinaryData(MODE_Magnitude_EIT_Data, trinityMUX->getSignalMuxChannel(), trinityMUX->getGroundMuxChannel(), meas_pattern[i], resultVsEIT[i]);
		}
		//Serial.print("resultVsEIT["); Serial.print(i); Serial.print("] = (tempRawData["); Serial.print(meas_pattern[i] & 0x0F); Serial.print("] - tempRawData[");Serial.print(meas_pattern[i]>>4); Serial.print("]) * "); Serial.println(gain_U  * ((float)stim_current) / lastMeasuredStimCurrent);
		//Serial.print("resultVsEIT["); Serial.print(i); Serial.print("] = ("); Serial.print(tempRawData[meas_pattern[i] & 0x0F]); Serial.print(" - ");Serial.print(tempRawData[meas_pattern[i]>>4]); Serial.print(") * "); Serial.println(gain_U  * ((float)stim_current) / lastMeasuredStimCurrent);
	}
	writeModesAndLeds(HIGH<<PIN_LED_YELLOW);
    2116:	60 e2       	ldi	r22, 0x20	; 32
    2118:	88 85       	ldd	r24, Y+8	; 0x08
    211a:	99 85       	ldd	r25, Y+9	; 0x09
}
    211c:	29 96       	adiw	r28, 0x09	; 9
    211e:	0f b6       	in	r0, 0x3f	; 63
    2120:	f8 94       	cli
    2122:	de bf       	out	0x3e, r29	; 62
    2124:	0f be       	out	0x3f, r0	; 63
    2126:	cd bf       	out	0x3d, r28	; 61
    2128:	df 91       	pop	r29
    212a:	cf 91       	pop	r28
    212c:	1f 91       	pop	r17
    212e:	0f 91       	pop	r16
    2130:	ff 90       	pop	r15
    2132:	ef 90       	pop	r14
    2134:	df 90       	pop	r13
    2136:	cf 90       	pop	r12
    2138:	bf 90       	pop	r11
    213a:	af 90       	pop	r10
    213c:	9f 90       	pop	r9
    213e:	8f 90       	pop	r8
    2140:	7f 90       	pop	r7
    2142:	6f 90       	pop	r6
    2144:	5f 90       	pop	r5
    2146:	4f 90       	pop	r4
    2148:	3f 90       	pop	r3
    214a:	2f 90       	pop	r2
			sendBinaryData(MODE_Magnitude_EIT_Data, trinityMUX->getSignalMuxChannel(), trinityMUX->getGroundMuxChannel(), meas_pattern[i], resultVsEIT[i]);
		}
		//Serial.print("resultVsEIT["); Serial.print(i); Serial.print("] = (tempRawData["); Serial.print(meas_pattern[i] & 0x0F); Serial.print("] - tempRawData[");Serial.print(meas_pattern[i]>>4); Serial.print("]) * "); Serial.println(gain_U  * ((float)stim_current) / lastMeasuredStimCurrent);
		//Serial.print("resultVsEIT["); Serial.print(i); Serial.print("] = ("); Serial.print(tempRawData[meas_pattern[i] & 0x0F]); Serial.print(" - ");Serial.print(tempRawData[meas_pattern[i]>>4]); Serial.print(") * "); Serial.println(gain_U  * ((float)stim_current) / lastMeasuredStimCurrent);
	}
	writeModesAndLeds(HIGH<<PIN_LED_YELLOW);
    214c:	0c 94 0c 05 	jmp	0xa18	; 0xa18 <_ZN28ImpedanceMultiSensingCircuit17writeModesAndLedsEh>

00002150 <_ZL8wiresendh>:

/**
 * Initializes the default MCP23017, with 000 for the configurable part of the
 * address
 */
int8_t MCP23017::begin(void) { return begin(0); }
    2150:	68 2f       	mov	r22, r24
    2152:	8b ef       	ldi	r24, 0xFB	; 251
    2154:	91 e0       	ldi	r25, 0x01	; 1
    2156:	0c 94 fd 2b 	jmp	0x57fa	; 0x57fa <_ZN7TwoWire5writeEh>

0000215a <_ZN8MCP2301713writeRegisterEhh>:
    215a:	cf 93       	push	r28
    215c:	df 93       	push	r29
    215e:	fc 01       	movw	r30, r24
    2160:	62 31       	cpi	r22, 0x12	; 18
    2162:	29 f4       	brne	.+10     	; 0x216e <_ZN8MCP2301713writeRegisterEhh+0x14>
    2164:	81 81       	ldd	r24, Z+1	; 0x01
    2166:	84 17       	cp	r24, r20
    2168:	e9 f0       	breq	.+58     	; 0x21a4 <_ZN8MCP2301713writeRegisterEhh+0x4a>
    216a:	41 83       	std	Z+1, r20	; 0x01
    216c:	06 c0       	rjmp	.+12     	; 0x217a <_ZN8MCP2301713writeRegisterEhh+0x20>
    216e:	63 31       	cpi	r22, 0x13	; 19
    2170:	21 f4       	brne	.+8      	; 0x217a <_ZN8MCP2301713writeRegisterEhh+0x20>
    2172:	82 81       	ldd	r24, Z+2	; 0x02
    2174:	48 17       	cp	r20, r24
    2176:	b1 f0       	breq	.+44     	; 0x21a4 <_ZN8MCP2301713writeRegisterEhh+0x4a>
    2178:	42 83       	std	Z+2, r20	; 0x02
    217a:	c4 2f       	mov	r28, r20
    217c:	d6 2f       	mov	r29, r22
    217e:	60 81       	ld	r22, Z
    2180:	60 62       	ori	r22, 0x20	; 32
    2182:	70 e0       	ldi	r23, 0x00	; 0
    2184:	8b ef       	ldi	r24, 0xFB	; 251
    2186:	91 e0       	ldi	r25, 0x01	; 1
    2188:	0e 94 5c 2c 	call	0x58b8	; 0x58b8 <_ZN7TwoWire17beginTransmissionEi>
    218c:	8d 2f       	mov	r24, r29
    218e:	0e 94 a8 10 	call	0x2150	; 0x2150 <_ZL8wiresendh>
    2192:	8c 2f       	mov	r24, r28
    2194:	0e 94 a8 10 	call	0x2150	; 0x2150 <_ZL8wiresendh>
    2198:	8b ef       	ldi	r24, 0xFB	; 251
    219a:	91 e0       	ldi	r25, 0x01	; 1
    219c:	df 91       	pop	r29
    219e:	cf 91       	pop	r28
    21a0:	0c 94 d8 2c 	jmp	0x59b0	; 0x59b0 <_ZN7TwoWire15endTransmissionEv>
    21a4:	df 91       	pop	r29
    21a6:	cf 91       	pop	r28
    21a8:	08 95       	ret

000021aa <_ZN8MCP230175beginEh>:
    21aa:	cf 93       	push	r28
    21ac:	df 93       	push	r29
    21ae:	ec 01       	movw	r28, r24
    21b0:	68 30       	cpi	r22, 0x08	; 8
    21b2:	08 f0       	brcs	.+2      	; 0x21b6 <_ZN8MCP230175beginEh+0xc>
    21b4:	67 e0       	ldi	r22, 0x07	; 7
    21b6:	68 83       	st	Y, r22
    21b8:	8b ef       	ldi	r24, 0xFB	; 251
    21ba:	91 e0       	ldi	r25, 0x01	; 1
    21bc:	0e 94 3c 2c 	call	0x5878	; 0x5878 <_ZN7TwoWire5beginEv>
    21c0:	68 81       	ld	r22, Y
    21c2:	60 62       	ori	r22, 0x20	; 32
    21c4:	70 e0       	ldi	r23, 0x00	; 0
    21c6:	8b ef       	ldi	r24, 0xFB	; 251
    21c8:	91 e0       	ldi	r25, 0x01	; 1
    21ca:	0e 94 5c 2c 	call	0x58b8	; 0x58b8 <_ZN7TwoWire17beginTransmissionEi>
    21ce:	8b ef       	ldi	r24, 0xFB	; 251
    21d0:	91 e0       	ldi	r25, 0x01	; 1
    21d2:	0e 94 d8 2c 	call	0x59b0	; 0x59b0 <_ZN7TwoWire15endTransmissionEv>
    21d6:	88 23       	and	r24, r24
    21d8:	89 f0       	breq	.+34     	; 0x21fc <_ZN8MCP230175beginEh+0x52>
    21da:	69 e4       	ldi	r22, 0x49	; 73
    21dc:	71 e0       	ldi	r23, 0x01	; 1
    21de:	87 e9       	ldi	r24, 0x97	; 151
    21e0:	91 e0       	ldi	r25, 0x01	; 1
    21e2:	0e 94 76 23 	call	0x46ec	; 0x46ec <_ZN5Print5printEPKc>
    21e6:	68 81       	ld	r22, Y
    21e8:	60 62       	ori	r22, 0x20	; 32
    21ea:	70 e0       	ldi	r23, 0x00	; 0
    21ec:	4a e0       	ldi	r20, 0x0A	; 10
    21ee:	50 e0       	ldi	r21, 0x00	; 0
    21f0:	87 e9       	ldi	r24, 0x97	; 151
    21f2:	91 e0       	ldi	r25, 0x01	; 1
    21f4:	0e 94 59 24 	call	0x48b2	; 0x48b2 <_ZN5Print7printlnEii>
    21f8:	81 e0       	ldi	r24, 0x01	; 1
    21fa:	17 c0       	rjmp	.+46     	; 0x222a <_ZN8MCP230175beginEh+0x80>
    21fc:	4f ef       	ldi	r20, 0xFF	; 255
    21fe:	60 e0       	ldi	r22, 0x00	; 0
    2200:	ce 01       	movw	r24, r28
    2202:	0e 94 ad 10 	call	0x215a	; 0x215a <_ZN8MCP2301713writeRegisterEhh>
    2206:	4f ef       	ldi	r20, 0xFF	; 255
    2208:	61 e0       	ldi	r22, 0x01	; 1
    220a:	ce 01       	movw	r24, r28
    220c:	0e 94 ad 10 	call	0x215a	; 0x215a <_ZN8MCP2301713writeRegisterEhh>
    2210:	40 e0       	ldi	r20, 0x00	; 0
    2212:	62 e1       	ldi	r22, 0x12	; 18
    2214:	ce 01       	movw	r24, r28
    2216:	0e 94 ad 10 	call	0x215a	; 0x215a <_ZN8MCP2301713writeRegisterEhh>
    221a:	40 e0       	ldi	r20, 0x00	; 0
    221c:	63 e1       	ldi	r22, 0x13	; 19
    221e:	ce 01       	movw	r24, r28
    2220:	0e 94 ad 10 	call	0x215a	; 0x215a <_ZN8MCP2301713writeRegisterEhh>
    2224:	19 82       	std	Y+1, r1	; 0x01
    2226:	1a 82       	std	Y+2, r1	; 0x02
    2228:	80 e0       	ldi	r24, 0x00	; 0
    222a:	df 91       	pop	r29
    222c:	cf 91       	pop	r28
    222e:	08 95       	ret

00002230 <_ZN8MCP2301712digitalWriteEhh>:
/*!
 * @brief Writes to a pin on the MCP23017
 * @param pin Pin to write to
 * @param d What to write to the pin
 */
void MCP23017::digitalWrite(uint8_t pin, uint8_t d) {
    2230:	0f 93       	push	r16
    2232:	1f 93       	push	r17
    2234:	cf 93       	push	r28
    2236:	df 93       	push	r29
    2238:	36 2f       	mov	r19, r22
}

/**
 * Bit number associated to a give Pin
 */
uint8_t MCP23017::bitForPin(uint8_t pin) { return pin % 8; }
    223a:	e6 2f       	mov	r30, r22
    223c:	e7 70       	andi	r30, 0x07	; 7
 */
void MCP23017::digitalWrite(uint8_t pin, uint8_t d) {
  // Bit in GPOX for pin-number:
  uint8_t bit = bitForPin(pin);
  // read the current GPIO output latches out of storage, not out of chip:
  uint8_t gpio = (pin < 8) ? GPOA_state : GPOB_state;
    223e:	dc 01       	movw	r26, r24
    2240:	68 30       	cpi	r22, 0x08	; 8
    2242:	18 f4       	brcc	.+6      	; 0x224a <_ZN8MCP2301712digitalWriteEhh+0x1a>
    2244:	11 96       	adiw	r26, 0x01	; 1
    2246:	2c 91       	ld	r18, X
    2248:	02 c0       	rjmp	.+4      	; 0x224e <_ZN8MCP2301712digitalWriteEhh+0x1e>
    224a:	12 96       	adiw	r26, 0x02	; 2
    224c:	2c 91       	ld	r18, X
  uint8_t gpio_ = gpio;
  // set the pin:
  bitWrite(gpio, bit, d);
    224e:	44 23       	and	r20, r20
    2250:	71 f0       	breq	.+28     	; 0x226e <_ZN8MCP2301712digitalWriteEhh+0x3e>
    2252:	41 e0       	ldi	r20, 0x01	; 1
    2254:	50 e0       	ldi	r21, 0x00	; 0
    2256:	60 e0       	ldi	r22, 0x00	; 0
    2258:	70 e0       	ldi	r23, 0x00	; 0
    225a:	04 c0       	rjmp	.+8      	; 0x2264 <_ZN8MCP2301712digitalWriteEhh+0x34>
    225c:	44 0f       	add	r20, r20
    225e:	55 1f       	adc	r21, r21
    2260:	66 1f       	adc	r22, r22
    2262:	77 1f       	adc	r23, r23
    2264:	ea 95       	dec	r30
    2266:	d2 f7       	brpl	.-12     	; 0x225c <_ZN8MCP2301712digitalWriteEhh+0x2c>
    2268:	c2 2f       	mov	r28, r18
    226a:	c4 2b       	or	r28, r20
    226c:	0e c0       	rjmp	.+28     	; 0x228a <_ZN8MCP2301712digitalWriteEhh+0x5a>
    226e:	41 e0       	ldi	r20, 0x01	; 1
    2270:	50 e0       	ldi	r21, 0x00	; 0
    2272:	60 e0       	ldi	r22, 0x00	; 0
    2274:	70 e0       	ldi	r23, 0x00	; 0
    2276:	04 c0       	rjmp	.+8      	; 0x2280 <_ZN8MCP2301712digitalWriteEhh+0x50>
    2278:	44 0f       	add	r20, r20
    227a:	55 1f       	adc	r21, r21
    227c:	66 1f       	adc	r22, r22
    227e:	77 1f       	adc	r23, r23
    2280:	ea 95       	dec	r30
    2282:	d2 f7       	brpl	.-12     	; 0x2278 <_ZN8MCP2301712digitalWriteEhh+0x48>
    2284:	40 95       	com	r20
    2286:	c4 2f       	mov	r28, r20
    2288:	c2 23       	and	r28, r18
  // Check for no changes:
  if(gpio_ == gpio){return;}
    228a:	c2 17       	cp	r28, r18
    228c:	91 f0       	breq	.+36     	; 0x22b2 <_ZN8MCP2301712digitalWriteEhh+0x82>
/**
 * Register address, port dependent, for a given PIN
 */
uint8_t MCP23017::regForPin(uint8_t pin, uint8_t portAaddr,
                                     uint8_t portBaddr) {
  return (pin < 8) ? portAaddr : portBaddr;
    228e:	38 30       	cpi	r19, 0x08	; 8
    2290:	10 f0       	brcs	.+4      	; 0x2296 <_ZN8MCP2301712digitalWriteEhh+0x66>
    2292:	d3 e1       	ldi	r29, 0x13	; 19
    2294:	01 c0       	rjmp	.+2      	; 0x2298 <_ZN8MCP2301712digitalWriteEhh+0x68>
    2296:	d2 e1       	ldi	r29, 0x12	; 18
    2298:	8c 01       	movw	r16, r24
  bitWrite(gpio, bit, d);
  // Check for no changes:
  if(gpio_ == gpio){return;}
  // write the new GPIO
  uint8_t regAddr = regForPin(pin, MCP23017_GPIOA, MCP23017_GPIOB);
  writeRegister(regAddr, gpio);
    229a:	4c 2f       	mov	r20, r28
    229c:	6d 2f       	mov	r22, r29
    229e:	0e 94 ad 10 	call	0x215a	; 0x215a <_ZN8MCP2301713writeRegisterEhh>
  // Refresh stored gpio-state:
  if(regAddr == MCP23017_GPIOA){
    22a2:	d2 31       	cpi	r29, 0x12	; 18
    22a4:	19 f4       	brne	.+6      	; 0x22ac <_ZN8MCP2301712digitalWriteEhh+0x7c>
	  GPOA_state = gpio;
    22a6:	f8 01       	movw	r30, r16
    22a8:	c1 83       	std	Z+1, r28	; 0x01
    22aa:	03 c0       	rjmp	.+6      	; 0x22b2 <_ZN8MCP2301712digitalWriteEhh+0x82>
  } else{
	  GPOB_state = gpio;
    22ac:	d8 01       	movw	r26, r16
    22ae:	12 96       	adiw	r26, 0x02	; 2
    22b0:	cc 93       	st	X, r28
  }
}
    22b2:	df 91       	pop	r29
    22b4:	cf 91       	pop	r28
    22b6:	1f 91       	pop	r17
    22b8:	0f 91       	pop	r16
    22ba:	08 95       	ret

000022bc <_ZN8MCP2301711writeGPIOABEj>:

/**
 * Writes all the pins in one go. This method is very useful if you are
 * implementing a multiplexed matrix and want to get a decent refresh rate.
 */
void MCP23017::writeGPIOAB(uint16_t ba) {
    22bc:	0f 93       	push	r16
    22be:	1f 93       	push	r17
    22c0:	cf 93       	push	r28
    22c2:	df 93       	push	r29
    22c4:	ec 01       	movw	r28, r24
    22c6:	8b 01       	movw	r16, r22
  #ifdef DEBUG_MODE
	Serial.print("writeGPIOAB: ");
	Serial.println(ba);
  #endif
  Wire.beginTransmission(MCP23017_ADDRESS | i2caddr);
    22c8:	68 81       	ld	r22, Y
    22ca:	60 62       	ori	r22, 0x20	; 32
    22cc:	70 e0       	ldi	r23, 0x00	; 0
    22ce:	8b ef       	ldi	r24, 0xFB	; 251
    22d0:	91 e0       	ldi	r25, 0x01	; 1
    22d2:	0e 94 5c 2c 	call	0x58b8	; 0x58b8 <_ZN7TwoWire17beginTransmissionEi>
  wiresend(MCP23017_GPIOA);
    22d6:	82 e1       	ldi	r24, 0x12	; 18
    22d8:	0e 94 a8 10 	call	0x2150	; 0x2150 <_ZL8wiresendh>
  wiresend(ba & 0xFF);
    22dc:	80 2f       	mov	r24, r16
    22de:	0e 94 a8 10 	call	0x2150	; 0x2150 <_ZL8wiresendh>
  wiresend(ba >> 8);
    22e2:	81 2f       	mov	r24, r17
    22e4:	0e 94 a8 10 	call	0x2150	; 0x2150 <_ZL8wiresendh>
  Wire.endTransmission();
    22e8:	8b ef       	ldi	r24, 0xFB	; 251
    22ea:	91 e0       	ldi	r25, 0x01	; 1
    22ec:	0e 94 d8 2c 	call	0x59b0	; 0x59b0 <_ZN7TwoWire15endTransmissionEv>
  GPOA_state = ba & 0xFF;
    22f0:	09 83       	std	Y+1, r16	; 0x01
  GPOB_state = ba >> 8;
    22f2:	1a 83       	std	Y+2, r17	; 0x02
}
    22f4:	df 91       	pop	r29
    22f6:	cf 91       	pop	r28
    22f8:	1f 91       	pop	r17
    22fa:	0f 91       	pop	r16
    22fc:	08 95       	ret

000022fe <_ZN8MCP230178readGPIOEh>:
/**
 * Read a single port, A or B, and return its current 8 bit value.
 * @param b Decided what gpio to use. Should be 0 for GPIOA, and 1 for GPIOB.
 * @return Returns the b bit value of the port
 */
uint8_t MCP23017::readGPIO(uint8_t b) {
    22fe:	1f 93       	push	r17
    2300:	cf 93       	push	r28
    2302:	df 93       	push	r29
    2304:	ec 01       	movw	r28, r24
    2306:	16 2f       	mov	r17, r22

  // read the current GPIO output latches
  Wire.beginTransmission(MCP23017_ADDRESS | i2caddr);
    2308:	68 81       	ld	r22, Y
    230a:	60 62       	ori	r22, 0x20	; 32
    230c:	70 e0       	ldi	r23, 0x00	; 0
    230e:	8b ef       	ldi	r24, 0xFB	; 251
    2310:	91 e0       	ldi	r25, 0x01	; 1
    2312:	0e 94 5c 2c 	call	0x58b8	; 0x58b8 <_ZN7TwoWire17beginTransmissionEi>
  if (b == 0)
    2316:	11 11       	cpse	r17, r1
    2318:	02 c0       	rjmp	.+4      	; 0x231e <_ZN8MCP230178readGPIOEh+0x20>
    wiresend(MCP23017_GPIOA);
    231a:	82 e1       	ldi	r24, 0x12	; 18
    231c:	01 c0       	rjmp	.+2      	; 0x2320 <_ZN8MCP230178readGPIOEh+0x22>
  else {
    wiresend(MCP23017_GPIOB);
    231e:	83 e1       	ldi	r24, 0x13	; 19
    2320:	0e 94 a8 10 	call	0x2150	; 0x2150 <_ZL8wiresendh>
  }
  Wire.endTransmission();
    2324:	8b ef       	ldi	r24, 0xFB	; 251
    2326:	91 e0       	ldi	r25, 0x01	; 1
    2328:	0e 94 d8 2c 	call	0x59b0	; 0x59b0 <_ZN7TwoWire15endTransmissionEv>

  Wire.requestFrom(MCP23017_ADDRESS | i2caddr, 1);
    232c:	68 81       	ld	r22, Y
    232e:	60 62       	ori	r22, 0x20	; 32
    2330:	70 e0       	ldi	r23, 0x00	; 0
    2332:	41 e0       	ldi	r20, 0x01	; 1
    2334:	50 e0       	ldi	r21, 0x00	; 0
    2336:	8b ef       	ldi	r24, 0xFB	; 251
    2338:	91 e0       	ldi	r25, 0x01	; 1
    233a:	0e 94 d5 2c 	call	0x59aa	; 0x59aa <_ZN7TwoWire11requestFromEii>
#endif
}

static inline uint8_t wirerecv(void) {
#if ARDUINO >= 100
  return Wire.read();
    233e:	8b ef       	ldi	r24, 0xFB	; 251
    2340:	91 e0       	ldi	r25, 0x01	; 1
    2342:	0e 94 76 2b 	call	0x56ec	; 0x56ec <_ZN7TwoWire4readEv>
  }
  Wire.endTransmission();

  Wire.requestFrom(MCP23017_ADDRESS | i2caddr, 1);
  return wirerecv();
}
    2346:	df 91       	pop	r29
    2348:	cf 91       	pop	r28
    234a:	1f 91       	pop	r17
    234c:	08 95       	ret

0000234e <_ZN8MCP2301712readRegisterEh>:
}

/**
 * Reads a given register
 */
uint8_t MCP23017::readRegister(uint8_t addr) {
    234e:	1f 93       	push	r17
    2350:	cf 93       	push	r28
    2352:	df 93       	push	r29
    2354:	ec 01       	movw	r28, r24
    2356:	16 2f       	mov	r17, r22
  // read the current GPINTEN
  Wire.beginTransmission(MCP23017_ADDRESS | i2caddr);
    2358:	68 81       	ld	r22, Y
    235a:	60 62       	ori	r22, 0x20	; 32
    235c:	70 e0       	ldi	r23, 0x00	; 0
    235e:	8b ef       	ldi	r24, 0xFB	; 251
    2360:	91 e0       	ldi	r25, 0x01	; 1
    2362:	0e 94 5c 2c 	call	0x58b8	; 0x58b8 <_ZN7TwoWire17beginTransmissionEi>
  wiresend(addr);
    2366:	81 2f       	mov	r24, r17
    2368:	0e 94 a8 10 	call	0x2150	; 0x2150 <_ZL8wiresendh>
  Wire.endTransmission();
    236c:	8b ef       	ldi	r24, 0xFB	; 251
    236e:	91 e0       	ldi	r25, 0x01	; 1
    2370:	0e 94 d8 2c 	call	0x59b0	; 0x59b0 <_ZN7TwoWire15endTransmissionEv>
  Wire.requestFrom(MCP23017_ADDRESS | i2caddr, 1);
    2374:	68 81       	ld	r22, Y
    2376:	60 62       	ori	r22, 0x20	; 32
    2378:	70 e0       	ldi	r23, 0x00	; 0
    237a:	41 e0       	ldi	r20, 0x01	; 1
    237c:	50 e0       	ldi	r21, 0x00	; 0
    237e:	8b ef       	ldi	r24, 0xFB	; 251
    2380:	91 e0       	ldi	r25, 0x01	; 1
    2382:	0e 94 d5 2c 	call	0x59aa	; 0x59aa <_ZN7TwoWire11requestFromEii>
#endif
}

static inline uint8_t wirerecv(void) {
#if ARDUINO >= 100
  return Wire.read();
    2386:	8b ef       	ldi	r24, 0xFB	; 251
    2388:	91 e0       	ldi	r25, 0x01	; 1
    238a:	0e 94 76 2b 	call	0x56ec	; 0x56ec <_ZN7TwoWire4readEv>
  Wire.beginTransmission(MCP23017_ADDRESS | i2caddr);
  wiresend(addr);
  Wire.endTransmission();
  Wire.requestFrom(MCP23017_ADDRESS | i2caddr, 1);
  return wirerecv();
}
    238e:	df 91       	pop	r29
    2390:	cf 91       	pop	r28
    2392:	1f 91       	pop	r17
    2394:	08 95       	ret

00002396 <_ZN8MCP2301717updateRegisterBitEhhhh>:
 * - Reads the current register value
 * - Writes the new register value
 */
void MCP23017::updateRegisterBit(uint8_t pin, uint8_t pValue,
                                          uint8_t portAaddr,
                                          uint8_t portBaddr) {
    2396:	ff 92       	push	r15
    2398:	0f 93       	push	r16
    239a:	1f 93       	push	r17
    239c:	cf 93       	push	r28
    239e:	df 93       	push	r29
    23a0:	ec 01       	movw	r28, r24
    23a2:	f4 2e       	mov	r15, r20
/**
 * Register address, port dependent, for a given PIN
 */
uint8_t MCP23017::regForPin(uint8_t pin, uint8_t portAaddr,
                                     uint8_t portBaddr) {
  return (pin < 8) ? portAaddr : portBaddr;
    23a4:	68 30       	cpi	r22, 0x08	; 8
    23a6:	08 f4       	brcc	.+2      	; 0x23aa <_ZN8MCP2301717updateRegisterBitEhhhh+0x14>
    23a8:	02 2f       	mov	r16, r18
}

/**
 * Bit number associated to a give Pin
 */
uint8_t MCP23017::bitForPin(uint8_t pin) { return pin % 8; }
    23aa:	16 2f       	mov	r17, r22
    23ac:	17 70       	andi	r17, 0x07	; 7
                                          uint8_t portAaddr,
                                          uint8_t portBaddr) {
  uint8_t regValue;
  uint8_t regAddr = regForPin(pin, portAaddr, portBaddr);
  uint8_t bit = bitForPin(pin);
  regValue = readRegister(regAddr);
    23ae:	60 2f       	mov	r22, r16
    23b0:	ce 01       	movw	r24, r28
    23b2:	0e 94 a7 11 	call	0x234e	; 0x234e <_ZN8MCP2301712readRegisterEh>

  // set the value for the particular bit
  bitWrite(regValue, bit, pValue);
    23b6:	41 e0       	ldi	r20, 0x01	; 1
    23b8:	50 e0       	ldi	r21, 0x00	; 0
    23ba:	60 e0       	ldi	r22, 0x00	; 0
    23bc:	70 e0       	ldi	r23, 0x00	; 0
    23be:	04 c0       	rjmp	.+8      	; 0x23c8 <_ZN8MCP2301717updateRegisterBitEhhhh+0x32>
    23c0:	44 0f       	add	r20, r20
    23c2:	55 1f       	adc	r21, r21
    23c4:	66 1f       	adc	r22, r22
    23c6:	77 1f       	adc	r23, r23
    23c8:	1a 95       	dec	r17
    23ca:	d2 f7       	brpl	.-12     	; 0x23c0 <_ZN8MCP2301717updateRegisterBitEhhhh+0x2a>
    23cc:	ff 20       	and	r15, r15
    23ce:	11 f0       	breq	.+4      	; 0x23d4 <_ZN8MCP2301717updateRegisterBitEhhhh+0x3e>
    23d0:	48 2b       	or	r20, r24
    23d2:	02 c0       	rjmp	.+4      	; 0x23d8 <_ZN8MCP2301717updateRegisterBitEhhhh+0x42>
    23d4:	40 95       	com	r20
    23d6:	48 23       	and	r20, r24

  writeRegister(regAddr, regValue);
    23d8:	60 2f       	mov	r22, r16
    23da:	ce 01       	movw	r24, r28
}
    23dc:	df 91       	pop	r29
    23de:	cf 91       	pop	r28
    23e0:	1f 91       	pop	r17
    23e2:	0f 91       	pop	r16
    23e4:	ff 90       	pop	r15
  regValue = readRegister(regAddr);

  // set the value for the particular bit
  bitWrite(regValue, bit, pValue);

  writeRegister(regAddr, regValue);
    23e6:	0c 94 ad 10 	jmp	0x215a	; 0x215a <_ZN8MCP2301713writeRegisterEhh>

000023ea <_ZN8MCP230177pinModeEhh>:
/**
 * Sets the pin mode to either INPUT or OUTPUT
 * @param p Pin to set
 * @param d Mode to set the pin
 */
void MCP23017::pinMode(uint8_t p, uint8_t d) {
    23ea:	0f 93       	push	r16
  updateRegisterBit(p, (d == INPUT), MCP23017_IODIRA, MCP23017_IODIRB);
    23ec:	31 e0       	ldi	r19, 0x01	; 1
    23ee:	41 11       	cpse	r20, r1
    23f0:	30 e0       	ldi	r19, 0x00	; 0
    23f2:	01 e0       	ldi	r16, 0x01	; 1
    23f4:	20 e0       	ldi	r18, 0x00	; 0
    23f6:	43 2f       	mov	r20, r19
    23f8:	0e 94 cb 11 	call	0x2396	; 0x2396 <_ZN8MCP2301717updateRegisterBitEhhhh>
}
    23fc:	0f 91       	pop	r16
    23fe:	08 95       	ret

00002400 <_ZN13MUX16_CIRCUITC1Ev>:
	return signalMux_actChannel;
}
// Get Channel of Measure Mux:
int8_t MUX16_CIRCUIT::getMeasureMuxChannel(){
	return measureMux_actChannel;
}
    2400:	6f 92       	push	r6
    2402:	7f 92       	push	r7
    2404:	8f 92       	push	r8
    2406:	9f 92       	push	r9
    2408:	af 92       	push	r10
    240a:	bf 92       	push	r11
    240c:	cf 92       	push	r12
    240e:	df 92       	push	r13
    2410:	ef 92       	push	r14
    2412:	ff 92       	push	r15
    2414:	0f 93       	push	r16
    2416:	1f 93       	push	r17
    2418:	cf 93       	push	r28
    241a:	df 93       	push	r29
    241c:	ec 01       	movw	r28, r24
    241e:	80 e2       	ldi	r24, 0x20	; 32
    2420:	ea e1       	ldi	r30, 0x1A	; 26
    2422:	f1 e0       	ldi	r31, 0x01	; 1
    2424:	de 01       	movw	r26, r28
    2426:	50 96       	adiw	r26, 0x10	; 16
    2428:	01 90       	ld	r0, Z+
    242a:	0d 92       	st	X+, r0
    242c:	8a 95       	dec	r24
    242e:	e1 f7       	brne	.-8      	; 0x2428 <_ZN13MUX16_CIRCUITC1Ev+0x28>
    2430:	83 e0       	ldi	r24, 0x03	; 3
    2432:	90 e0       	ldi	r25, 0x00	; 0
    2434:	0e 94 3b 23 	call	0x4676	; 0x4676 <_Znwj>
    2438:	fc 01       	movw	r30, r24
    243a:	10 82       	st	Z, r1
    243c:	11 82       	std	Z+1, r1	; 0x01
    243e:	12 82       	std	Z+2, r1	; 0x02
    2440:	9d 87       	std	Y+13, r25	; 0x0d
    2442:	8c 87       	std	Y+12, r24	; 0x0c
    2444:	82 e1       	ldi	r24, 0x12	; 18
    2446:	90 e0       	ldi	r25, 0x00	; 0
    2448:	0e 94 3b 23 	call	0x4676	; 0x4676 <_Znwj>
    244c:	3c 01       	movw	r6, r24
    244e:	4e 01       	movw	r8, r28
    2450:	80 e1       	ldi	r24, 0x10	; 16
    2452:	88 0e       	add	r8, r24
    2454:	91 1c       	adc	r9, r1
    2456:	cc 84       	ldd	r12, Y+12	; 0x0c
    2458:	dd 84       	ldd	r13, Y+13	; 0x0d
    245a:	54 01       	movw	r10, r8
    245c:	8c e0       	ldi	r24, 0x0C	; 12
    245e:	e8 2e       	mov	r14, r24
    2460:	f1 2c       	mov	r15, r1
    2462:	03 e0       	ldi	r16, 0x03	; 3
    2464:	10 e0       	ldi	r17, 0x00	; 0
    2466:	22 e0       	ldi	r18, 0x02	; 2
    2468:	30 e0       	ldi	r19, 0x00	; 0
    246a:	41 e0       	ldi	r20, 0x01	; 1
    246c:	50 e0       	ldi	r21, 0x00	; 0
    246e:	60 e0       	ldi	r22, 0x00	; 0
    2470:	70 e0       	ldi	r23, 0x00	; 0
    2472:	c3 01       	movw	r24, r6
    2474:	0e 94 32 04 	call	0x864	; 0x864 <_ZN7ADG1606C1EiiiiiP8MCP23017Pi>
    2478:	7f 82       	std	Y+7, r7	; 0x07
    247a:	6e 82       	std	Y+6, r6	; 0x06
    247c:	82 e1       	ldi	r24, 0x12	; 18
    247e:	90 e0       	ldi	r25, 0x00	; 0
    2480:	0e 94 3b 23 	call	0x4676	; 0x4676 <_Znwj>
    2484:	3c 01       	movw	r6, r24
    2486:	cc 84       	ldd	r12, Y+12	; 0x0c
    2488:	dd 84       	ldd	r13, Y+13	; 0x0d
    248a:	9d e0       	ldi	r25, 0x0D	; 13
    248c:	e9 2e       	mov	r14, r25
    248e:	f1 2c       	mov	r15, r1
    2490:	07 e0       	ldi	r16, 0x07	; 7
    2492:	10 e0       	ldi	r17, 0x00	; 0
    2494:	26 e0       	ldi	r18, 0x06	; 6
    2496:	30 e0       	ldi	r19, 0x00	; 0
    2498:	45 e0       	ldi	r20, 0x05	; 5
    249a:	50 e0       	ldi	r21, 0x00	; 0
    249c:	64 e0       	ldi	r22, 0x04	; 4
    249e:	70 e0       	ldi	r23, 0x00	; 0
    24a0:	c3 01       	movw	r24, r6
    24a2:	0e 94 32 04 	call	0x864	; 0x864 <_ZN7ADG1606C1EiiiiiP8MCP23017Pi>
    24a6:	79 86       	std	Y+9, r7	; 0x09
    24a8:	68 86       	std	Y+8, r6	; 0x08
    24aa:	82 e1       	ldi	r24, 0x12	; 18
    24ac:	90 e0       	ldi	r25, 0x00	; 0
    24ae:	0e 94 3b 23 	call	0x4676	; 0x4676 <_Znwj>
    24b2:	3c 01       	movw	r6, r24
    24b4:	cc 84       	ldd	r12, Y+12	; 0x0c
    24b6:	dd 84       	ldd	r13, Y+13	; 0x0d
    24b8:	2e e0       	ldi	r18, 0x0E	; 14
    24ba:	e2 2e       	mov	r14, r18
    24bc:	f1 2c       	mov	r15, r1
    24be:	0b e0       	ldi	r16, 0x0B	; 11
    24c0:	10 e0       	ldi	r17, 0x00	; 0
    24c2:	2a e0       	ldi	r18, 0x0A	; 10
    24c4:	30 e0       	ldi	r19, 0x00	; 0
    24c6:	49 e0       	ldi	r20, 0x09	; 9
    24c8:	50 e0       	ldi	r21, 0x00	; 0
    24ca:	68 e0       	ldi	r22, 0x08	; 8
    24cc:	70 e0       	ldi	r23, 0x00	; 0
    24ce:	0e 94 32 04 	call	0x864	; 0x864 <_ZN7ADG1606C1EiiiiiP8MCP23017Pi>
    24d2:	7b 86       	std	Y+11, r7	; 0x0b
    24d4:	6a 86       	std	Y+10, r6	; 0x0a
    24d6:	1f 86       	std	Y+15, r1	; 0x0f
    24d8:	1e 86       	std	Y+14, r1	; 0x0e
    24da:	df 91       	pop	r29
    24dc:	cf 91       	pop	r28
    24de:	1f 91       	pop	r17
    24e0:	0f 91       	pop	r16
    24e2:	ff 90       	pop	r15
    24e4:	ef 90       	pop	r14
    24e6:	df 90       	pop	r13
    24e8:	cf 90       	pop	r12
    24ea:	bf 90       	pop	r11
    24ec:	af 90       	pop	r10
    24ee:	9f 90       	pop	r9
    24f0:	8f 90       	pop	r8
    24f2:	7f 90       	pop	r7
    24f4:	6f 90       	pop	r6
    24f6:	08 95       	ret

000024f8 <_ZN13MUX16_CIRCUIT26writePreparedChannelsToMuxEv>:
    24f8:	cf 93       	push	r28
    24fa:	df 93       	push	r29
    24fc:	ec 01       	movw	r28, r24
    24fe:	6e 85       	ldd	r22, Y+14	; 0x0e
    2500:	7f 85       	ldd	r23, Y+15	; 0x0f
    2502:	8c 85       	ldd	r24, Y+12	; 0x0c
    2504:	9d 85       	ldd	r25, Y+13	; 0x0d
    2506:	0e 94 5e 11 	call	0x22bc	; 0x22bc <_ZN8MCP2301711writeGPIOABEj>
    250a:	6b 81       	ldd	r22, Y+3	; 0x03
    250c:	68 83       	st	Y, r22
    250e:	8c 81       	ldd	r24, Y+4	; 0x04
    2510:	89 83       	std	Y+1, r24	; 0x01
    2512:	8d 81       	ldd	r24, Y+5	; 0x05
    2514:	8a 83       	std	Y+2, r24	; 0x02
    2516:	8e 81       	ldd	r24, Y+6	; 0x06
    2518:	9f 81       	ldd	r25, Y+7	; 0x07
    251a:	0e 94 a0 04 	call	0x940	; 0x940 <_ZN7ADG160625overwriteActiveChannelVarEa>
    251e:	69 81       	ldd	r22, Y+1	; 0x01
    2520:	88 85       	ldd	r24, Y+8	; 0x08
    2522:	99 85       	ldd	r25, Y+9	; 0x09
    2524:	0e 94 a0 04 	call	0x940	; 0x940 <_ZN7ADG160625overwriteActiveChannelVarEa>
    2528:	6a 81       	ldd	r22, Y+2	; 0x02
    252a:	8a 85       	ldd	r24, Y+10	; 0x0a
    252c:	9b 85       	ldd	r25, Y+11	; 0x0b
    252e:	df 91       	pop	r29
    2530:	cf 91       	pop	r28
    2532:	0c 94 a0 04 	jmp	0x940	; 0x940 <_ZN7ADG160625overwriteActiveChannelVarEa>

00002536 <_ZN13MUX16_CIRCUIT17changeGPIOregWordEP7ADG1606i>:
    2536:	ef 92       	push	r14
    2538:	ff 92       	push	r15
    253a:	0f 93       	push	r16
    253c:	1f 93       	push	r17
    253e:	cf 93       	push	r28
    2540:	df 93       	push	r29
    2542:	cd b7       	in	r28, 0x3d	; 61
    2544:	de b7       	in	r29, 0x3e	; 62
    2546:	60 97       	sbiw	r28, 0x10	; 16
    2548:	0f b6       	in	r0, 0x3f	; 63
    254a:	f8 94       	cli
    254c:	de bf       	out	0x3e, r29	; 62
    254e:	0f be       	out	0x3f, r0	; 63
    2550:	cd bf       	out	0x3d, r28	; 61
    2552:	8c 01       	movw	r16, r24
    2554:	fb 01       	movw	r30, r22
    2556:	dc 01       	movw	r26, r24
    2558:	1e 96       	adiw	r26, 0x0e	; 14
    255a:	6d 91       	ld	r22, X+
    255c:	7c 91       	ld	r23, X
    255e:	1f 97       	sbiw	r26, 0x0f	; 15
    2560:	40 31       	cpi	r20, 0x10	; 16
    2562:	51 05       	cpc	r21, r1
    2564:	88 f0       	brcs	.+34     	; 0x2588 <_ZN13MUX16_CIRCUIT17changeGPIOregWordEP7ADG1606i+0x52>
    2566:	81 e0       	ldi	r24, 0x01	; 1
    2568:	90 e0       	ldi	r25, 0x00	; 0
    256a:	06 84       	ldd	r0, Z+14	; 0x0e
    256c:	02 c0       	rjmp	.+4      	; 0x2572 <_ZN13MUX16_CIRCUIT17changeGPIOregWordEP7ADG1606i+0x3c>
    256e:	88 0f       	add	r24, r24
    2570:	99 1f       	adc	r25, r25
    2572:	0a 94       	dec	r0
    2574:	e2 f7       	brpl	.-8      	; 0x256e <_ZN13MUX16_CIRCUIT17changeGPIOregWordEP7ADG1606i+0x38>
    2576:	80 95       	com	r24
    2578:	90 95       	com	r25
    257a:	86 23       	and	r24, r22
    257c:	97 23       	and	r25, r23
    257e:	1f 96       	adiw	r26, 0x0f	; 15
    2580:	9c 93       	st	X, r25
    2582:	8e 93       	st	-X, r24
    2584:	1e 97       	sbiw	r26, 0x0e	; 14
    2586:	8f c0       	rjmp	.+286    	; 0x26a6 <_ZN13MUX16_CIRCUIT17changeGPIOregWordEP7ADG1606i+0x170>
    2588:	21 e0       	ldi	r18, 0x01	; 1
    258a:	30 e0       	ldi	r19, 0x00	; 0
    258c:	06 84       	ldd	r0, Z+14	; 0x0e
    258e:	02 c0       	rjmp	.+4      	; 0x2594 <_ZN13MUX16_CIRCUIT17changeGPIOregWordEP7ADG1606i+0x5e>
    2590:	22 0f       	add	r18, r18
    2592:	33 1f       	adc	r19, r19
    2594:	0a 94       	dec	r0
    2596:	e2 f7       	brpl	.-8      	; 0x2590 <_ZN13MUX16_CIRCUIT17changeGPIOregWordEP7ADG1606i+0x5a>
    2598:	cb 01       	movw	r24, r22
    259a:	82 2b       	or	r24, r18
    259c:	93 2b       	or	r25, r19
    259e:	d8 01       	movw	r26, r16
    25a0:	1f 96       	adiw	r26, 0x0f	; 15
    25a2:	9c 93       	st	X, r25
    25a4:	8e 93       	st	-X, r24
    25a6:	1e 97       	sbiw	r26, 0x0e	; 14
    25a8:	44 0f       	add	r20, r20
    25aa:	55 1f       	adc	r21, r21
    25ac:	a0 89       	ldd	r26, Z+16	; 0x10
    25ae:	b1 89       	ldd	r27, Z+17	; 0x11
    25b0:	a4 0f       	add	r26, r20
    25b2:	b5 1f       	adc	r27, r21
    25b4:	2d 91       	ld	r18, X+
    25b6:	3c 91       	ld	r19, X
    25b8:	7e 01       	movw	r14, r28
    25ba:	b9 e0       	ldi	r27, 0x09	; 9
    25bc:	eb 0e       	add	r14, r27
    25be:	f1 1c       	adc	r15, r1
    25c0:	88 e0       	ldi	r24, 0x08	; 8
    25c2:	d7 01       	movw	r26, r14
    25c4:	1d 92       	st	X+, r1
    25c6:	8a 95       	dec	r24
    25c8:	e9 f7       	brne	.-6      	; 0x25c4 <_ZN13MUX16_CIRCUIT17changeGPIOregWordEP7ADG1606i+0x8e>
    25ca:	c9 01       	movw	r24, r18
    25cc:	62 e0       	ldi	r22, 0x02	; 2
    25ce:	70 e0       	ldi	r23, 0x00	; 0
    25d0:	0e 94 4e 31 	call	0x629c	; 0x629c <__divmodhi4>
    25d4:	9a 87       	std	Y+10, r25	; 0x0a
    25d6:	89 87       	std	Y+9, r24	; 0x09
    25d8:	c9 01       	movw	r24, r18
    25da:	37 fd       	sbrc	r19, 7
    25dc:	01 96       	adiw	r24, 0x01	; 1
    25de:	95 95       	asr	r25
    25e0:	87 95       	ror	r24
    25e2:	62 e0       	ldi	r22, 0x02	; 2
    25e4:	70 e0       	ldi	r23, 0x00	; 0
    25e6:	0e 94 4e 31 	call	0x629c	; 0x629c <__divmodhi4>
    25ea:	9c 87       	std	Y+12, r25	; 0x0c
    25ec:	8b 87       	std	Y+11, r24	; 0x0b
    25ee:	c9 01       	movw	r24, r18
    25f0:	37 fd       	sbrc	r19, 7
    25f2:	03 96       	adiw	r24, 0x03	; 3
    25f4:	95 95       	asr	r25
    25f6:	87 95       	ror	r24
    25f8:	95 95       	asr	r25
    25fa:	87 95       	ror	r24
    25fc:	62 e0       	ldi	r22, 0x02	; 2
    25fe:	70 e0       	ldi	r23, 0x00	; 0
    2600:	0e 94 4e 31 	call	0x629c	; 0x629c <__divmodhi4>
    2604:	9e 87       	std	Y+14, r25	; 0x0e
    2606:	8d 87       	std	Y+13, r24	; 0x0d
    2608:	37 ff       	sbrs	r19, 7
    260a:	02 c0       	rjmp	.+4      	; 0x2610 <_ZN13MUX16_CIRCUIT17changeGPIOregWordEP7ADG1606i+0xda>
    260c:	29 5f       	subi	r18, 0xF9	; 249
    260e:	3f 4f       	sbci	r19, 0xFF	; 255
    2610:	c9 01       	movw	r24, r18
    2612:	23 e0       	ldi	r18, 0x03	; 3
    2614:	95 95       	asr	r25
    2616:	87 95       	ror	r24
    2618:	2a 95       	dec	r18
    261a:	e1 f7       	brne	.-8      	; 0x2614 <_ZN13MUX16_CIRCUIT17changeGPIOregWordEP7ADG1606i+0xde>
    261c:	62 e0       	ldi	r22, 0x02	; 2
    261e:	70 e0       	ldi	r23, 0x00	; 0
    2620:	0e 94 4e 31 	call	0x629c	; 0x629c <__divmodhi4>
    2624:	98 8b       	std	Y+16, r25	; 0x10
    2626:	8f 87       	std	Y+15, r24	; 0x0f
    2628:	86 81       	ldd	r24, Z+6	; 0x06
    262a:	97 81       	ldd	r25, Z+7	; 0x07
    262c:	9a 83       	std	Y+2, r25	; 0x02
    262e:	89 83       	std	Y+1, r24	; 0x01
    2630:	80 85       	ldd	r24, Z+8	; 0x08
    2632:	91 85       	ldd	r25, Z+9	; 0x09
    2634:	9c 83       	std	Y+4, r25	; 0x04
    2636:	8b 83       	std	Y+3, r24	; 0x03
    2638:	82 85       	ldd	r24, Z+10	; 0x0a
    263a:	93 85       	ldd	r25, Z+11	; 0x0b
    263c:	9e 83       	std	Y+6, r25	; 0x06
    263e:	8d 83       	std	Y+5, r24	; 0x05
    2640:	84 85       	ldd	r24, Z+12	; 0x0c
    2642:	95 85       	ldd	r25, Z+13	; 0x0d
    2644:	98 87       	std	Y+8, r25	; 0x08
    2646:	8f 83       	std	Y+7, r24	; 0x07
    2648:	b7 01       	movw	r22, r14
    264a:	fe 01       	movw	r30, r28
    264c:	31 96       	adiw	r30, 0x01	; 1
    264e:	41 e0       	ldi	r20, 0x01	; 1
    2650:	50 e0       	ldi	r21, 0x00	; 0
    2652:	db 01       	movw	r26, r22
    2654:	2d 91       	ld	r18, X+
    2656:	3d 91       	ld	r19, X+
    2658:	bd 01       	movw	r22, r26
    265a:	d8 01       	movw	r26, r16
    265c:	1e 96       	adiw	r26, 0x0e	; 14
    265e:	8d 91       	ld	r24, X+
    2660:	9c 91       	ld	r25, X
    2662:	1f 97       	sbiw	r26, 0x0f	; 15
    2664:	12 16       	cp	r1, r18
    2666:	13 06       	cpc	r1, r19
    2668:	54 f4       	brge	.+20     	; 0x267e <_ZN13MUX16_CIRCUIT17changeGPIOregWordEP7ADG1606i+0x148>
    266a:	9a 01       	movw	r18, r20
    266c:	00 80       	ld	r0, Z
    266e:	02 c0       	rjmp	.+4      	; 0x2674 <_ZN13MUX16_CIRCUIT17changeGPIOregWordEP7ADG1606i+0x13e>
    2670:	22 0f       	add	r18, r18
    2672:	33 1f       	adc	r19, r19
    2674:	0a 94       	dec	r0
    2676:	e2 f7       	brpl	.-8      	; 0x2670 <_ZN13MUX16_CIRCUIT17changeGPIOregWordEP7ADG1606i+0x13a>
    2678:	82 2b       	or	r24, r18
    267a:	93 2b       	or	r25, r19
    267c:	0c c0       	rjmp	.+24     	; 0x2696 <_ZN13MUX16_CIRCUIT17changeGPIOregWordEP7ADG1606i+0x160>
    267e:	9a 01       	movw	r18, r20
    2680:	00 80       	ld	r0, Z
    2682:	02 c0       	rjmp	.+4      	; 0x2688 <_ZN13MUX16_CIRCUIT17changeGPIOregWordEP7ADG1606i+0x152>
    2684:	22 0f       	add	r18, r18
    2686:	33 1f       	adc	r19, r19
    2688:	0a 94       	dec	r0
    268a:	e2 f7       	brpl	.-8      	; 0x2684 <_ZN13MUX16_CIRCUIT17changeGPIOregWordEP7ADG1606i+0x14e>
    268c:	20 95       	com	r18
    268e:	30 95       	com	r19
    2690:	82 23       	and	r24, r18
    2692:	93 23       	and	r25, r19
    2694:	d8 01       	movw	r26, r16
    2696:	1f 96       	adiw	r26, 0x0f	; 15
    2698:	9c 93       	st	X, r25
    269a:	8e 93       	st	-X, r24
    269c:	1e 97       	sbiw	r26, 0x0e	; 14
    269e:	32 96       	adiw	r30, 0x02	; 2
    26a0:	ee 16       	cp	r14, r30
    26a2:	ff 06       	cpc	r15, r31
    26a4:	b1 f6       	brne	.-84     	; 0x2652 <_ZN13MUX16_CIRCUIT17changeGPIOregWordEP7ADG1606i+0x11c>
    26a6:	60 96       	adiw	r28, 0x10	; 16
    26a8:	0f b6       	in	r0, 0x3f	; 63
    26aa:	f8 94       	cli
    26ac:	de bf       	out	0x3e, r29	; 62
    26ae:	0f be       	out	0x3f, r0	; 63
    26b0:	cd bf       	out	0x3d, r28	; 61
    26b2:	df 91       	pop	r29
    26b4:	cf 91       	pop	r28
    26b6:	1f 91       	pop	r17
    26b8:	0f 91       	pop	r16
    26ba:	ff 90       	pop	r15
    26bc:	ef 90       	pop	r14
    26be:	08 95       	ret

000026c0 <_ZN13MUX16_CIRCUIT5beginEi>:
    26c0:	1f 93       	push	r17
    26c2:	cf 93       	push	r28
    26c4:	df 93       	push	r29
    26c6:	ec 01       	movw	r28, r24
    26c8:	8c 85       	ldd	r24, Y+12	; 0x0c
    26ca:	9d 85       	ldd	r25, Y+13	; 0x0d
    26cc:	0e 94 d5 10 	call	0x21aa	; 0x21aa <_ZN8MCP230175beginEh>
    26d0:	18 2f       	mov	r17, r24
    26d2:	81 11       	cpse	r24, r1
    26d4:	47 c0       	rjmp	.+142    	; 0x2764 <_ZN13MUX16_CIRCUIT5beginEi+0xa4>
    26d6:	8e 81       	ldd	r24, Y+6	; 0x06
    26d8:	9f 81       	ldd	r25, Y+7	; 0x07
    26da:	0e 94 58 04 	call	0x8b0	; 0x8b0 <_ZN7ADG160612init_ADG1606Ev>
    26de:	88 85       	ldd	r24, Y+8	; 0x08
    26e0:	99 85       	ldd	r25, Y+9	; 0x09
    26e2:	0e 94 58 04 	call	0x8b0	; 0x8b0 <_ZN7ADG160612init_ADG1606Ev>
    26e6:	8a 85       	ldd	r24, Y+10	; 0x0a
    26e8:	9b 85       	ldd	r25, Y+11	; 0x0b
    26ea:	0e 94 58 04 	call	0x8b0	; 0x8b0 <_ZN7ADG160612init_ADG1606Ev>
    26ee:	8e 81       	ldd	r24, Y+6	; 0x06
    26f0:	9f 81       	ldd	r25, Y+7	; 0x07
    26f2:	0e 94 ab 04 	call	0x956	; 0x956 <_ZN7ADG160610getChannelEv>
    26f6:	88 83       	st	Y, r24
    26f8:	88 85       	ldd	r24, Y+8	; 0x08
    26fa:	99 85       	ldd	r25, Y+9	; 0x09
    26fc:	0e 94 ab 04 	call	0x956	; 0x956 <_ZN7ADG160610getChannelEv>
    2700:	89 83       	std	Y+1, r24	; 0x01
    2702:	8a 85       	ldd	r24, Y+10	; 0x0a
    2704:	9b 85       	ldd	r25, Y+11	; 0x0b
    2706:	0e 94 ab 04 	call	0x956	; 0x956 <_ZN7ADG160610getChannelEv>
    270a:	8a 83       	std	Y+2, r24	; 0x02
    270c:	1f 86       	std	Y+15, r1	; 0x0f
    270e:	1e 86       	std	Y+14, r1	; 0x0e
    2710:	8e 81       	ldd	r24, Y+6	; 0x06
    2712:	9f 81       	ldd	r25, Y+7	; 0x07
    2714:	0e 94 ab 04 	call	0x956	; 0x956 <_ZN7ADG160610getChannelEv>
    2718:	6e 81       	ldd	r22, Y+6	; 0x06
    271a:	7f 81       	ldd	r23, Y+7	; 0x07
    271c:	ac 01       	movw	r20, r24
    271e:	ce 01       	movw	r24, r28
    2720:	0e 94 9b 12 	call	0x2536	; 0x2536 <_ZN13MUX16_CIRCUIT17changeGPIOregWordEP7ADG1606i>
    2724:	88 85       	ldd	r24, Y+8	; 0x08
    2726:	99 85       	ldd	r25, Y+9	; 0x09
    2728:	0e 94 ab 04 	call	0x956	; 0x956 <_ZN7ADG160610getChannelEv>
    272c:	68 85       	ldd	r22, Y+8	; 0x08
    272e:	79 85       	ldd	r23, Y+9	; 0x09
    2730:	ac 01       	movw	r20, r24
    2732:	ce 01       	movw	r24, r28
    2734:	0e 94 9b 12 	call	0x2536	; 0x2536 <_ZN13MUX16_CIRCUIT17changeGPIOregWordEP7ADG1606i>
    2738:	8a 85       	ldd	r24, Y+10	; 0x0a
    273a:	9b 85       	ldd	r25, Y+11	; 0x0b
    273c:	0e 94 ab 04 	call	0x956	; 0x956 <_ZN7ADG160610getChannelEv>
    2740:	6a 85       	ldd	r22, Y+10	; 0x0a
    2742:	7b 85       	ldd	r23, Y+11	; 0x0b
    2744:	ac 01       	movw	r20, r24
    2746:	ce 01       	movw	r24, r28
    2748:	0e 94 9b 12 	call	0x2536	; 0x2536 <_ZN13MUX16_CIRCUIT17changeGPIOregWordEP7ADG1606i>
    274c:	ce 01       	movw	r24, r28
    274e:	0e 94 7c 12 	call	0x24f8	; 0x24f8 <_ZN13MUX16_CIRCUIT26writePreparedChannelsToMuxEv>
    2752:	40 e8       	ldi	r20, 0x80	; 128
    2754:	5a e1       	ldi	r21, 0x1A	; 26
    2756:	66 e0       	ldi	r22, 0x06	; 6
    2758:	70 e0       	ldi	r23, 0x00	; 0
    275a:	8b ef       	ldi	r24, 0xFB	; 251
    275c:	91 e0       	ldi	r25, 0x01	; 1
    275e:	0e 94 4e 2c 	call	0x589c	; 0x589c <_ZN7TwoWire8setClockEm>
    2762:	01 c0       	rjmp	.+2      	; 0x2766 <_ZN13MUX16_CIRCUIT5beginEi+0xa6>
    2764:	11 e0       	ldi	r17, 0x01	; 1
    2766:	81 2f       	mov	r24, r17
    2768:	df 91       	pop	r29
    276a:	cf 91       	pop	r28
    276c:	1f 91       	pop	r17
    276e:	08 95       	ret

00002770 <_ZN13MUX16_CIRCUIT16prepareSignalMuxEi>:
    2770:	1f 93       	push	r17
    2772:	cf 93       	push	r28
    2774:	df 93       	push	r29
    2776:	ec 01       	movw	r28, r24
    2778:	16 2f       	mov	r17, r22
    277a:	57 2f       	mov	r21, r23
    277c:	6e 81       	ldd	r22, Y+6	; 0x06
    277e:	7f 81       	ldd	r23, Y+7	; 0x07
    2780:	41 2f       	mov	r20, r17
    2782:	0e 94 9b 12 	call	0x2536	; 0x2536 <_ZN13MUX16_CIRCUIT17changeGPIOregWordEP7ADG1606i>
    2786:	1b 83       	std	Y+3, r17	; 0x03
    2788:	df 91       	pop	r29
    278a:	cf 91       	pop	r28
    278c:	1f 91       	pop	r17
    278e:	08 95       	ret

00002790 <_ZN13MUX16_CIRCUIT17prepareMeasureMuxEi>:
    2790:	1f 93       	push	r17
    2792:	cf 93       	push	r28
    2794:	df 93       	push	r29
    2796:	ec 01       	movw	r28, r24
    2798:	16 2f       	mov	r17, r22
    279a:	57 2f       	mov	r21, r23
    279c:	68 85       	ldd	r22, Y+8	; 0x08
    279e:	79 85       	ldd	r23, Y+9	; 0x09
    27a0:	41 2f       	mov	r20, r17
    27a2:	0e 94 9b 12 	call	0x2536	; 0x2536 <_ZN13MUX16_CIRCUIT17changeGPIOregWordEP7ADG1606i>
    27a6:	1c 83       	std	Y+4, r17	; 0x04
    27a8:	df 91       	pop	r29
    27aa:	cf 91       	pop	r28
    27ac:	1f 91       	pop	r17
    27ae:	08 95       	ret

000027b0 <_ZN13MUX16_CIRCUIT16prepareGroundMuxEi>:
    27b0:	1f 93       	push	r17
    27b2:	cf 93       	push	r28
    27b4:	df 93       	push	r29
    27b6:	ec 01       	movw	r28, r24
    27b8:	16 2f       	mov	r17, r22
    27ba:	57 2f       	mov	r21, r23
    27bc:	6a 85       	ldd	r22, Y+10	; 0x0a
    27be:	7b 85       	ldd	r23, Y+11	; 0x0b
    27c0:	41 2f       	mov	r20, r17
    27c2:	0e 94 9b 12 	call	0x2536	; 0x2536 <_ZN13MUX16_CIRCUIT17changeGPIOregWordEP7ADG1606i>
    27c6:	1d 83       	std	Y+5, r17	; 0x05
    27c8:	df 91       	pop	r29
    27ca:	cf 91       	pop	r28
    27cc:	1f 91       	pop	r17
    27ce:	08 95       	ret

000027d0 <_ZN13MUX16_CIRCUIT19getSignalMuxChannelEv>:
    27d0:	fc 01       	movw	r30, r24
    27d2:	80 81       	ld	r24, Z
    27d4:	08 95       	ret

000027d6 <_ZN13MUX16_CIRCUIT19getGroundMuxChannelEv>:
// Get Channel of Ground Mux:
int8_t MUX16_CIRCUIT::getGroundMuxChannel(){
	return groundMux_actChannel;
    27d6:	fc 01       	movw	r30, r24
    27d8:	82 81       	ldd	r24, Z+2	; 0x02
    27da:	08 95       	ret

000027dc <_ZN11EEPROMClass6updateEih.isra.1>:

    //Basic user access methods.
    EERef operator[]( const int idx )    { return idx; }
    uint8_t read( int idx )              { return EERef( idx ); }
    void write( int idx, uint8_t val )   { (EERef( idx )) = val; }
    void update( int idx, uint8_t val )  { EERef( idx ).update( val ); }
    27dc:	1f 93       	push	r17
    27de:	cf 93       	push	r28
    27e0:	df 93       	push	r29
    27e2:	ec 01       	movw	r28, r24
    27e4:	16 2f       	mov	r17, r22

    EERef( const int index )
        : index( index )                 {}
    
    //Access/read members.
    uint8_t operator*() const            { return eeprom_read_byte( (uint8_t*) index ); }
    27e6:	0e 94 d5 32 	call	0x65aa	; 0x65aa <eeprom_read_byte>
    EERef &operator &=( uint8_t in )     { return *this = **this & in; }
    EERef &operator |=( uint8_t in )     { return *this = **this | in; }
    EERef &operator <<=( uint8_t in )    { return *this = **this << in; }
    EERef &operator >>=( uint8_t in )    { return *this = **this >> in; }
    
    EERef &update( uint8_t in )          { return  in != *this ? *this = in : *this; }
    27ea:	18 17       	cp	r17, r24
    27ec:	39 f0       	breq	.+14     	; 0x27fc <_ZN11EEPROMClass6updateEih.isra.1+0x20>
    uint8_t operator*() const            { return eeprom_read_byte( (uint8_t*) index ); }
    operator uint8_t() const             { return **this; }
    
    //Assignment/write members.
    EERef &operator=( const EERef &ref ) { return *this = *ref; }
    EERef &operator=( uint8_t in )       { return eeprom_write_byte( (uint8_t*) index, in ), *this;  }
    27ee:	61 2f       	mov	r22, r17
    27f0:	ce 01       	movw	r24, r28

    //Basic user access methods.
    EERef operator[]( const int idx )    { return idx; }
    uint8_t read( int idx )              { return EERef( idx ); }
    void write( int idx, uint8_t val )   { (EERef( idx )) = val; }
    void update( int idx, uint8_t val )  { EERef( idx ).update( val ); }
    27f2:	df 91       	pop	r29
    27f4:	cf 91       	pop	r28
    27f6:	1f 91       	pop	r17
    uint8_t operator*() const            { return eeprom_read_byte( (uint8_t*) index ); }
    operator uint8_t() const             { return **this; }
    
    //Assignment/write members.
    EERef &operator=( const EERef &ref ) { return *this = *ref; }
    EERef &operator=( uint8_t in )       { return eeprom_write_byte( (uint8_t*) index, in ), *this;  }
    27f8:	0c 94 dd 32 	jmp	0x65ba	; 0x65ba <eeprom_write_byte>

    //Basic user access methods.
    EERef operator[]( const int idx )    { return idx; }
    uint8_t read( int idx )              { return EERef( idx ); }
    void write( int idx, uint8_t val )   { (EERef( idx )) = val; }
    void update( int idx, uint8_t val )  { EERef( idx ).update( val ); }
    27fc:	df 91       	pop	r29
    27fe:	cf 91       	pop	r28
    2800:	1f 91       	pop	r17
    2802:	08 95       	ret

00002804 <_ZN11EEPROMClass4readEi.isra.0>:

    EERef( const int index )
        : index( index )                 {}
    
    //Access/read members.
    uint8_t operator*() const            { return eeprom_read_byte( (uint8_t*) index ); }
    2804:	0c 94 d5 32 	jmp	0x65aa	; 0x65aa <eeprom_read_byte>

00002808 <_Z24writeMeasPatternToEEPROMi>:
// =======================================================================



// Write meas_pattern to EEPROM (binary):
void writeMeasPatternToEEPROM(int patternIdx){
    2808:	0f 93       	push	r16
    280a:	1f 93       	push	r17
    280c:	cf 93       	push	r28
    280e:	df 93       	push	r29
	uint8_t dataByte = 0;
	for(int i = 0; i<MEASURE_NUMBER_PER_STIMULATION; i++){
		EEPROM.update(MEASPATTERNADDR + patternIdx*MEASURE_NUMBER_PER_STIMULATION + i, eitModule->meas_pattern[i]);
    2810:	2d e0       	ldi	r18, 0x0D	; 13
    2812:	28 9f       	mul	r18, r24
    2814:	80 01       	movw	r16, r0
    2816:	29 9f       	mul	r18, r25
    2818:	10 0d       	add	r17, r0
    281a:	11 24       	eor	r1, r1


// Write meas_pattern to EEPROM (binary):
void writeMeasPatternToEEPROM(int patternIdx){
	uint8_t dataByte = 0;
	for(int i = 0; i<MEASURE_NUMBER_PER_STIMULATION; i++){
    281c:	c0 e0       	ldi	r28, 0x00	; 0
    281e:	d0 e0       	ldi	r29, 0x00	; 0
		EEPROM.update(MEASPATTERNADDR + patternIdx*MEASURE_NUMBER_PER_STIMULATION + i, eitModule->meas_pattern[i]);
    2820:	e0 91 94 01 	lds	r30, 0x0194	; 0x800194 <__data_end>
    2824:	f0 91 95 01 	lds	r31, 0x0195	; 0x800195 <__data_end+0x1>
    2828:	ec 0f       	add	r30, r28
    282a:	fd 1f       	adc	r31, r29
    282c:	60 81       	ld	r22, Z
    282e:	ce 01       	movw	r24, r28
    2830:	80 0f       	add	r24, r16
    2832:	91 1f       	adc	r25, r17
    2834:	0e 94 ee 13 	call	0x27dc	; 0x27dc <_ZN11EEPROMClass6updateEih.isra.1>


// Write meas_pattern to EEPROM (binary):
void writeMeasPatternToEEPROM(int patternIdx){
	uint8_t dataByte = 0;
	for(int i = 0; i<MEASURE_NUMBER_PER_STIMULATION; i++){
    2838:	21 96       	adiw	r28, 0x01	; 1
    283a:	cd 30       	cpi	r28, 0x0D	; 13
    283c:	d1 05       	cpc	r29, r1
    283e:	81 f7       	brne	.-32     	; 0x2820 <_Z24writeMeasPatternToEEPROMi+0x18>
		EEPROM.update(MEASPATTERNADDR + patternIdx*MEASURE_NUMBER_PER_STIMULATION + i, eitModule->meas_pattern[i]);
	}
}
    2840:	df 91       	pop	r29
    2842:	cf 91       	pop	r28
    2844:	1f 91       	pop	r17
    2846:	0f 91       	pop	r16
    2848:	08 95       	ret

0000284a <_Z24writeStimPatternToEEPROMi>:

// Write stim_pattern to EEPROM (binary):
void writeStimPatternToEEPROM(int patternIdx){
	EEPROM.update(STIMPATTERNADDR + patternIdx, eitModule->stim_pattern);
    284a:	e0 91 94 01 	lds	r30, 0x0194	; 0x800194 <__data_end>
    284e:	f0 91 95 01 	lds	r31, 0x0195	; 0x800195 <__data_end+0x1>
    2852:	65 85       	ldd	r22, Z+13	; 0x0d
    2854:	8e 52       	subi	r24, 0x2E	; 46
    2856:	9f 4f       	sbci	r25, 0xFF	; 255
    2858:	0e 94 ee 13 	call	0x27dc	; 0x27dc <_ZN11EEPROMClass6updateEih.isra.1>
	EEPROM.update(STIMPATTERNADDR + ELECTRODE_NUMBER, eitModule->stim_current);
    285c:	e0 91 94 01 	lds	r30, 0x0194	; 0x800194 <__data_end>
    2860:	f0 91 95 01 	lds	r31, 0x0195	; 0x800195 <__data_end+0x1>
    2864:	66 85       	ldd	r22, Z+14	; 0x0e
    2866:	82 ee       	ldi	r24, 0xE2	; 226
    2868:	90 e0       	ldi	r25, 0x00	; 0
    286a:	0c 94 ee 13 	jmp	0x27dc	; 0x27dc <_ZN11EEPROMClass6updateEih.isra.1>

0000286e <_Z25writeCompensationToEEPROMv>:
}

// Write compensation values to EEPROM:
void writeCompensationToEEPROM(){
	EEPROM.update(COMPENSATIONVALUESADDR                                   , ((uint16_t)eitModule->compensation_V_Re)>>8);  EEPROM.update(COMPENSATIONVALUESADDR                                 +1, ((uint16_t)eitModule->compensation_V_Re)&0xFF);
    286e:	e0 91 94 01 	lds	r30, 0x0194	; 0x800194 <__data_end>
    2872:	f0 91 95 01 	lds	r31, 0x0195	; 0x800195 <__data_end+0x1>
    2876:	e1 5b       	subi	r30, 0xB1	; 177
    2878:	ff 4f       	sbci	r31, 0xFF	; 255
    287a:	61 81       	ldd	r22, Z+1	; 0x01
    287c:	86 ee       	ldi	r24, 0xE6	; 230
    287e:	90 e0       	ldi	r25, 0x00	; 0
    2880:	0e 94 ee 13 	call	0x27dc	; 0x27dc <_ZN11EEPROMClass6updateEih.isra.1>
    2884:	e0 91 94 01 	lds	r30, 0x0194	; 0x800194 <__data_end>
    2888:	f0 91 95 01 	lds	r31, 0x0195	; 0x800195 <__data_end+0x1>
    288c:	e1 5b       	subi	r30, 0xB1	; 177
    288e:	ff 4f       	sbci	r31, 0xFF	; 255
    2890:	60 81       	ld	r22, Z
    2892:	87 ee       	ldi	r24, 0xE7	; 231
    2894:	90 e0       	ldi	r25, 0x00	; 0
    2896:	0e 94 ee 13 	call	0x27dc	; 0x27dc <_ZN11EEPROMClass6updateEih.isra.1>
	EEPROM.update(COMPENSATIONVALUESADDR+1*BYTESIZE_OF_COMPENSATIONVALUES  , ((uint16_t)eitModule->compensation_V_Im)>>8);  EEPROM.update(COMPENSATIONVALUESADDR+1*BYTESIZE_OF_COMPENSATIONVALUES+1, ((uint16_t)eitModule->compensation_V_Im)&0xFF);
    289a:	e0 91 94 01 	lds	r30, 0x0194	; 0x800194 <__data_end>
    289e:	f0 91 95 01 	lds	r31, 0x0195	; 0x800195 <__data_end+0x1>
    28a2:	ef 5a       	subi	r30, 0xAF	; 175
    28a4:	ff 4f       	sbci	r31, 0xFF	; 255
    28a6:	61 81       	ldd	r22, Z+1	; 0x01
    28a8:	88 ee       	ldi	r24, 0xE8	; 232
    28aa:	90 e0       	ldi	r25, 0x00	; 0
    28ac:	0e 94 ee 13 	call	0x27dc	; 0x27dc <_ZN11EEPROMClass6updateEih.isra.1>
    28b0:	e0 91 94 01 	lds	r30, 0x0194	; 0x800194 <__data_end>
    28b4:	f0 91 95 01 	lds	r31, 0x0195	; 0x800195 <__data_end+0x1>
    28b8:	ef 5a       	subi	r30, 0xAF	; 175
    28ba:	ff 4f       	sbci	r31, 0xFF	; 255
    28bc:	60 81       	ld	r22, Z
    28be:	89 ee       	ldi	r24, 0xE9	; 233
    28c0:	90 e0       	ldi	r25, 0x00	; 0
    28c2:	0e 94 ee 13 	call	0x27dc	; 0x27dc <_ZN11EEPROMClass6updateEih.isra.1>
	EEPROM.update(COMPENSATIONVALUESADDR+2*BYTESIZE_OF_COMPENSATIONVALUES  , ((uint16_t)eitModule->compensation_Z_Re)>>8);  EEPROM.update(COMPENSATIONVALUESADDR+2*BYTESIZE_OF_COMPENSATIONVALUES+1, ((uint16_t)eitModule->compensation_Z_Re)&0xFF);
    28c6:	e0 91 94 01 	lds	r30, 0x0194	; 0x800194 <__data_end>
    28ca:	f0 91 95 01 	lds	r31, 0x0195	; 0x800195 <__data_end+0x1>
    28ce:	e5 5b       	subi	r30, 0xB5	; 181
    28d0:	ff 4f       	sbci	r31, 0xFF	; 255
    28d2:	61 81       	ldd	r22, Z+1	; 0x01
    28d4:	8a ee       	ldi	r24, 0xEA	; 234
    28d6:	90 e0       	ldi	r25, 0x00	; 0
    28d8:	0e 94 ee 13 	call	0x27dc	; 0x27dc <_ZN11EEPROMClass6updateEih.isra.1>
    28dc:	e0 91 94 01 	lds	r30, 0x0194	; 0x800194 <__data_end>
    28e0:	f0 91 95 01 	lds	r31, 0x0195	; 0x800195 <__data_end+0x1>
    28e4:	e5 5b       	subi	r30, 0xB5	; 181
    28e6:	ff 4f       	sbci	r31, 0xFF	; 255
    28e8:	60 81       	ld	r22, Z
    28ea:	8b ee       	ldi	r24, 0xEB	; 235
    28ec:	90 e0       	ldi	r25, 0x00	; 0
    28ee:	0e 94 ee 13 	call	0x27dc	; 0x27dc <_ZN11EEPROMClass6updateEih.isra.1>
	EEPROM.update(COMPENSATIONVALUESADDR+3*BYTESIZE_OF_COMPENSATIONVALUES  , ((uint16_t)eitModule->compensation_Z_Im)>>8);  EEPROM.update(COMPENSATIONVALUESADDR+3*BYTESIZE_OF_COMPENSATIONVALUES+1, ((uint16_t)eitModule->compensation_Z_Im)&0xFF);
    28f2:	e0 91 94 01 	lds	r30, 0x0194	; 0x800194 <__data_end>
    28f6:	f0 91 95 01 	lds	r31, 0x0195	; 0x800195 <__data_end+0x1>
    28fa:	e3 5b       	subi	r30, 0xB3	; 179
    28fc:	ff 4f       	sbci	r31, 0xFF	; 255
    28fe:	61 81       	ldd	r22, Z+1	; 0x01
    2900:	8c ee       	ldi	r24, 0xEC	; 236
    2902:	90 e0       	ldi	r25, 0x00	; 0
    2904:	0e 94 ee 13 	call	0x27dc	; 0x27dc <_ZN11EEPROMClass6updateEih.isra.1>
    2908:	e0 91 94 01 	lds	r30, 0x0194	; 0x800194 <__data_end>
    290c:	f0 91 95 01 	lds	r31, 0x0195	; 0x800195 <__data_end+0x1>
    2910:	e3 5b       	subi	r30, 0xB3	; 179
    2912:	ff 4f       	sbci	r31, 0xFF	; 255
    2914:	60 81       	ld	r22, Z
    2916:	8d ee       	ldi	r24, 0xED	; 237
    2918:	90 e0       	ldi	r25, 0x00	; 0
    291a:	0c 94 ee 13 	jmp	0x27dc	; 0x27dc <_ZN11EEPROMClass6updateEih.isra.1>

0000291e <_Z25readMeasPatternFromEEPROMi>:
	//EEPROM.update(COMPENSATIONVALUESADDR+2, (uint8_t)((byte)eitModule->compensation_Z_Re));//(eitModule->compensation_Z_Re < 0 ? ((uint8_t)eitModule->compensation_Z_Re | 1<7) : (uint8_t)eitModule->compensation_Z_Re));
	//EEPROM.update(COMPENSATIONVALUESADDR+3, (uint8_t)((byte)eitModule->compensation_Z_Im));//(eitModule->compensation_Z_Im < 0 ? ((uint8_t)eitModule->compensation_Z_Im | 1<7) : (uint8_t)eitModule->compensation_Z_Im));
}

// Read meas_pattern from EEPROM (binary):
void readMeasPatternFromEEPROM(int patternIdx){
    291e:	ef 92       	push	r14
    2920:	ff 92       	push	r15
    2922:	0f 93       	push	r16
    2924:	1f 93       	push	r17
    2926:	cf 93       	push	r28
    2928:	df 93       	push	r29
	// Get Data:
	for(int i = 0; i<MEASURE_NUMBER_PER_STIMULATION; i++){
		eitModule->meas_pattern[i] = EEPROM.read(MEASPATTERNADDR + patternIdx*MEASURE_NUMBER_PER_STIMULATION + i);
    292a:	c0 91 94 01 	lds	r28, 0x0194	; 0x800194 <__data_end>
    292e:	d0 91 95 01 	lds	r29, 0x0195	; 0x800195 <__data_end+0x1>
    2932:	2d e0       	ldi	r18, 0x0D	; 13
    2934:	ac 01       	movw	r20, r24
    2936:	24 9f       	mul	r18, r20
    2938:	c0 01       	movw	r24, r0
    293a:	25 9f       	mul	r18, r21
    293c:	90 0d       	add	r25, r0
    293e:	11 24       	eor	r1, r1
    2940:	7e 01       	movw	r14, r28
    2942:	5d e0       	ldi	r21, 0x0D	; 13
    2944:	e5 0e       	add	r14, r21
    2946:	f1 1c       	adc	r15, r1
    2948:	8c 01       	movw	r16, r24
    294a:	0c 1b       	sub	r16, r28
    294c:	1d 0b       	sbc	r17, r29
    294e:	c8 01       	movw	r24, r16
    2950:	8c 0f       	add	r24, r28
    2952:	9d 1f       	adc	r25, r29
    2954:	0e 94 02 14 	call	0x2804	; 0x2804 <_ZN11EEPROMClass4readEi.isra.0>
    2958:	89 93       	st	Y+, r24
}

// Read meas_pattern from EEPROM (binary):
void readMeasPatternFromEEPROM(int patternIdx){
	// Get Data:
	for(int i = 0; i<MEASURE_NUMBER_PER_STIMULATION; i++){
    295a:	ce 15       	cp	r28, r14
    295c:	df 05       	cpc	r29, r15
    295e:	b9 f7       	brne	.-18     	; 0x294e <_Z25readMeasPatternFromEEPROMi+0x30>
		eitModule->meas_pattern[i] = EEPROM.read(MEASPATTERNADDR + patternIdx*MEASURE_NUMBER_PER_STIMULATION + i);
	}
}
    2960:	df 91       	pop	r29
    2962:	cf 91       	pop	r28
    2964:	1f 91       	pop	r17
    2966:	0f 91       	pop	r16
    2968:	ff 90       	pop	r15
    296a:	ef 90       	pop	r14
    296c:	08 95       	ret

0000296e <_Z25readStimPatternFromEEPROMi>:

// Read stim_pattern from EEPROM (binary):
void readStimPatternFromEEPROM(int patternIdx){
    296e:	cf 93       	push	r28
    2970:	df 93       	push	r29
	// Get Data:
	eitModule->stim_pattern = EEPROM.read(STIMPATTERNADDR + patternIdx);
    2972:	c0 91 94 01 	lds	r28, 0x0194	; 0x800194 <__data_end>
    2976:	d0 91 95 01 	lds	r29, 0x0195	; 0x800195 <__data_end+0x1>
    297a:	8e 52       	subi	r24, 0x2E	; 46
    297c:	9f 4f       	sbci	r25, 0xFF	; 255
    297e:	0e 94 02 14 	call	0x2804	; 0x2804 <_ZN11EEPROMClass4readEi.isra.0>
    2982:	8d 87       	std	Y+13, r24	; 0x0d
	eitModule->stim_current = EEPROM.read(STIMPATTERNADDR + ELECTRODE_NUMBER);
    2984:	82 ee       	ldi	r24, 0xE2	; 226
    2986:	90 e0       	ldi	r25, 0x00	; 0
    2988:	0e 94 02 14 	call	0x2804	; 0x2804 <_ZN11EEPROMClass4readEi.isra.0>
    298c:	8e 87       	std	Y+14, r24	; 0x0e
}
    298e:	df 91       	pop	r29
    2990:	cf 91       	pop	r28
    2992:	08 95       	ret

00002994 <_Z26readCompensationFromEEPROMv>:

// Read compensation values from EEPROM:
void readCompensationFromEEPROM(){
    2994:	0f 93       	push	r16
    2996:	1f 93       	push	r17
    2998:	cf 93       	push	r28
	eitModule->compensation_V_Re = (EEPROM.read(COMPENSATIONVALUESADDR                                   )<<8) +  EEPROM.read(COMPENSATIONVALUESADDR                                 +1);
    299a:	00 91 94 01 	lds	r16, 0x0194	; 0x800194 <__data_end>
    299e:	10 91 95 01 	lds	r17, 0x0195	; 0x800195 <__data_end+0x1>
    29a2:	86 ee       	ldi	r24, 0xE6	; 230
    29a4:	90 e0       	ldi	r25, 0x00	; 0
    29a6:	0e 94 02 14 	call	0x2804	; 0x2804 <_ZN11EEPROMClass4readEi.isra.0>
    29aa:	c8 2f       	mov	r28, r24
    29ac:	87 ee       	ldi	r24, 0xE7	; 231
    29ae:	90 e0       	ldi	r25, 0x00	; 0
    29b0:	0e 94 02 14 	call	0x2804	; 0x2804 <_ZN11EEPROMClass4readEi.isra.0>
    29b4:	f8 01       	movw	r30, r16
    29b6:	e1 5b       	subi	r30, 0xB1	; 177
    29b8:	ff 4f       	sbci	r31, 0xFF	; 255
    29ba:	2c 2f       	mov	r18, r28
    29bc:	30 e0       	ldi	r19, 0x00	; 0
    29be:	32 2f       	mov	r19, r18
    29c0:	22 27       	eor	r18, r18
    29c2:	28 0f       	add	r18, r24
    29c4:	31 1d       	adc	r19, r1
    29c6:	31 83       	std	Z+1, r19	; 0x01
    29c8:	20 83       	st	Z, r18
	eitModule->compensation_V_Im = (EEPROM.read(COMPENSATIONVALUESADDR+1*BYTESIZE_OF_COMPENSATIONVALUES  )<<8) +  EEPROM.read(COMPENSATIONVALUESADDR+1*BYTESIZE_OF_COMPENSATIONVALUES+1);
    29ca:	88 ee       	ldi	r24, 0xE8	; 232
    29cc:	90 e0       	ldi	r25, 0x00	; 0
    29ce:	0e 94 02 14 	call	0x2804	; 0x2804 <_ZN11EEPROMClass4readEi.isra.0>
    29d2:	c8 2f       	mov	r28, r24
    29d4:	89 ee       	ldi	r24, 0xE9	; 233
    29d6:	90 e0       	ldi	r25, 0x00	; 0
    29d8:	0e 94 02 14 	call	0x2804	; 0x2804 <_ZN11EEPROMClass4readEi.isra.0>
    29dc:	f8 01       	movw	r30, r16
    29de:	ef 5a       	subi	r30, 0xAF	; 175
    29e0:	ff 4f       	sbci	r31, 0xFF	; 255
    29e2:	2c 2f       	mov	r18, r28
    29e4:	30 e0       	ldi	r19, 0x00	; 0
    29e6:	32 2f       	mov	r19, r18
    29e8:	22 27       	eor	r18, r18
    29ea:	28 0f       	add	r18, r24
    29ec:	31 1d       	adc	r19, r1
    29ee:	31 83       	std	Z+1, r19	; 0x01
    29f0:	20 83       	st	Z, r18
	eitModule->compensation_Z_Re = (EEPROM.read(COMPENSATIONVALUESADDR+2*BYTESIZE_OF_COMPENSATIONVALUES  )<<8) +  EEPROM.read(COMPENSATIONVALUESADDR+2*BYTESIZE_OF_COMPENSATIONVALUES+1);
    29f2:	8a ee       	ldi	r24, 0xEA	; 234
    29f4:	90 e0       	ldi	r25, 0x00	; 0
    29f6:	0e 94 02 14 	call	0x2804	; 0x2804 <_ZN11EEPROMClass4readEi.isra.0>
    29fa:	c8 2f       	mov	r28, r24
    29fc:	8b ee       	ldi	r24, 0xEB	; 235
    29fe:	90 e0       	ldi	r25, 0x00	; 0
    2a00:	0e 94 02 14 	call	0x2804	; 0x2804 <_ZN11EEPROMClass4readEi.isra.0>
    2a04:	f8 01       	movw	r30, r16
    2a06:	e5 5b       	subi	r30, 0xB5	; 181
    2a08:	ff 4f       	sbci	r31, 0xFF	; 255
    2a0a:	2c 2f       	mov	r18, r28
    2a0c:	30 e0       	ldi	r19, 0x00	; 0
    2a0e:	32 2f       	mov	r19, r18
    2a10:	22 27       	eor	r18, r18
    2a12:	28 0f       	add	r18, r24
    2a14:	31 1d       	adc	r19, r1
    2a16:	31 83       	std	Z+1, r19	; 0x01
    2a18:	20 83       	st	Z, r18
	eitModule->compensation_Z_Im = (EEPROM.read(COMPENSATIONVALUESADDR+3*BYTESIZE_OF_COMPENSATIONVALUES  )<<8) +  EEPROM.read(COMPENSATIONVALUESADDR+3*BYTESIZE_OF_COMPENSATIONVALUES+1);
    2a1a:	8c ee       	ldi	r24, 0xEC	; 236
    2a1c:	90 e0       	ldi	r25, 0x00	; 0
    2a1e:	0e 94 02 14 	call	0x2804	; 0x2804 <_ZN11EEPROMClass4readEi.isra.0>
    2a22:	c8 2f       	mov	r28, r24
    2a24:	8d ee       	ldi	r24, 0xED	; 237
    2a26:	90 e0       	ldi	r25, 0x00	; 0
    2a28:	0e 94 02 14 	call	0x2804	; 0x2804 <_ZN11EEPROMClass4readEi.isra.0>
    2a2c:	f8 01       	movw	r30, r16
    2a2e:	e3 5b       	subi	r30, 0xB3	; 179
    2a30:	ff 4f       	sbci	r31, 0xFF	; 255
    2a32:	2c 2f       	mov	r18, r28
    2a34:	30 e0       	ldi	r19, 0x00	; 0
    2a36:	32 2f       	mov	r19, r18
    2a38:	22 27       	eor	r18, r18
    2a3a:	28 0f       	add	r18, r24
    2a3c:	31 1d       	adc	r19, r1
    2a3e:	31 83       	std	Z+1, r19	; 0x01
    2a40:	20 83       	st	Z, r18
}
    2a42:	cf 91       	pop	r28
    2a44:	1f 91       	pop	r17
    2a46:	0f 91       	pop	r16
    2a48:	08 95       	ret

00002a4a <_Z16printMeasPatternv>:
	writeStimPatternToEEPROM(patternIdx);
  //printStimPattern();
}

// Print meas_pattern (binary):
void printMeasPattern(){
    2a4a:	cf 92       	push	r12
    2a4c:	df 92       	push	r13
    2a4e:	ef 92       	push	r14
    2a50:	ff 92       	push	r15
    2a52:	0f 93       	push	r16
    2a54:	1f 93       	push	r17
    2a56:	cf 93       	push	r28
    2a58:	df 93       	push	r29
	uint8_t negPos;
	uint8_t posPos;
	Serial.println(F("["));
    2a5a:	61 e7       	ldi	r22, 0x71	; 113
    2a5c:	72 e0       	ldi	r23, 0x02	; 2
    2a5e:	87 e9       	ldi	r24, 0x97	; 151
    2a60:	91 e0       	ldi	r25, 0x01	; 1
    2a62:	0e 94 83 23 	call	0x4706	; 0x4706 <_ZN5Print7printlnEPK19__FlashStringHelper>
	for (int h = 0; h<MEASURE_NUMBER_PER_STIMULATION; h++){
    2a66:	e1 2c       	mov	r14, r1
    2a68:	f1 2c       	mov	r15, r1
		Serial.print(F("["));
    2a6a:	6f e6       	ldi	r22, 0x6F	; 111
    2a6c:	72 e0       	ldi	r23, 0x02	; 2
    2a6e:	87 e9       	ldi	r24, 0x97	; 151
    2a70:	91 e0       	ldi	r25, 0x01	; 1
    2a72:	0e 94 52 23 	call	0x46a4	; 0x46a4 <_ZN5Print5printEPK19__FlashStringHelper>
		negPos = eitModule->meas_pattern[h]>>4;
    2a76:	e0 91 94 01 	lds	r30, 0x0194	; 0x800194 <__data_end>
    2a7a:	f0 91 95 01 	lds	r31, 0x0195	; 0x800195 <__data_end+0x1>
    2a7e:	ee 0d       	add	r30, r14
    2a80:	ff 1d       	adc	r31, r15
    2a82:	00 81       	ld	r16, Z
    2a84:	c0 2e       	mov	r12, r16
    2a86:	d1 2c       	mov	r13, r1
    2a88:	84 e0       	ldi	r24, 0x04	; 4
    2a8a:	d5 94       	asr	r13
    2a8c:	c7 94       	ror	r12
    2a8e:	8a 95       	dec	r24
    2a90:	e1 f7       	brne	.-8      	; 0x2a8a <_Z16printMeasPatternv+0x40>
		posPos = eitModule->meas_pattern[h] & 0x0F;
    2a92:	0f 70       	andi	r16, 0x0F	; 15
		for (int i = 0; i<ELECTRODE_NUMBER; i++){
    2a94:	c0 e0       	ldi	r28, 0x00	; 0
    2a96:	d0 e0       	ldi	r29, 0x00	; 0
			if(i == negPos){Serial.print(F("-1"));}
			else if(i == posPos){Serial.print(F(" 1"));}
    2a98:	10 e0       	ldi	r17, 0x00	; 0
	for (int h = 0; h<MEASURE_NUMBER_PER_STIMULATION; h++){
		Serial.print(F("["));
		negPos = eitModule->meas_pattern[h]>>4;
		posPos = eitModule->meas_pattern[h] & 0x0F;
		for (int i = 0; i<ELECTRODE_NUMBER; i++){
			if(i == negPos){Serial.print(F("-1"));}
    2a9a:	cc 16       	cp	r12, r28
    2a9c:	dd 06       	cpc	r13, r29
    2a9e:	19 f4       	brne	.+6      	; 0x2aa6 <_Z16printMeasPatternv+0x5c>
    2aa0:	6c e6       	ldi	r22, 0x6C	; 108
    2aa2:	72 e0       	ldi	r23, 0x02	; 2
    2aa4:	08 c0       	rjmp	.+16     	; 0x2ab6 <_Z16printMeasPatternv+0x6c>
			else if(i == posPos){Serial.print(F(" 1"));}
    2aa6:	0c 17       	cp	r16, r28
    2aa8:	1d 07       	cpc	r17, r29
    2aaa:	19 f4       	brne	.+6      	; 0x2ab2 <_Z16printMeasPatternv+0x68>
    2aac:	69 e6       	ldi	r22, 0x69	; 105
    2aae:	72 e0       	ldi	r23, 0x02	; 2
    2ab0:	02 c0       	rjmp	.+4      	; 0x2ab6 <_Z16printMeasPatternv+0x6c>
			else {Serial.print(F(" 0"));}
    2ab2:	66 e6       	ldi	r22, 0x66	; 102
    2ab4:	72 e0       	ldi	r23, 0x02	; 2
    2ab6:	87 e9       	ldi	r24, 0x97	; 151
    2ab8:	91 e0       	ldi	r25, 0x01	; 1
    2aba:	0e 94 52 23 	call	0x46a4	; 0x46a4 <_ZN5Print5printEPK19__FlashStringHelper>
			// Comma:
			if(i < ELECTRODE_NUMBER-1){Serial.print(F(", "));}
    2abe:	cf 30       	cpi	r28, 0x0F	; 15
    2ac0:	d1 05       	cpc	r29, r1
    2ac2:	31 f0       	breq	.+12     	; 0x2ad0 <_Z16printMeasPatternv+0x86>
    2ac4:	63 e6       	ldi	r22, 0x63	; 99
    2ac6:	72 e0       	ldi	r23, 0x02	; 2
    2ac8:	87 e9       	ldi	r24, 0x97	; 151
    2aca:	91 e0       	ldi	r25, 0x01	; 1
    2acc:	0e 94 52 23 	call	0x46a4	; 0x46a4 <_ZN5Print5printEPK19__FlashStringHelper>
	Serial.println(F("["));
	for (int h = 0; h<MEASURE_NUMBER_PER_STIMULATION; h++){
		Serial.print(F("["));
		negPos = eitModule->meas_pattern[h]>>4;
		posPos = eitModule->meas_pattern[h] & 0x0F;
		for (int i = 0; i<ELECTRODE_NUMBER; i++){
    2ad0:	21 96       	adiw	r28, 0x01	; 1
    2ad2:	c0 31       	cpi	r28, 0x10	; 16
    2ad4:	d1 05       	cpc	r29, r1
    2ad6:	09 f7       	brne	.-62     	; 0x2a9a <_Z16printMeasPatternv+0x50>
			else if(i == posPos){Serial.print(F(" 1"));}
			else {Serial.print(F(" 0"));}
			// Comma:
			if(i < ELECTRODE_NUMBER-1){Serial.print(F(", "));}
		}
		Serial.println(F("];"));
    2ad8:	60 e6       	ldi	r22, 0x60	; 96
    2ada:	72 e0       	ldi	r23, 0x02	; 2
    2adc:	87 e9       	ldi	r24, 0x97	; 151
    2ade:	91 e0       	ldi	r25, 0x01	; 1
    2ae0:	0e 94 83 23 	call	0x4706	; 0x4706 <_ZN5Print7printlnEPK19__FlashStringHelper>
// Print meas_pattern (binary):
void printMeasPattern(){
	uint8_t negPos;
	uint8_t posPos;
	Serial.println(F("["));
	for (int h = 0; h<MEASURE_NUMBER_PER_STIMULATION; h++){
    2ae4:	8f ef       	ldi	r24, 0xFF	; 255
    2ae6:	e8 1a       	sub	r14, r24
    2ae8:	f8 0a       	sbc	r15, r24
    2aea:	8d e0       	ldi	r24, 0x0D	; 13
    2aec:	e8 16       	cp	r14, r24
    2aee:	f1 04       	cpc	r15, r1
    2af0:	09 f0       	breq	.+2      	; 0x2af4 <_Z16printMeasPatternv+0xaa>
    2af2:	bb cf       	rjmp	.-138    	; 0x2a6a <_Z16printMeasPatternv+0x20>
			// Comma:
			if(i < ELECTRODE_NUMBER-1){Serial.print(F(", "));}
		}
		Serial.println(F("];"));
	}
	Serial.println(F("]"));
    2af4:	6e e5       	ldi	r22, 0x5E	; 94
    2af6:	72 e0       	ldi	r23, 0x02	; 2
    2af8:	87 e9       	ldi	r24, 0x97	; 151
    2afa:	91 e0       	ldi	r25, 0x01	; 1
}
    2afc:	df 91       	pop	r29
    2afe:	cf 91       	pop	r28
    2b00:	1f 91       	pop	r17
    2b02:	0f 91       	pop	r16
    2b04:	ff 90       	pop	r15
    2b06:	ef 90       	pop	r14
    2b08:	df 90       	pop	r13
    2b0a:	cf 90       	pop	r12
			// Comma:
			if(i < ELECTRODE_NUMBER-1){Serial.print(F(", "));}
		}
		Serial.println(F("];"));
	}
	Serial.println(F("]"));
    2b0c:	0c 94 83 23 	jmp	0x4706	; 0x4706 <_ZN5Print7printlnEPK19__FlashStringHelper>

00002b10 <_Z16printStimPatternv>:
}

// Print stim_pattern (binary):
void printStimPattern(){
    2b10:	ef 92       	push	r14
    2b12:	ff 92       	push	r15
    2b14:	0f 93       	push	r16
    2b16:	1f 93       	push	r17
    2b18:	cf 93       	push	r28
    2b1a:	df 93       	push	r29
	Serial.print(F("["));
    2b1c:	6c e5       	ldi	r22, 0x5C	; 92
    2b1e:	72 e0       	ldi	r23, 0x02	; 2
    2b20:	87 e9       	ldi	r24, 0x97	; 151
    2b22:	91 e0       	ldi	r25, 0x01	; 1
    2b24:	0e 94 52 23 	call	0x46a4	; 0x46a4 <_ZN5Print5printEPK19__FlashStringHelper>
	uint8_t negPos = eitModule->stim_pattern>>4;
    2b28:	e0 91 94 01 	lds	r30, 0x0194	; 0x800194 <__data_end>
    2b2c:	f0 91 95 01 	lds	r31, 0x0195	; 0x800195 <__data_end+0x1>
    2b30:	05 85       	ldd	r16, Z+13	; 0x0d
    2b32:	e0 2e       	mov	r14, r16
    2b34:	f1 2c       	mov	r15, r1
    2b36:	84 e0       	ldi	r24, 0x04	; 4
    2b38:	f5 94       	asr	r15
    2b3a:	e7 94       	ror	r14
    2b3c:	8a 95       	dec	r24
    2b3e:	e1 f7       	brne	.-8      	; 0x2b38 <_Z16printStimPatternv+0x28>
	uint8_t posPos = eitModule->stim_pattern & 0x0F;
    2b40:	0f 70       	andi	r16, 0x0F	; 15
	for (int i = 0; i<ELECTRODE_NUMBER; i++){
    2b42:	c0 e0       	ldi	r28, 0x00	; 0
    2b44:	d0 e0       	ldi	r29, 0x00	; 0
		if(i == negPos){Serial.print(F("-"));Serial.print(eitModule->stim_current); }
		else if(i == posPos){Serial.print(F(" "));Serial.print(eitModule->stim_current);}
    2b46:	10 e0       	ldi	r17, 0x00	; 0
void printStimPattern(){
	Serial.print(F("["));
	uint8_t negPos = eitModule->stim_pattern>>4;
	uint8_t posPos = eitModule->stim_pattern & 0x0F;
	for (int i = 0; i<ELECTRODE_NUMBER; i++){
		if(i == negPos){Serial.print(F("-"));Serial.print(eitModule->stim_current); }
    2b48:	ec 16       	cp	r14, r28
    2b4a:	fd 06       	cpc	r15, r29
    2b4c:	19 f4       	brne	.+6      	; 0x2b54 <_Z16printStimPatternv+0x44>
    2b4e:	6a e5       	ldi	r22, 0x5A	; 90
    2b50:	72 e0       	ldi	r23, 0x02	; 2
    2b52:	05 c0       	rjmp	.+10     	; 0x2b5e <_Z16printStimPatternv+0x4e>
		else if(i == posPos){Serial.print(F(" "));Serial.print(eitModule->stim_current);}
    2b54:	0c 17       	cp	r16, r28
    2b56:	1d 07       	cpc	r17, r29
    2b58:	91 f4       	brne	.+36     	; 0x2b7e <_Z16printStimPatternv+0x6e>
    2b5a:	68 e5       	ldi	r22, 0x58	; 88
    2b5c:	72 e0       	ldi	r23, 0x02	; 2
    2b5e:	87 e9       	ldi	r24, 0x97	; 151
    2b60:	91 e0       	ldi	r25, 0x01	; 1
    2b62:	0e 94 52 23 	call	0x46a4	; 0x46a4 <_ZN5Print5printEPK19__FlashStringHelper>
    2b66:	e0 91 94 01 	lds	r30, 0x0194	; 0x800194 <__data_end>
    2b6a:	f0 91 95 01 	lds	r31, 0x0195	; 0x800195 <__data_end+0x1>
    2b6e:	4a e0       	ldi	r20, 0x0A	; 10
    2b70:	50 e0       	ldi	r21, 0x00	; 0
    2b72:	66 85       	ldd	r22, Z+14	; 0x0e
    2b74:	87 e9       	ldi	r24, 0x97	; 151
    2b76:	91 e0       	ldi	r25, 0x01	; 1
    2b78:	0e 94 fd 23 	call	0x47fa	; 0x47fa <_ZN5Print5printEhi>
    2b7c:	06 c0       	rjmp	.+12     	; 0x2b8a <_Z16printStimPatternv+0x7a>
		else {Serial.print(F(" 0"));}
    2b7e:	65 e5       	ldi	r22, 0x55	; 85
    2b80:	72 e0       	ldi	r23, 0x02	; 2
    2b82:	87 e9       	ldi	r24, 0x97	; 151
    2b84:	91 e0       	ldi	r25, 0x01	; 1
    2b86:	0e 94 52 23 	call	0x46a4	; 0x46a4 <_ZN5Print5printEPK19__FlashStringHelper>
		// Comma:
		if(i < ELECTRODE_NUMBER-1){Serial.print(F(", "));}
    2b8a:	cf 30       	cpi	r28, 0x0F	; 15
    2b8c:	d1 05       	cpc	r29, r1
    2b8e:	31 f0       	breq	.+12     	; 0x2b9c <_Z16printStimPatternv+0x8c>
    2b90:	62 e5       	ldi	r22, 0x52	; 82
    2b92:	72 e0       	ldi	r23, 0x02	; 2
    2b94:	87 e9       	ldi	r24, 0x97	; 151
    2b96:	91 e0       	ldi	r25, 0x01	; 1
    2b98:	0e 94 52 23 	call	0x46a4	; 0x46a4 <_ZN5Print5printEPK19__FlashStringHelper>
// Print stim_pattern (binary):
void printStimPattern(){
	Serial.print(F("["));
	uint8_t negPos = eitModule->stim_pattern>>4;
	uint8_t posPos = eitModule->stim_pattern & 0x0F;
	for (int i = 0; i<ELECTRODE_NUMBER; i++){
    2b9c:	21 96       	adiw	r28, 0x01	; 1
    2b9e:	c0 31       	cpi	r28, 0x10	; 16
    2ba0:	d1 05       	cpc	r29, r1
    2ba2:	91 f6       	brne	.-92     	; 0x2b48 <_Z16printStimPatternv+0x38>
		else if(i == posPos){Serial.print(F(" "));Serial.print(eitModule->stim_current);}
		else {Serial.print(F(" 0"));}
		// Comma:
		if(i < ELECTRODE_NUMBER-1){Serial.print(F(", "));}
	}
	Serial.println(F("]"));
    2ba4:	60 e5       	ldi	r22, 0x50	; 80
    2ba6:	72 e0       	ldi	r23, 0x02	; 2
    2ba8:	87 e9       	ldi	r24, 0x97	; 151
    2baa:	91 e0       	ldi	r25, 0x01	; 1
}
    2bac:	df 91       	pop	r29
    2bae:	cf 91       	pop	r28
    2bb0:	1f 91       	pop	r17
    2bb2:	0f 91       	pop	r16
    2bb4:	ff 90       	pop	r15
    2bb6:	ef 90       	pop	r14
		else if(i == posPos){Serial.print(F(" "));Serial.print(eitModule->stim_current);}
		else {Serial.print(F(" 0"));}
		// Comma:
		if(i < ELECTRODE_NUMBER-1){Serial.print(F(", "));}
	}
	Serial.println(F("]"));
    2bb8:	0c 94 83 23 	jmp	0x4706	; 0x4706 <_ZN5Print7printlnEPK19__FlashStringHelper>

00002bbc <_Z8gpioReadh>:
}

// GPIO-Read:
uint8_t gpioRead(uint8_t port){
    2bbc:	0f 93       	push	r16
    2bbe:	1f 93       	push	r17
    2bc0:	cf 93       	push	r28
    2bc2:	df 93       	push	r29
	if(port == GPIO_PORT_1){
    2bc4:	81 30       	cpi	r24, 0x01	; 1
    2bc6:	41 f5       	brne	.+80     	; 0x2c18 <_Z8gpioReadh+0x5c>
		return(((uint8_t)digitalRead(GPIO_PORT_1_PIN_5))<<5 |((uint8_t)digitalRead(GPIO_PORT_1_PIN_4))<<4 | ((uint8_t)digitalRead(GPIO_PORT_1_PIN_3))<<3 | ((uint8_t)digitalRead(GPIO_PORT_1_PIN_2))<<2 | ((uint8_t)digitalRead(GPIO_PORT_1_PIN_1))<<1 | ((uint8_t)digitalRead(GPIO_PORT_1_PIN_0)));
    2bc8:	89 e0       	ldi	r24, 0x09	; 9
    2bca:	0e 94 45 2b 	call	0x568a	; 0x568a <digitalRead>
    2bce:	c8 2f       	mov	r28, r24
    2bd0:	88 e0       	ldi	r24, 0x08	; 8
    2bd2:	0e 94 45 2b 	call	0x568a	; 0x568a <digitalRead>
    2bd6:	c2 95       	swap	r28
    2bd8:	cc 0f       	add	r28, r28
    2bda:	c0 7e       	andi	r28, 0xE0	; 224
    2bdc:	82 95       	swap	r24
    2bde:	80 7f       	andi	r24, 0xF0	; 240
    2be0:	c8 2b       	or	r28, r24
    2be2:	87 e0       	ldi	r24, 0x07	; 7
    2be4:	0e 94 45 2b 	call	0x568a	; 0x568a <digitalRead>
    2be8:	08 2f       	mov	r16, r24
    2bea:	86 e0       	ldi	r24, 0x06	; 6
    2bec:	0e 94 45 2b 	call	0x568a	; 0x568a <digitalRead>
    2bf0:	18 2f       	mov	r17, r24
    2bf2:	85 e0       	ldi	r24, 0x05	; 5
    2bf4:	0e 94 45 2b 	call	0x568a	; 0x568a <digitalRead>
    2bf8:	d8 2f       	mov	r29, r24
    2bfa:	84 e0       	ldi	r24, 0x04	; 4
    2bfc:	0e 94 45 2b 	call	0x568a	; 0x568a <digitalRead>
    2c00:	90 2f       	mov	r25, r16
    2c02:	99 0f       	add	r25, r25
    2c04:	99 0f       	add	r25, r25
    2c06:	99 0f       	add	r25, r25
    2c08:	8c 2b       	or	r24, r28
    2c0a:	98 2b       	or	r25, r24
    2c0c:	81 2f       	mov	r24, r17
    2c0e:	88 0f       	add	r24, r24
    2c10:	88 0f       	add	r24, r24
    2c12:	c8 2f       	mov	r28, r24
    2c14:	c9 2b       	or	r28, r25
    2c16:	1f c0       	rjmp	.+62     	; 0x2c56 <_Z8gpioReadh+0x9a>
		}
	else if(port == GPIO_PORT_2){
    2c18:	82 30       	cpi	r24, 0x02	; 2
    2c1a:	09 f5       	brne	.+66     	; 0x2c5e <_Z8gpioReadh+0xa2>
		return(((uint8_t)digitalRead(GPIO_PORT_2_PIN_4))<<4 | ((uint8_t)digitalRead(GPIO_PORT_2_PIN_3))<<3 | ((uint8_t)digitalRead(GPIO_PORT_2_PIN_2))<<2 | ((uint8_t)digitalRead(GPIO_PORT_2_PIN_1))<<1 | ((uint8_t)digitalRead(GPIO_PORT_2_PIN_0)));
    2c1c:	8a e0       	ldi	r24, 0x0A	; 10
    2c1e:	0e 94 45 2b 	call	0x568a	; 0x568a <digitalRead>
    2c22:	c8 2f       	mov	r28, r24
    2c24:	80 e1       	ldi	r24, 0x10	; 16
    2c26:	0e 94 45 2b 	call	0x568a	; 0x568a <digitalRead>
    2c2a:	c2 95       	swap	r28
    2c2c:	c0 7f       	andi	r28, 0xF0	; 240
    2c2e:	88 0f       	add	r24, r24
    2c30:	88 0f       	add	r24, r24
    2c32:	88 0f       	add	r24, r24
    2c34:	c8 2b       	or	r28, r24
    2c36:	8e e0       	ldi	r24, 0x0E	; 14
    2c38:	0e 94 45 2b 	call	0x568a	; 0x568a <digitalRead>
    2c3c:	18 2f       	mov	r17, r24
    2c3e:	8f e0       	ldi	r24, 0x0F	; 15
    2c40:	0e 94 45 2b 	call	0x568a	; 0x568a <digitalRead>
    2c44:	d8 2f       	mov	r29, r24
    2c46:	82 e1       	ldi	r24, 0x12	; 18
    2c48:	0e 94 45 2b 	call	0x568a	; 0x568a <digitalRead>
    2c4c:	11 0f       	add	r17, r17
    2c4e:	11 0f       	add	r17, r17
    2c50:	8c 2b       	or	r24, r28
    2c52:	c1 2f       	mov	r28, r17
    2c54:	c8 2b       	or	r28, r24
    2c56:	8d 2f       	mov	r24, r29
    2c58:	88 0f       	add	r24, r24
    2c5a:	8c 2b       	or	r24, r28
    2c5c:	11 c0       	rjmp	.+34     	; 0x2c80 <_Z8gpioReadh+0xc4>
	}
	else if(port == GPIO_PORT_3){
    2c5e:	83 30       	cpi	r24, 0x03	; 3
    2c60:	79 f4       	brne	.+30     	; 0x2c80 <_Z8gpioReadh+0xc4>
		return eitModule->mcp23017_ModeExpander->readGPIO(1); // readGPIO of port B
    2c62:	e0 91 94 01 	lds	r30, 0x0194	; 0x800194 <__data_end>
    2c66:	f0 91 95 01 	lds	r31, 0x0195	; 0x800195 <__data_end+0x1>
    2c6a:	ec 50       	subi	r30, 0x0C	; 12
    2c6c:	ff 4f       	sbci	r31, 0xFF	; 255
    2c6e:	61 e0       	ldi	r22, 0x01	; 1
    2c70:	80 81       	ld	r24, Z
    2c72:	91 81       	ldd	r25, Z+1	; 0x01
	}
}
    2c74:	df 91       	pop	r29
    2c76:	cf 91       	pop	r28
    2c78:	1f 91       	pop	r17
    2c7a:	0f 91       	pop	r16
		}
	else if(port == GPIO_PORT_2){
		return(((uint8_t)digitalRead(GPIO_PORT_2_PIN_4))<<4 | ((uint8_t)digitalRead(GPIO_PORT_2_PIN_3))<<3 | ((uint8_t)digitalRead(GPIO_PORT_2_PIN_2))<<2 | ((uint8_t)digitalRead(GPIO_PORT_2_PIN_1))<<1 | ((uint8_t)digitalRead(GPIO_PORT_2_PIN_0)));
	}
	else if(port == GPIO_PORT_3){
		return eitModule->mcp23017_ModeExpander->readGPIO(1); // readGPIO of port B
    2c7c:	0c 94 7f 11 	jmp	0x22fe	; 0x22fe <_ZN8MCP230178readGPIOEh>
	}
}
    2c80:	df 91       	pop	r29
    2c82:	cf 91       	pop	r28
    2c84:	1f 91       	pop	r17
    2c86:	0f 91       	pop	r16
    2c88:	08 95       	ret

00002c8a <_Z9gpioWritehh>:
// GPIO-Write:
void gpioWrite(uint8_t port, uint8_t value){
    2c8a:	cf 93       	push	r28
    2c8c:	c6 2f       	mov	r28, r22
	if(port == GPIO_PORT_1){
    2c8e:	81 30       	cpi	r24, 0x01	; 1
    2c90:	09 f5       	brne	.+66     	; 0x2cd4 <_Z9gpioWritehh+0x4a>
		digitalWrite(GPIO_PORT_1_PIN_0, (value&(1   ))!=0);
    2c92:	61 70       	andi	r22, 0x01	; 1
    2c94:	84 e0       	ldi	r24, 0x04	; 4
    2c96:	0e 94 16 2b 	call	0x562c	; 0x562c <digitalWrite>
		digitalWrite(GPIO_PORT_1_PIN_1, (value&(1<<1))!=0);
    2c9a:	c1 fb       	bst	r28, 1
    2c9c:	66 27       	eor	r22, r22
    2c9e:	60 f9       	bld	r22, 0
    2ca0:	85 e0       	ldi	r24, 0x05	; 5
    2ca2:	0e 94 16 2b 	call	0x562c	; 0x562c <digitalWrite>
		digitalWrite(GPIO_PORT_1_PIN_2, (value&(1<<2))!=0);
    2ca6:	c2 fb       	bst	r28, 2
    2ca8:	66 27       	eor	r22, r22
    2caa:	60 f9       	bld	r22, 0
    2cac:	86 e0       	ldi	r24, 0x06	; 6
    2cae:	0e 94 16 2b 	call	0x562c	; 0x562c <digitalWrite>
		digitalWrite(GPIO_PORT_1_PIN_3, (value&(1<<3))!=0);
    2cb2:	c3 fb       	bst	r28, 3
    2cb4:	66 27       	eor	r22, r22
    2cb6:	60 f9       	bld	r22, 0
    2cb8:	87 e0       	ldi	r24, 0x07	; 7
    2cba:	0e 94 16 2b 	call	0x562c	; 0x562c <digitalWrite>
		digitalWrite(GPIO_PORT_1_PIN_4, (value&(1<<4))!=0);
    2cbe:	c4 fb       	bst	r28, 4
    2cc0:	66 27       	eor	r22, r22
    2cc2:	60 f9       	bld	r22, 0
    2cc4:	88 e0       	ldi	r24, 0x08	; 8
    2cc6:	0e 94 16 2b 	call	0x562c	; 0x562c <digitalWrite>
		digitalWrite(GPIO_PORT_1_PIN_5, (value&(1<<5))!=0);
    2cca:	c5 fb       	bst	r28, 5
    2ccc:	66 27       	eor	r22, r22
    2cce:	60 f9       	bld	r22, 0
    2cd0:	89 e0       	ldi	r24, 0x09	; 9
    2cd2:	1c c0       	rjmp	.+56     	; 0x2d0c <_Z9gpioWritehh+0x82>
	}
	else if(port == GPIO_PORT_2){
    2cd4:	82 30       	cpi	r24, 0x02	; 2
    2cd6:	e9 f4       	brne	.+58     	; 0x2d12 <_Z9gpioWritehh+0x88>
		digitalWrite(GPIO_PORT_2_PIN_0, (value&(1   ))!=0);
    2cd8:	61 70       	andi	r22, 0x01	; 1
    2cda:	82 e1       	ldi	r24, 0x12	; 18
    2cdc:	0e 94 16 2b 	call	0x562c	; 0x562c <digitalWrite>
		digitalWrite(GPIO_PORT_2_PIN_1, (value&(1<<1))!=0);
    2ce0:	c1 fb       	bst	r28, 1
    2ce2:	66 27       	eor	r22, r22
    2ce4:	60 f9       	bld	r22, 0
    2ce6:	8f e0       	ldi	r24, 0x0F	; 15
    2ce8:	0e 94 16 2b 	call	0x562c	; 0x562c <digitalWrite>
		digitalWrite(GPIO_PORT_2_PIN_2, (value&(1<<2))!=0);
    2cec:	c2 fb       	bst	r28, 2
    2cee:	66 27       	eor	r22, r22
    2cf0:	60 f9       	bld	r22, 0
    2cf2:	8e e0       	ldi	r24, 0x0E	; 14
    2cf4:	0e 94 16 2b 	call	0x562c	; 0x562c <digitalWrite>
		digitalWrite(GPIO_PORT_2_PIN_3, (value&(1<<3))!=0);
    2cf8:	c3 fb       	bst	r28, 3
    2cfa:	66 27       	eor	r22, r22
    2cfc:	60 f9       	bld	r22, 0
    2cfe:	80 e1       	ldi	r24, 0x10	; 16
    2d00:	0e 94 16 2b 	call	0x562c	; 0x562c <digitalWrite>
		digitalWrite(GPIO_PORT_2_PIN_4, (value&(1<<4))!=0);
    2d04:	c4 fb       	bst	r28, 4
    2d06:	66 27       	eor	r22, r22
    2d08:	60 f9       	bld	r22, 0
    2d0a:	8a e0       	ldi	r24, 0x0A	; 10
	}
	else if(port == GPIO_PORT_3){
		eitModule->mcp23017_ModeExpander->writeRegister(MCP23017_GPIOB, value);	// Write directly into register
	}
}
    2d0c:	cf 91       	pop	r28
	else if(port == GPIO_PORT_2){
		digitalWrite(GPIO_PORT_2_PIN_0, (value&(1   ))!=0);
		digitalWrite(GPIO_PORT_2_PIN_1, (value&(1<<1))!=0);
		digitalWrite(GPIO_PORT_2_PIN_2, (value&(1<<2))!=0);
		digitalWrite(GPIO_PORT_2_PIN_3, (value&(1<<3))!=0);
		digitalWrite(GPIO_PORT_2_PIN_4, (value&(1<<4))!=0);
    2d0e:	0c 94 16 2b 	jmp	0x562c	; 0x562c <digitalWrite>
	}
	else if(port == GPIO_PORT_3){
    2d12:	83 30       	cpi	r24, 0x03	; 3
    2d14:	69 f4       	brne	.+26     	; 0x2d30 <_Z9gpioWritehh+0xa6>
		eitModule->mcp23017_ModeExpander->writeRegister(MCP23017_GPIOB, value);	// Write directly into register
    2d16:	e0 91 94 01 	lds	r30, 0x0194	; 0x800194 <__data_end>
    2d1a:	f0 91 95 01 	lds	r31, 0x0195	; 0x800195 <__data_end+0x1>
    2d1e:	ec 50       	subi	r30, 0x0C	; 12
    2d20:	ff 4f       	sbci	r31, 0xFF	; 255
    2d22:	46 2f       	mov	r20, r22
    2d24:	63 e1       	ldi	r22, 0x13	; 19
    2d26:	80 81       	ld	r24, Z
    2d28:	91 81       	ldd	r25, Z+1	; 0x01
	}
}
    2d2a:	cf 91       	pop	r28
		digitalWrite(GPIO_PORT_2_PIN_2, (value&(1<<2))!=0);
		digitalWrite(GPIO_PORT_2_PIN_3, (value&(1<<3))!=0);
		digitalWrite(GPIO_PORT_2_PIN_4, (value&(1<<4))!=0);
	}
	else if(port == GPIO_PORT_3){
		eitModule->mcp23017_ModeExpander->writeRegister(MCP23017_GPIOB, value);	// Write directly into register
    2d2c:	0c 94 ad 10 	jmp	0x215a	; 0x215a <_ZN8MCP2301713writeRegisterEhh>
	}
}
    2d30:	cf 91       	pop	r28
    2d32:	08 95       	ret

00002d34 <_Z8gpioModehh>:
// GPIO-Write:
void gpioMode(uint8_t port, uint8_t value){
    2d34:	cf 93       	push	r28
    2d36:	c6 2f       	mov	r28, r22
	// 0 for input, 1 for output, single bits are relevant!
	if(port == GPIO_PORT_1){
    2d38:	81 30       	cpi	r24, 0x01	; 1
    2d3a:	09 f5       	brne	.+66     	; 0x2d7e <_Z8gpioModehh+0x4a>
		pinMode(GPIO_PORT_1_PIN_0, (value&(1   ))!=0);
    2d3c:	61 70       	andi	r22, 0x01	; 1
    2d3e:	84 e0       	ldi	r24, 0x04	; 4
    2d40:	0e 94 da 2a 	call	0x55b4	; 0x55b4 <pinMode>
		pinMode(GPIO_PORT_1_PIN_1, (value&(1<<1))!=0);
    2d44:	c1 fb       	bst	r28, 1
    2d46:	66 27       	eor	r22, r22
    2d48:	60 f9       	bld	r22, 0
    2d4a:	85 e0       	ldi	r24, 0x05	; 5
    2d4c:	0e 94 da 2a 	call	0x55b4	; 0x55b4 <pinMode>
		pinMode(GPIO_PORT_1_PIN_2, (value&(1<<2))!=0);
    2d50:	c2 fb       	bst	r28, 2
    2d52:	66 27       	eor	r22, r22
    2d54:	60 f9       	bld	r22, 0
    2d56:	86 e0       	ldi	r24, 0x06	; 6
    2d58:	0e 94 da 2a 	call	0x55b4	; 0x55b4 <pinMode>
		pinMode(GPIO_PORT_1_PIN_3, (value&(1<<3))!=0);
    2d5c:	c3 fb       	bst	r28, 3
    2d5e:	66 27       	eor	r22, r22
    2d60:	60 f9       	bld	r22, 0
    2d62:	87 e0       	ldi	r24, 0x07	; 7
    2d64:	0e 94 da 2a 	call	0x55b4	; 0x55b4 <pinMode>
		pinMode(GPIO_PORT_1_PIN_4, (value&(1<<4))!=0);
    2d68:	c4 fb       	bst	r28, 4
    2d6a:	66 27       	eor	r22, r22
    2d6c:	60 f9       	bld	r22, 0
    2d6e:	88 e0       	ldi	r24, 0x08	; 8
    2d70:	0e 94 da 2a 	call	0x55b4	; 0x55b4 <pinMode>
		pinMode(GPIO_PORT_1_PIN_5, (value&(1<<5))!=0);
    2d74:	c5 fb       	bst	r28, 5
    2d76:	66 27       	eor	r22, r22
    2d78:	60 f9       	bld	r22, 0
    2d7a:	89 e0       	ldi	r24, 0x09	; 9
    2d7c:	1c c0       	rjmp	.+56     	; 0x2db6 <_Z8gpioModehh+0x82>
	}
	else if(port == GPIO_PORT_2){
    2d7e:	82 30       	cpi	r24, 0x02	; 2
    2d80:	e9 f4       	brne	.+58     	; 0x2dbc <_Z8gpioModehh+0x88>
		pinMode(GPIO_PORT_2_PIN_0, (value&(1   ))!=0);
    2d82:	61 70       	andi	r22, 0x01	; 1
    2d84:	82 e1       	ldi	r24, 0x12	; 18
    2d86:	0e 94 da 2a 	call	0x55b4	; 0x55b4 <pinMode>
		pinMode(GPIO_PORT_2_PIN_1, (value&(1<<1))!=0);
    2d8a:	c1 fb       	bst	r28, 1
    2d8c:	66 27       	eor	r22, r22
    2d8e:	60 f9       	bld	r22, 0
    2d90:	8f e0       	ldi	r24, 0x0F	; 15
    2d92:	0e 94 da 2a 	call	0x55b4	; 0x55b4 <pinMode>
		pinMode(GPIO_PORT_2_PIN_2, (value&(1<<2))!=0);
    2d96:	c2 fb       	bst	r28, 2
    2d98:	66 27       	eor	r22, r22
    2d9a:	60 f9       	bld	r22, 0
    2d9c:	8e e0       	ldi	r24, 0x0E	; 14
    2d9e:	0e 94 da 2a 	call	0x55b4	; 0x55b4 <pinMode>
		pinMode(GPIO_PORT_2_PIN_3, (value&(1<<3))!=0);
    2da2:	c3 fb       	bst	r28, 3
    2da4:	66 27       	eor	r22, r22
    2da6:	60 f9       	bld	r22, 0
    2da8:	80 e1       	ldi	r24, 0x10	; 16
    2daa:	0e 94 da 2a 	call	0x55b4	; 0x55b4 <pinMode>
		pinMode(GPIO_PORT_2_PIN_4, (value&(1<<4))!=0);
    2dae:	c4 fb       	bst	r28, 4
    2db0:	66 27       	eor	r22, r22
    2db2:	60 f9       	bld	r22, 0
    2db4:	8a e0       	ldi	r24, 0x0A	; 10
	}
	else if(port == GPIO_PORT_3){
		eitModule->mcp23017_ModeExpander->writeRegister(MCP23017_IODIRB, ~value);	// Write IODIR register of port B to given value (@ MCP23017, 1 corresponds to input, so the value has to be inverted)
	}
}
    2db6:	cf 91       	pop	r28
	else if(port == GPIO_PORT_2){
		pinMode(GPIO_PORT_2_PIN_0, (value&(1   ))!=0);
		pinMode(GPIO_PORT_2_PIN_1, (value&(1<<1))!=0);
		pinMode(GPIO_PORT_2_PIN_2, (value&(1<<2))!=0);
		pinMode(GPIO_PORT_2_PIN_3, (value&(1<<3))!=0);
		pinMode(GPIO_PORT_2_PIN_4, (value&(1<<4))!=0);
    2db8:	0c 94 da 2a 	jmp	0x55b4	; 0x55b4 <pinMode>
	}
	else if(port == GPIO_PORT_3){
    2dbc:	83 30       	cpi	r24, 0x03	; 3
    2dbe:	71 f4       	brne	.+28     	; 0x2ddc <_Z8gpioModehh+0xa8>
		eitModule->mcp23017_ModeExpander->writeRegister(MCP23017_IODIRB, ~value);	// Write IODIR register of port B to given value (@ MCP23017, 1 corresponds to input, so the value has to be inverted)
    2dc0:	46 2f       	mov	r20, r22
    2dc2:	40 95       	com	r20
    2dc4:	e0 91 94 01 	lds	r30, 0x0194	; 0x800194 <__data_end>
    2dc8:	f0 91 95 01 	lds	r31, 0x0195	; 0x800195 <__data_end+0x1>
    2dcc:	ec 50       	subi	r30, 0x0C	; 12
    2dce:	ff 4f       	sbci	r31, 0xFF	; 255
    2dd0:	61 e0       	ldi	r22, 0x01	; 1
    2dd2:	80 81       	ld	r24, Z
    2dd4:	91 81       	ldd	r25, Z+1	; 0x01
	}
}
    2dd6:	cf 91       	pop	r28
		pinMode(GPIO_PORT_2_PIN_2, (value&(1<<2))!=0);
		pinMode(GPIO_PORT_2_PIN_3, (value&(1<<3))!=0);
		pinMode(GPIO_PORT_2_PIN_4, (value&(1<<4))!=0);
	}
	else if(port == GPIO_PORT_3){
		eitModule->mcp23017_ModeExpander->writeRegister(MCP23017_IODIRB, ~value);	// Write IODIR register of port B to given value (@ MCP23017, 1 corresponds to input, so the value has to be inverted)
    2dd8:	0c 94 ad 10 	jmp	0x215a	; 0x215a <_ZN8MCP2301713writeRegisterEhh>
	}
}
    2ddc:	cf 91       	pop	r28
    2dde:	08 95       	ret

00002de0 <_Z13sendCalibDatav>:


// Sequence of sending Calibration Data:
void sendCalibData(){
    2de0:	8f 92       	push	r8
    2de2:	9f 92       	push	r9
    2de4:	af 92       	push	r10
    2de6:	bf 92       	push	r11
    2de8:	cf 92       	push	r12
    2dea:	df 92       	push	r13
    2dec:	ef 92       	push	r14
    2dee:	ff 92       	push	r15
    2df0:	0f 93       	push	r16
    2df2:	cf 93       	push	r28
    2df4:	df 93       	push	r29
	// Begin
	eitModule->beginMeasure();
    2df6:	80 91 94 01 	lds	r24, 0x0194	; 0x800194 <__data_end>
    2dfa:	90 91 95 01 	lds	r25, 0x0195	; 0x800195 <__data_end+0x1>
    2dfe:	0e 94 49 06 	call	0xc92	; 0xc92 <_ZN28ImpedanceMultiSensingCircuit12beginMeasureEv>
	// Send Gains:
	eitModule->sendBinaryData(MODE_Magnitude_of_other_Data, -1, -1, -1, eitModule->getGainU());
    2e02:	80 91 94 01 	lds	r24, 0x0194	; 0x800194 <__data_end>
    2e06:	90 91 95 01 	lds	r25, 0x0195	; 0x800195 <__data_end+0x1>
    2e0a:	0e 94 44 07 	call	0xe88	; 0xe88 <_ZN28ImpedanceMultiSensingCircuit8getGainUEv>
    2e0e:	6b 01       	movw	r12, r22
    2e10:	7c 01       	movw	r14, r24
    2e12:	81 2c       	mov	r8, r1
    2e14:	91 2c       	mov	r9, r1
    2e16:	80 ec       	ldi	r24, 0xC0	; 192
    2e18:	a8 2e       	mov	r10, r24
    2e1a:	8f e7       	ldi	r24, 0x7F	; 127
    2e1c:	b8 2e       	mov	r11, r24
    2e1e:	0f ef       	ldi	r16, 0xFF	; 255
    2e20:	2f ef       	ldi	r18, 0xFF	; 255
    2e22:	4f ef       	ldi	r20, 0xFF	; 255
    2e24:	65 e0       	ldi	r22, 0x05	; 5
    2e26:	80 91 94 01 	lds	r24, 0x0194	; 0x800194 <__data_end>
    2e2a:	90 91 95 01 	lds	r25, 0x0195	; 0x800195 <__data_end+0x1>
    2e2e:	0e 94 54 07 	call	0xea8	; 0xea8 <_ZN28ImpedanceMultiSensingCircuit14sendBinaryDataEaaaaff>
	eitModule->sendBinaryData(MODE_Magnitude_of_other_Data, -1, -1, -1, eitModule->getGainZ());
    2e32:	80 91 94 01 	lds	r24, 0x0194	; 0x800194 <__data_end>
    2e36:	90 91 95 01 	lds	r25, 0x0195	; 0x800195 <__data_end+0x1>
    2e3a:	0e 94 4c 07 	call	0xe98	; 0xe98 <_ZN28ImpedanceMultiSensingCircuit8getGainZEv>
    2e3e:	6b 01       	movw	r12, r22
    2e40:	7c 01       	movw	r14, r24
    2e42:	2f ef       	ldi	r18, 0xFF	; 255
    2e44:	4f ef       	ldi	r20, 0xFF	; 255
    2e46:	65 e0       	ldi	r22, 0x05	; 5
    2e48:	80 91 94 01 	lds	r24, 0x0194	; 0x800194 <__data_end>
    2e4c:	90 91 95 01 	lds	r25, 0x0195	; 0x800195 <__data_end+0x1>
    2e50:	0e 94 54 07 	call	0xea8	; 0xea8 <_ZN28ImpedanceMultiSensingCircuit14sendBinaryDataEaaaaff>
	// Send Compensation Values:
	eitModule->sendBinaryData(MODE_Complex_other_Data, -1, -1, -1, eitModule->compensation_V_Re, eitModule->compensation_V_Im);
    2e54:	c0 91 94 01 	lds	r28, 0x0194	; 0x800194 <__data_end>
    2e58:	d0 91 95 01 	lds	r29, 0x0195	; 0x800195 <__data_end+0x1>
    2e5c:	fe 01       	movw	r30, r28
    2e5e:	ef 5a       	subi	r30, 0xAF	; 175
    2e60:	ff 4f       	sbci	r31, 0xFF	; 255
    2e62:	60 81       	ld	r22, Z
    2e64:	71 81       	ldd	r23, Z+1	; 0x01
    2e66:	07 2e       	mov	r0, r23
    2e68:	00 0c       	add	r0, r0
    2e6a:	88 0b       	sbc	r24, r24
    2e6c:	99 0b       	sbc	r25, r25
    2e6e:	0e 94 8c 20 	call	0x4118	; 0x4118 <__floatsisf>
    2e72:	4b 01       	movw	r8, r22
    2e74:	5c 01       	movw	r10, r24
    2e76:	fe 01       	movw	r30, r28
    2e78:	e1 5b       	subi	r30, 0xB1	; 177
    2e7a:	ff 4f       	sbci	r31, 0xFF	; 255
    2e7c:	60 81       	ld	r22, Z
    2e7e:	71 81       	ldd	r23, Z+1	; 0x01
    2e80:	07 2e       	mov	r0, r23
    2e82:	00 0c       	add	r0, r0
    2e84:	88 0b       	sbc	r24, r24
    2e86:	99 0b       	sbc	r25, r25
    2e88:	0e 94 8c 20 	call	0x4118	; 0x4118 <__floatsisf>
    2e8c:	6b 01       	movw	r12, r22
    2e8e:	7c 01       	movw	r14, r24
    2e90:	2f ef       	ldi	r18, 0xFF	; 255
    2e92:	4f ef       	ldi	r20, 0xFF	; 255
    2e94:	66 e0       	ldi	r22, 0x06	; 6
    2e96:	ce 01       	movw	r24, r28
    2e98:	0e 94 54 07 	call	0xea8	; 0xea8 <_ZN28ImpedanceMultiSensingCircuit14sendBinaryDataEaaaaff>
	eitModule->sendBinaryData(MODE_Complex_other_Data, -1, -1, -1, eitModule->compensation_Z_Re, eitModule->compensation_Z_Im);
    2e9c:	c0 91 94 01 	lds	r28, 0x0194	; 0x800194 <__data_end>
    2ea0:	d0 91 95 01 	lds	r29, 0x0195	; 0x800195 <__data_end+0x1>
    2ea4:	fe 01       	movw	r30, r28
    2ea6:	e3 5b       	subi	r30, 0xB3	; 179
    2ea8:	ff 4f       	sbci	r31, 0xFF	; 255
    2eaa:	60 81       	ld	r22, Z
    2eac:	71 81       	ldd	r23, Z+1	; 0x01
    2eae:	07 2e       	mov	r0, r23
    2eb0:	00 0c       	add	r0, r0
    2eb2:	88 0b       	sbc	r24, r24
    2eb4:	99 0b       	sbc	r25, r25
    2eb6:	0e 94 8c 20 	call	0x4118	; 0x4118 <__floatsisf>
    2eba:	4b 01       	movw	r8, r22
    2ebc:	5c 01       	movw	r10, r24
    2ebe:	fe 01       	movw	r30, r28
    2ec0:	e5 5b       	subi	r30, 0xB5	; 181
    2ec2:	ff 4f       	sbci	r31, 0xFF	; 255
    2ec4:	60 81       	ld	r22, Z
    2ec6:	71 81       	ldd	r23, Z+1	; 0x01
    2ec8:	07 2e       	mov	r0, r23
    2eca:	00 0c       	add	r0, r0
    2ecc:	88 0b       	sbc	r24, r24
    2ece:	99 0b       	sbc	r25, r25
    2ed0:	0e 94 8c 20 	call	0x4118	; 0x4118 <__floatsisf>
    2ed4:	6b 01       	movw	r12, r22
    2ed6:	7c 01       	movw	r14, r24
    2ed8:	2f ef       	ldi	r18, 0xFF	; 255
    2eda:	4f ef       	ldi	r20, 0xFF	; 255
    2edc:	66 e0       	ldi	r22, 0x06	; 6
    2ede:	ce 01       	movw	r24, r28
    2ee0:	0e 94 54 07 	call	0xea8	; 0xea8 <_ZN28ImpedanceMultiSensingCircuit14sendBinaryDataEaaaaff>
	// Measure and send Shunt:
	eitModule->measureImpedance(0,0);
    2ee4:	20 e0       	ldi	r18, 0x00	; 0
    2ee6:	40 e0       	ldi	r20, 0x00	; 0
    2ee8:	60 e0       	ldi	r22, 0x00	; 0
    2eea:	80 91 94 01 	lds	r24, 0x0194	; 0x800194 <__data_end>
    2eee:	90 91 95 01 	lds	r25, 0x0195	; 0x800195 <__data_end+0x1>
    2ef2:	0e 94 ba 07 	call	0xf74	; 0xf74 <_ZN28ImpedanceMultiSensingCircuit16measureImpedanceEaa15directPrintMode>
	eitModule->sendBinaryData(MODE_Complex_other_Data, 0, 0, -1, eitModule->result_Real, eitModule->result_Imag);
    2ef6:	80 91 94 01 	lds	r24, 0x0194	; 0x800194 <__data_end>
    2efa:	90 91 95 01 	lds	r25, 0x0195	; 0x800195 <__data_end+0x1>
    2efe:	fc 01       	movw	r30, r24
    2f00:	e9 5b       	subi	r30, 0xB9	; 185
    2f02:	ff 4f       	sbci	r31, 0xFF	; 255
    2f04:	80 80       	ld	r8, Z
    2f06:	91 80       	ldd	r9, Z+1	; 0x01
    2f08:	a2 80       	ldd	r10, Z+2	; 0x02
    2f0a:	b3 80       	ldd	r11, Z+3	; 0x03
    2f0c:	34 97       	sbiw	r30, 0x04	; 4
    2f0e:	c0 80       	ld	r12, Z
    2f10:	d1 80       	ldd	r13, Z+1	; 0x01
    2f12:	e2 80       	ldd	r14, Z+2	; 0x02
    2f14:	f3 80       	ldd	r15, Z+3	; 0x03
    2f16:	20 e0       	ldi	r18, 0x00	; 0
    2f18:	40 e0       	ldi	r20, 0x00	; 0
    2f1a:	66 e0       	ldi	r22, 0x06	; 6
    2f1c:	0e 94 54 07 	call	0xea8	; 0xea8 <_ZN28ImpedanceMultiSensingCircuit14sendBinaryDataEaaaaff>
	// End Sequence of sending Calibration Data:
	eitModule->sendBinaryData(MODE_Data_acquisition_finished);
    2f20:	81 2c       	mov	r8, r1
    2f22:	91 2c       	mov	r9, r1
    2f24:	90 ec       	ldi	r25, 0xC0	; 192
    2f26:	a9 2e       	mov	r10, r25
    2f28:	9f e7       	ldi	r25, 0x7F	; 127
    2f2a:	b9 2e       	mov	r11, r25
    2f2c:	75 01       	movw	r14, r10
    2f2e:	64 01       	movw	r12, r8
    2f30:	2f ef       	ldi	r18, 0xFF	; 255
    2f32:	4f ef       	ldi	r20, 0xFF	; 255
    2f34:	60 e0       	ldi	r22, 0x00	; 0
    2f36:	80 91 94 01 	lds	r24, 0x0194	; 0x800194 <__data_end>
    2f3a:	90 91 95 01 	lds	r25, 0x0195	; 0x800195 <__data_end+0x1>
    2f3e:	0e 94 54 07 	call	0xea8	; 0xea8 <_ZN28ImpedanceMultiSensingCircuit14sendBinaryDataEaaaaff>
	// End:
	eitModule->endMeasure();
    2f42:	80 91 94 01 	lds	r24, 0x0194	; 0x800194 <__data_end>
    2f46:	90 91 95 01 	lds	r25, 0x0195	; 0x800195 <__data_end+0x1>
}
    2f4a:	df 91       	pop	r29
    2f4c:	cf 91       	pop	r28
    2f4e:	0f 91       	pop	r16
    2f50:	ff 90       	pop	r15
    2f52:	ef 90       	pop	r14
    2f54:	df 90       	pop	r13
    2f56:	cf 90       	pop	r12
    2f58:	bf 90       	pop	r11
    2f5a:	af 90       	pop	r10
    2f5c:	9f 90       	pop	r9
    2f5e:	8f 90       	pop	r8
	eitModule->measureImpedance(0,0);
	eitModule->sendBinaryData(MODE_Complex_other_Data, 0, 0, -1, eitModule->result_Real, eitModule->result_Imag);
	// End Sequence of sending Calibration Data:
	eitModule->sendBinaryData(MODE_Data_acquisition_finished);
	// End:
	eitModule->endMeasure();
    2f60:	0c 94 5e 06 	jmp	0xcbc	; 0xcbc <_ZN28ImpedanceMultiSensingCircuit10endMeasureEv>

00002f64 <_Z24updateCompensationValuesv>:
}

// Get compensation Data / Config:
void updateCompensationValues(){
    2f64:	ff 92       	push	r15
    2f66:	0f 93       	push	r16
    2f68:	1f 93       	push	r17
    2f6a:	cf 93       	push	r28
    2f6c:	df 93       	push	r29
	// Calibrate if possible or load old Calibration Data:
	if(eitModule->compensation_V_Re == 0 && eitModule->compensation_V_Im == 0 && eitModule->compensation_Z_Re == 0 && eitModule->compensation_Z_Im == 0){
    2f6e:	c0 91 94 01 	lds	r28, 0x0194	; 0x800194 <__data_end>
    2f72:	d0 91 95 01 	lds	r29, 0x0195	; 0x800195 <__data_end+0x1>
    2f76:	fe 01       	movw	r30, r28
    2f78:	e1 5b       	subi	r30, 0xB1	; 177
    2f7a:	ff 4f       	sbci	r31, 0xFF	; 255
    2f7c:	00 81       	ld	r16, Z
    2f7e:	11 81       	ldd	r17, Z+1	; 0x01
    2f80:	01 15       	cp	r16, r1
    2f82:	11 05       	cpc	r17, r1
    2f84:	a1 f4       	brne	.+40     	; 0x2fae <_Z24updateCompensationValuesv+0x4a>
    2f86:	32 96       	adiw	r30, 0x02	; 2
    2f88:	80 81       	ld	r24, Z
    2f8a:	91 81       	ldd	r25, Z+1	; 0x01
    2f8c:	89 2b       	or	r24, r25
    2f8e:	79 f4       	brne	.+30     	; 0x2fae <_Z24updateCompensationValuesv+0x4a>
    2f90:	36 97       	sbiw	r30, 0x06	; 6
    2f92:	80 81       	ld	r24, Z
    2f94:	91 81       	ldd	r25, Z+1	; 0x01
    2f96:	89 2b       	or	r24, r25
    2f98:	51 f4       	brne	.+20     	; 0x2fae <_Z24updateCompensationValuesv+0x4a>
    2f9a:	32 96       	adiw	r30, 0x02	; 2
    2f9c:	80 81       	ld	r24, Z
    2f9e:	91 81       	ldd	r25, Z+1	; 0x01
    2fa0:	89 2b       	or	r24, r25
    2fa2:	29 f4       	brne	.+10     	; 0x2fae <_Z24updateCompensationValuesv+0x4a>
		// Calibration failed;
		readCompensationFromEEPROM();
    2fa4:	0e 94 ca 14 	call	0x2994	; 0x2994 <_Z26readCompensationFromEEPROMv>
			Serial.print(F("compensation_Z_Re = "));
			Serial.println(eitModule->compensation_Z_Re);
			Serial.print(F("compensation_Z_Im = "));
			Serial.println(eitModule->compensation_Z_Im);
		#endif
		Serial.println(F("Load Config..."));
    2fa8:	61 e4       	ldi	r22, 0x41	; 65
    2faa:	72 e0       	ldi	r23, 0x02	; 2
    2fac:	c7 c0       	rjmp	.+398    	; 0x313c <_Z24updateCompensationValuesv+0x1d8>
	} else {
		// Save Calibration to EEPROM;
		// Check if something changed beyond the tolerance range:
		if(	abs(((EEPROM.read(COMPENSATIONVALUESADDR                                   )<<8) +  EEPROM.read(COMPENSATIONVALUESADDR                                 +1))-eitModule->compensation_V_Re) > COMPENSATIONTOLERANCE ||
    2fae:	86 ee       	ldi	r24, 0xE6	; 230
    2fb0:	90 e0       	ldi	r25, 0x00	; 0
    2fb2:	0e 94 02 14 	call	0x2804	; 0x2804 <_ZN11EEPROMClass4readEi.isra.0>
    2fb6:	f8 2e       	mov	r15, r24
    2fb8:	87 ee       	ldi	r24, 0xE7	; 231
    2fba:	90 e0       	ldi	r25, 0x00	; 0
    2fbc:	0e 94 02 14 	call	0x2804	; 0x2804 <_ZN11EEPROMClass4readEi.isra.0>
    2fc0:	2f 2d       	mov	r18, r15
    2fc2:	30 e0       	ldi	r19, 0x00	; 0
    2fc4:	32 2f       	mov	r19, r18
    2fc6:	22 27       	eor	r18, r18
    2fc8:	a9 01       	movw	r20, r18
    2fca:	48 0f       	add	r20, r24
    2fcc:	51 1d       	adc	r21, r1
    2fce:	9a 01       	movw	r18, r20
    2fd0:	20 1b       	sub	r18, r16
    2fd2:	31 0b       	sbc	r19, r17
			abs(((EEPROM.read(COMPENSATIONVALUESADDR+1*BYTESIZE_OF_COMPENSATIONVALUES  )<<8) +  EEPROM.read(COMPENSATIONVALUESADDR+1*BYTESIZE_OF_COMPENSATIONVALUES+1))-eitModule->compensation_V_Im) > COMPENSATIONTOLERANCE ||
			abs(((EEPROM.read(COMPENSATIONVALUESADDR+2*BYTESIZE_OF_COMPENSATIONVALUES  )<<8) +  EEPROM.read(COMPENSATIONVALUESADDR+2*BYTESIZE_OF_COMPENSATIONVALUES+1))-eitModule->compensation_Z_Re) > COMPENSATIONTOLERANCE ||
    2fd4:	12 16       	cp	r1, r18
    2fd6:	13 06       	cpc	r1, r19
    2fd8:	2c f4       	brge	.+10     	; 0x2fe4 <_Z24updateCompensationValuesv+0x80>
    2fda:	2b 30       	cpi	r18, 0x0B	; 11
    2fdc:	31 05       	cpc	r19, r1
    2fde:	0c f0       	brlt	.+2      	; 0x2fe2 <_Z24updateCompensationValuesv+0x7e>
    2fe0:	75 c0       	rjmp	.+234    	; 0x30cc <_Z24updateCompensationValuesv+0x168>
    2fe2:	07 c0       	rjmp	.+14     	; 0x2ff2 <_Z24updateCompensationValuesv+0x8e>
		#endif
		Serial.println(F("Load Config..."));
	} else {
		// Save Calibration to EEPROM;
		// Check if something changed beyond the tolerance range:
		if(	abs(((EEPROM.read(COMPENSATIONVALUESADDR                                   )<<8) +  EEPROM.read(COMPENSATIONVALUESADDR                                 +1))-eitModule->compensation_V_Re) > COMPENSATIONTOLERANCE ||
    2fe4:	98 01       	movw	r18, r16
    2fe6:	24 1b       	sub	r18, r20
    2fe8:	35 0b       	sbc	r19, r21
    2fea:	2b 30       	cpi	r18, 0x0B	; 11
    2fec:	31 05       	cpc	r19, r1
    2fee:	0c f0       	brlt	.+2      	; 0x2ff2 <_Z24updateCompensationValuesv+0x8e>
    2ff0:	6d c0       	rjmp	.+218    	; 0x30cc <_Z24updateCompensationValuesv+0x168>
			abs(((EEPROM.read(COMPENSATIONVALUESADDR+1*BYTESIZE_OF_COMPENSATIONVALUES  )<<8) +  EEPROM.read(COMPENSATIONVALUESADDR+1*BYTESIZE_OF_COMPENSATIONVALUES+1))-eitModule->compensation_V_Im) > COMPENSATIONTOLERANCE ||
    2ff2:	88 ee       	ldi	r24, 0xE8	; 232
    2ff4:	90 e0       	ldi	r25, 0x00	; 0
    2ff6:	0e 94 02 14 	call	0x2804	; 0x2804 <_ZN11EEPROMClass4readEi.isra.0>
    2ffa:	f8 2e       	mov	r15, r24
    2ffc:	89 ee       	ldi	r24, 0xE9	; 233
    2ffe:	90 e0       	ldi	r25, 0x00	; 0
    3000:	0e 94 02 14 	call	0x2804	; 0x2804 <_ZN11EEPROMClass4readEi.isra.0>
    3004:	2f 2d       	mov	r18, r15
    3006:	30 e0       	ldi	r19, 0x00	; 0
    3008:	32 2f       	mov	r19, r18
    300a:	22 27       	eor	r18, r18
    300c:	a9 01       	movw	r20, r18
    300e:	48 0f       	add	r20, r24
    3010:	51 1d       	adc	r21, r1
    3012:	ca 01       	movw	r24, r20
    3014:	fe 01       	movw	r30, r28
    3016:	ef 5a       	subi	r30, 0xAF	; 175
    3018:	ff 4f       	sbci	r31, 0xFF	; 255
    301a:	20 81       	ld	r18, Z
    301c:	31 81       	ldd	r19, Z+1	; 0x01
    301e:	42 1b       	sub	r20, r18
    3020:	53 0b       	sbc	r21, r19
			abs(((EEPROM.read(COMPENSATIONVALUESADDR+2*BYTESIZE_OF_COMPENSATIONVALUES  )<<8) +  EEPROM.read(COMPENSATIONVALUESADDR+2*BYTESIZE_OF_COMPENSATIONVALUES+1))-eitModule->compensation_Z_Re) > COMPENSATIONTOLERANCE ||
    3022:	14 16       	cp	r1, r20
    3024:	15 06       	cpc	r1, r21
    3026:	2c f4       	brge	.+10     	; 0x3032 <_Z24updateCompensationValuesv+0xce>
		#endif
		Serial.println(F("Load Config..."));
	} else {
		// Save Calibration to EEPROM;
		// Check if something changed beyond the tolerance range:
		if(	abs(((EEPROM.read(COMPENSATIONVALUESADDR                                   )<<8) +  EEPROM.read(COMPENSATIONVALUESADDR                                 +1))-eitModule->compensation_V_Re) > COMPENSATIONTOLERANCE ||
    3028:	4b 30       	cpi	r20, 0x0B	; 11
    302a:	51 05       	cpc	r21, r1
    302c:	0c f0       	brlt	.+2      	; 0x3030 <_Z24updateCompensationValuesv+0xcc>
    302e:	4e c0       	rjmp	.+156    	; 0x30cc <_Z24updateCompensationValuesv+0x168>
    3030:	06 c0       	rjmp	.+12     	; 0x303e <_Z24updateCompensationValuesv+0xda>
			abs(((EEPROM.read(COMPENSATIONVALUESADDR+1*BYTESIZE_OF_COMPENSATIONVALUES  )<<8) +  EEPROM.read(COMPENSATIONVALUESADDR+1*BYTESIZE_OF_COMPENSATIONVALUES+1))-eitModule->compensation_V_Im) > COMPENSATIONTOLERANCE ||
    3032:	28 1b       	sub	r18, r24
    3034:	39 0b       	sbc	r19, r25
    3036:	2b 30       	cpi	r18, 0x0B	; 11
    3038:	31 05       	cpc	r19, r1
    303a:	0c f0       	brlt	.+2      	; 0x303e <_Z24updateCompensationValuesv+0xda>
    303c:	47 c0       	rjmp	.+142    	; 0x30cc <_Z24updateCompensationValuesv+0x168>
			abs(((EEPROM.read(COMPENSATIONVALUESADDR+2*BYTESIZE_OF_COMPENSATIONVALUES  )<<8) +  EEPROM.read(COMPENSATIONVALUESADDR+2*BYTESIZE_OF_COMPENSATIONVALUES+1))-eitModule->compensation_Z_Re) > COMPENSATIONTOLERANCE ||
    303e:	8a ee       	ldi	r24, 0xEA	; 234
    3040:	90 e0       	ldi	r25, 0x00	; 0
    3042:	0e 94 02 14 	call	0x2804	; 0x2804 <_ZN11EEPROMClass4readEi.isra.0>
    3046:	f8 2e       	mov	r15, r24
    3048:	8b ee       	ldi	r24, 0xEB	; 235
    304a:	90 e0       	ldi	r25, 0x00	; 0
    304c:	0e 94 02 14 	call	0x2804	; 0x2804 <_ZN11EEPROMClass4readEi.isra.0>
    3050:	2f 2d       	mov	r18, r15
    3052:	30 e0       	ldi	r19, 0x00	; 0
    3054:	32 2f       	mov	r19, r18
    3056:	22 27       	eor	r18, r18
    3058:	a9 01       	movw	r20, r18
    305a:	48 0f       	add	r20, r24
    305c:	51 1d       	adc	r21, r1
    305e:	ca 01       	movw	r24, r20
    3060:	fe 01       	movw	r30, r28
    3062:	e5 5b       	subi	r30, 0xB5	; 181
    3064:	ff 4f       	sbci	r31, 0xFF	; 255
    3066:	20 81       	ld	r18, Z
    3068:	31 81       	ldd	r19, Z+1	; 0x01
    306a:	42 1b       	sub	r20, r18
    306c:	53 0b       	sbc	r21, r19
    306e:	14 16       	cp	r1, r20
    3070:	15 06       	cpc	r1, r21
    3072:	24 f4       	brge	.+8      	; 0x307c <_Z24updateCompensationValuesv+0x118>
		Serial.println(F("Load Config..."));
	} else {
		// Save Calibration to EEPROM;
		// Check if something changed beyond the tolerance range:
		if(	abs(((EEPROM.read(COMPENSATIONVALUESADDR                                   )<<8) +  EEPROM.read(COMPENSATIONVALUESADDR                                 +1))-eitModule->compensation_V_Re) > COMPENSATIONTOLERANCE ||
			abs(((EEPROM.read(COMPENSATIONVALUESADDR+1*BYTESIZE_OF_COMPENSATIONVALUES  )<<8) +  EEPROM.read(COMPENSATIONVALUESADDR+1*BYTESIZE_OF_COMPENSATIONVALUES+1))-eitModule->compensation_V_Im) > COMPENSATIONTOLERANCE ||
    3074:	4b 30       	cpi	r20, 0x0B	; 11
    3076:	51 05       	cpc	r21, r1
    3078:	4c f5       	brge	.+82     	; 0x30cc <_Z24updateCompensationValuesv+0x168>
    307a:	05 c0       	rjmp	.+10     	; 0x3086 <_Z24updateCompensationValuesv+0x122>
			abs(((EEPROM.read(COMPENSATIONVALUESADDR+2*BYTESIZE_OF_COMPENSATIONVALUES  )<<8) +  EEPROM.read(COMPENSATIONVALUESADDR+2*BYTESIZE_OF_COMPENSATIONVALUES+1))-eitModule->compensation_Z_Re) > COMPENSATIONTOLERANCE ||
    307c:	28 1b       	sub	r18, r24
    307e:	39 0b       	sbc	r19, r25
    3080:	2b 30       	cpi	r18, 0x0B	; 11
    3082:	31 05       	cpc	r19, r1
    3084:	1c f5       	brge	.+70     	; 0x30cc <_Z24updateCompensationValuesv+0x168>
			abs(((EEPROM.read(COMPENSATIONVALUESADDR+3*BYTESIZE_OF_COMPENSATIONVALUES  )<<8) +  EEPROM.read(COMPENSATIONVALUESADDR+3*BYTESIZE_OF_COMPENSATIONVALUES+1))-eitModule->compensation_Z_Im) > COMPENSATIONTOLERANCE ){
    3086:	8c ee       	ldi	r24, 0xEC	; 236
    3088:	90 e0       	ldi	r25, 0x00	; 0
    308a:	0e 94 02 14 	call	0x2804	; 0x2804 <_ZN11EEPROMClass4readEi.isra.0>
    308e:	f8 2e       	mov	r15, r24
    3090:	8d ee       	ldi	r24, 0xED	; 237
    3092:	90 e0       	ldi	r25, 0x00	; 0
    3094:	0e 94 02 14 	call	0x2804	; 0x2804 <_ZN11EEPROMClass4readEi.isra.0>
    3098:	2f 2d       	mov	r18, r15
    309a:	30 e0       	ldi	r19, 0x00	; 0
    309c:	32 2f       	mov	r19, r18
    309e:	22 27       	eor	r18, r18
    30a0:	a9 01       	movw	r20, r18
    30a2:	48 0f       	add	r20, r24
    30a4:	51 1d       	adc	r21, r1
    30a6:	ca 01       	movw	r24, r20
    30a8:	c3 5b       	subi	r28, 0xB3	; 179
    30aa:	df 4f       	sbci	r29, 0xFF	; 255
    30ac:	28 81       	ld	r18, Y
    30ae:	39 81       	ldd	r19, Y+1	; 0x01
    30b0:	42 1b       	sub	r20, r18
    30b2:	53 0b       	sbc	r21, r19
	} else {
		// Save Calibration to EEPROM;
		// Check if something changed beyond the tolerance range:
		if(	abs(((EEPROM.read(COMPENSATIONVALUESADDR                                   )<<8) +  EEPROM.read(COMPENSATIONVALUESADDR                                 +1))-eitModule->compensation_V_Re) > COMPENSATIONTOLERANCE ||
			abs(((EEPROM.read(COMPENSATIONVALUESADDR+1*BYTESIZE_OF_COMPENSATIONVALUES  )<<8) +  EEPROM.read(COMPENSATIONVALUESADDR+1*BYTESIZE_OF_COMPENSATIONVALUES+1))-eitModule->compensation_V_Im) > COMPENSATIONTOLERANCE ||
			abs(((EEPROM.read(COMPENSATIONVALUESADDR+2*BYTESIZE_OF_COMPENSATIONVALUES  )<<8) +  EEPROM.read(COMPENSATIONVALUESADDR+2*BYTESIZE_OF_COMPENSATIONVALUES+1))-eitModule->compensation_Z_Re) > COMPENSATIONTOLERANCE ||
    30b4:	14 16       	cp	r1, r20
    30b6:	15 06       	cpc	r1, r21
    30b8:	24 f4       	brge	.+8      	; 0x30c2 <_Z24updateCompensationValuesv+0x15e>
    30ba:	4b 30       	cpi	r20, 0x0B	; 11
    30bc:	51 05       	cpc	r21, r1
    30be:	34 f4       	brge	.+12     	; 0x30cc <_Z24updateCompensationValuesv+0x168>
    30c0:	3b c0       	rjmp	.+118    	; 0x3138 <_Z24updateCompensationValuesv+0x1d4>
			abs(((EEPROM.read(COMPENSATIONVALUESADDR+3*BYTESIZE_OF_COMPENSATIONVALUES  )<<8) +  EEPROM.read(COMPENSATIONVALUESADDR+3*BYTESIZE_OF_COMPENSATIONVALUES+1))-eitModule->compensation_Z_Im) > COMPENSATIONTOLERANCE ){
    30c2:	28 1b       	sub	r18, r24
    30c4:	39 0b       	sbc	r19, r25
    30c6:	2b 30       	cpi	r18, 0x0B	; 11
    30c8:	31 05       	cpc	r19, r1
    30ca:	b4 f1       	brlt	.+108    	; 0x3138 <_Z24updateCompensationValuesv+0x1d4>
				Serial.println(eitModule->compensation_V_Re);
    30cc:	4a e0       	ldi	r20, 0x0A	; 10
    30ce:	50 e0       	ldi	r21, 0x00	; 0
    30d0:	b8 01       	movw	r22, r16
    30d2:	87 e9       	ldi	r24, 0x97	; 151
    30d4:	91 e0       	ldi	r25, 0x01	; 1
    30d6:	0e 94 59 24 	call	0x48b2	; 0x48b2 <_ZN5Print7printlnEii>
				Serial.println(eitModule->compensation_V_Im);
    30da:	e0 91 94 01 	lds	r30, 0x0194	; 0x800194 <__data_end>
    30de:	f0 91 95 01 	lds	r31, 0x0195	; 0x800195 <__data_end+0x1>
    30e2:	ef 5a       	subi	r30, 0xAF	; 175
    30e4:	ff 4f       	sbci	r31, 0xFF	; 255
    30e6:	60 81       	ld	r22, Z
    30e8:	71 81       	ldd	r23, Z+1	; 0x01
    30ea:	4a e0       	ldi	r20, 0x0A	; 10
    30ec:	50 e0       	ldi	r21, 0x00	; 0
    30ee:	87 e9       	ldi	r24, 0x97	; 151
    30f0:	91 e0       	ldi	r25, 0x01	; 1
    30f2:	0e 94 59 24 	call	0x48b2	; 0x48b2 <_ZN5Print7printlnEii>
				Serial.println(eitModule->compensation_Z_Re);
    30f6:	e0 91 94 01 	lds	r30, 0x0194	; 0x800194 <__data_end>
    30fa:	f0 91 95 01 	lds	r31, 0x0195	; 0x800195 <__data_end+0x1>
    30fe:	e5 5b       	subi	r30, 0xB5	; 181
    3100:	ff 4f       	sbci	r31, 0xFF	; 255
    3102:	60 81       	ld	r22, Z
    3104:	71 81       	ldd	r23, Z+1	; 0x01
    3106:	4a e0       	ldi	r20, 0x0A	; 10
    3108:	50 e0       	ldi	r21, 0x00	; 0
    310a:	87 e9       	ldi	r24, 0x97	; 151
    310c:	91 e0       	ldi	r25, 0x01	; 1
    310e:	0e 94 59 24 	call	0x48b2	; 0x48b2 <_ZN5Print7printlnEii>
				Serial.println(eitModule->compensation_Z_Im);
    3112:	e0 91 94 01 	lds	r30, 0x0194	; 0x800194 <__data_end>
    3116:	f0 91 95 01 	lds	r31, 0x0195	; 0x800195 <__data_end+0x1>
    311a:	e3 5b       	subi	r30, 0xB3	; 179
    311c:	ff 4f       	sbci	r31, 0xFF	; 255
    311e:	60 81       	ld	r22, Z
    3120:	71 81       	ldd	r23, Z+1	; 0x01
    3122:	4a e0       	ldi	r20, 0x0A	; 10
    3124:	50 e0       	ldi	r21, 0x00	; 0
    3126:	87 e9       	ldi	r24, 0x97	; 151
    3128:	91 e0       	ldi	r25, 0x01	; 1
    312a:	0e 94 59 24 	call	0x48b2	; 0x48b2 <_ZN5Print7printlnEii>
				//Serial.println((EEPROM.read(COMPENSATIONVALUESADDR                                   )<<8) +  EEPROM.read(COMPENSATIONVALUESADDR                                 +1));
				//Serial.println((EEPROM.read(COMPENSATIONVALUESADDR+1*BYTESIZE_OF_COMPENSATIONVALUES  )<<8) +  EEPROM.read(COMPENSATIONVALUESADDR+1*BYTESIZE_OF_COMPENSATIONVALUES+1));
				//Serial.println((EEPROM.read(COMPENSATIONVALUESADDR+2*BYTESIZE_OF_COMPENSATIONVALUES  )<<8) +  EEPROM.read(COMPENSATIONVALUESADDR+2*BYTESIZE_OF_COMPENSATIONVALUES+1));
				//Serial.println((EEPROM.read(COMPENSATIONVALUESADDR+3*BYTESIZE_OF_COMPENSATIONVALUES  )<<8) +  EEPROM.read(COMPENSATIONVALUESADDR+3*BYTESIZE_OF_COMPENSATIONVALUES+1));
			// Update:
			writeCompensationToEEPROM();
    312e:	0e 94 37 14 	call	0x286e	; 0x286e <_Z25writeCompensationToEEPROMv>
			Serial.println(F("Measure and refresh Config..."));
    3132:	63 e2       	ldi	r22, 0x23	; 35
    3134:	72 e0       	ldi	r23, 0x02	; 2
    3136:	02 c0       	rjmp	.+4      	; 0x313c <_Z24updateCompensationValuesv+0x1d8>
		}else{
			Serial.println(F("Measure Config..."));
    3138:	61 e1       	ldi	r22, 0x11	; 17
    313a:	72 e0       	ldi	r23, 0x02	; 2
    313c:	87 e9       	ldi	r24, 0x97	; 151
    313e:	91 e0       	ldi	r25, 0x01	; 1
		}
	}
	
}
    3140:	df 91       	pop	r29
    3142:	cf 91       	pop	r28
    3144:	1f 91       	pop	r17
    3146:	0f 91       	pop	r16
    3148:	ff 90       	pop	r15
				//Serial.println((EEPROM.read(COMPENSATIONVALUESADDR+3*BYTESIZE_OF_COMPENSATIONVALUES  )<<8) +  EEPROM.read(COMPENSATIONVALUESADDR+3*BYTESIZE_OF_COMPENSATIONVALUES+1));
			// Update:
			writeCompensationToEEPROM();
			Serial.println(F("Measure and refresh Config..."));
		}else{
			Serial.println(F("Measure Config..."));
    314a:	0c 94 83 23 	jmp	0x4706	; 0x4706 <_ZN5Print7printlnEPK19__FlashStringHelper>

0000314e <_Z19startCollectingDatabb>:
	
}


// Transmit measured Data:
void startCollectingData(bool compensateLeakage = true, bool measureStimCurrent = true){
    314e:	8f 92       	push	r8
    3150:	9f 92       	push	r9
    3152:	af 92       	push	r10
    3154:	bf 92       	push	r11
    3156:	cf 92       	push	r12
    3158:	df 92       	push	r13
    315a:	ef 92       	push	r14
    315c:	ff 92       	push	r15
    315e:	0f 93       	push	r16
    3160:	1f 93       	push	r17
    3162:	cf 93       	push	r28
    3164:	df 93       	push	r29
    3166:	18 2f       	mov	r17, r24
    3168:	06 2f       	mov	r16, r22
	// Begin Measurement:
	eitModule->beginMeasure();
    316a:	80 91 94 01 	lds	r24, 0x0194	; 0x800194 <__data_end>
    316e:	90 91 95 01 	lds	r25, 0x0195	; 0x800195 <__data_end+0x1>
    3172:	0e 94 49 06 	call	0xc92	; 0xc92 <_ZN28ImpedanceMultiSensingCircuit12beginMeasureEv>
	for(int h = 0; h < ELECTRODE_NUMBER; h++){
    3176:	c0 e0       	ldi	r28, 0x00	; 0
    3178:	d0 e0       	ldi	r29, 0x00	; 0
		// Set Patterns:
		readMeasPatternFromEEPROM(h);
    317a:	ce 01       	movw	r24, r28
    317c:	0e 94 8f 14 	call	0x291e	; 0x291e <_Z25readMeasPatternFromEEPROMi>
		readStimPatternFromEEPROM(h);
    3180:	ce 01       	movw	r24, r28
    3182:	0e 94 b7 14 	call	0x296e	; 0x296e <_Z25readStimPatternFromEEPROMi>
		// Measure:
		//eitModule->acquireEITdata(DirectPRINT_NONE, compensateLeakage, measureStimCurrent);
		eitModule->acquireEITdata(DirectPRINT_MAGNITUDE, compensateLeakage, measureStimCurrent);
    3186:	20 2f       	mov	r18, r16
    3188:	41 2f       	mov	r20, r17
    318a:	61 e0       	ldi	r22, 0x01	; 1
    318c:	80 91 94 01 	lds	r24, 0x0194	; 0x800194 <__data_end>
    3190:	90 91 95 01 	lds	r25, 0x0195	; 0x800195 <__data_end+0x1>
    3194:	0e 94 6d 0f 	call	0x1eda	; 0x1eda <_ZN28ImpedanceMultiSensingCircuit14acquireEITdataE15directPrintModebb>

// Transmit measured Data:
void startCollectingData(bool compensateLeakage = true, bool measureStimCurrent = true){
	// Begin Measurement:
	eitModule->beginMeasure();
	for(int h = 0; h < ELECTRODE_NUMBER; h++){
    3198:	21 96       	adiw	r28, 0x01	; 1
    319a:	c0 31       	cpi	r28, 0x10	; 16
    319c:	d1 05       	cpc	r29, r1
    319e:	69 f7       	brne	.-38     	; 0x317a <_Z19startCollectingDatabb+0x2c>
		//	Serial.println(eitModule->resultVsEIT[i], DIGITS_AFTER_POINT);
		//}
		//Serial.println("Stimulation current = "); Serial.println(eitModule.getLastMeasuredStimCurrent(), DIGITS_AFTER_POINT);
	}
	// End Sequence of sending EIT Data:
	eitModule->sendBinaryData(MODE_Data_acquisition_finished);
    31a0:	81 2c       	mov	r8, r1
    31a2:	91 2c       	mov	r9, r1
    31a4:	80 ec       	ldi	r24, 0xC0	; 192
    31a6:	a8 2e       	mov	r10, r24
    31a8:	8f e7       	ldi	r24, 0x7F	; 127
    31aa:	b8 2e       	mov	r11, r24
    31ac:	75 01       	movw	r14, r10
    31ae:	64 01       	movw	r12, r8
    31b0:	0f ef       	ldi	r16, 0xFF	; 255
    31b2:	2f ef       	ldi	r18, 0xFF	; 255
    31b4:	4f ef       	ldi	r20, 0xFF	; 255
    31b6:	60 e0       	ldi	r22, 0x00	; 0
    31b8:	80 91 94 01 	lds	r24, 0x0194	; 0x800194 <__data_end>
    31bc:	90 91 95 01 	lds	r25, 0x0195	; 0x800195 <__data_end+0x1>
    31c0:	0e 94 54 07 	call	0xea8	; 0xea8 <_ZN28ImpedanceMultiSensingCircuit14sendBinaryDataEaaaaff>
	// End Measurement:
	eitModule->endMeasure();
    31c4:	80 91 94 01 	lds	r24, 0x0194	; 0x800194 <__data_end>
    31c8:	90 91 95 01 	lds	r25, 0x0195	; 0x800195 <__data_end+0x1>
}
    31cc:	df 91       	pop	r29
    31ce:	cf 91       	pop	r28
    31d0:	1f 91       	pop	r17
    31d2:	0f 91       	pop	r16
    31d4:	ff 90       	pop	r15
    31d6:	ef 90       	pop	r14
    31d8:	df 90       	pop	r13
    31da:	cf 90       	pop	r12
    31dc:	bf 90       	pop	r11
    31de:	af 90       	pop	r10
    31e0:	9f 90       	pop	r9
    31e2:	8f 90       	pop	r8
		//Serial.println("Stimulation current = "); Serial.println(eitModule.getLastMeasuredStimCurrent(), DIGITS_AFTER_POINT);
	}
	// End Sequence of sending EIT Data:
	eitModule->sendBinaryData(MODE_Data_acquisition_finished);
	// End Measurement:
	eitModule->endMeasure();
    31e4:	0c 94 5e 06 	jmp	0xcbc	; 0xcbc <_ZN28ImpedanceMultiSensingCircuit10endMeasureEv>

000031e8 <_Z20startCollectingData2b>:
}

void startCollectingData2(bool complex = false){
    31e8:	4f 92       	push	r4
    31ea:	5f 92       	push	r5
    31ec:	6f 92       	push	r6
    31ee:	7f 92       	push	r7
    31f0:	8f 92       	push	r8
    31f2:	9f 92       	push	r9
    31f4:	af 92       	push	r10
    31f6:	bf 92       	push	r11
    31f8:	cf 92       	push	r12
    31fa:	df 92       	push	r13
    31fc:	ef 92       	push	r14
    31fe:	ff 92       	push	r15
    3200:	0f 93       	push	r16
    3202:	1f 93       	push	r17
    3204:	cf 93       	push	r28
    3206:	df 93       	push	r29
    3208:	18 2f       	mov	r17, r24
	// Begin
	eitModule->beginMeasure();
    320a:	80 91 94 01 	lds	r24, 0x0194	; 0x800194 <__data_end>
    320e:	90 91 95 01 	lds	r25, 0x0195	; 0x800195 <__data_end+0x1>
    3212:	0e 94 49 06 	call	0xc92	; 0xc92 <_ZN28ImpedanceMultiSensingCircuit12beginMeasureEv>
	// Measure all Voltages for each possible stimulation case (including Needle):
	eitModule->stim_current = 10; // mA
    3216:	80 91 94 01 	lds	r24, 0x0194	; 0x800194 <__data_end>
    321a:	90 91 95 01 	lds	r25, 0x0195	; 0x800195 <__data_end+0x1>
    321e:	2a e0       	ldi	r18, 0x0A	; 10
    3220:	fc 01       	movw	r30, r24
    3222:	26 87       	std	Z+14, r18	; 0x0e
	eitModule->writeModesAndLeds(HIGH<<PIN_LED_BLUE);
    3224:	60 e8       	ldi	r22, 0x80	; 128
    3226:	0e 94 0c 05 	call	0xa18	; 0xa18 <_ZN28ImpedanceMultiSensingCircuit17writeModesAndLedsEh>
    322a:	11 23       	and	r17, r17
    322c:	11 f0       	breq	.+4      	; 0x3232 <_Z20startCollectingData2b+0x4a>
    322e:	02 e0       	ldi	r16, 0x02	; 2
    3230:	01 c0       	rjmp	.+2      	; 0x3234 <_Z20startCollectingData2b+0x4c>
    3232:	01 e0       	ldi	r16, 0x01	; 1
    3234:	c0 e0       	ldi	r28, 0x00	; 0
    3236:	d0 e0       	ldi	r29, 0x00	; 0
	for(int i = 0; i < ELECTRODE_NUMBER; i++){
		for(int j = i+1; j < ELECTRODE_NUMBER; j++){
			eitModule->stim_pattern = i<<4 | j; // GND-Electrode << 4, SIGNAL-Electrode
    3238:	fc 2e       	mov	r15, r28
    323a:	f2 94       	swap	r15
    323c:	20 ef       	ldi	r18, 0xF0	; 240
    323e:	f2 22       	and	r15, r18
    3240:	3e 01       	movw	r6, r28
    3242:	ff ef       	ldi	r31, 0xFF	; 255
    3244:	6f 1a       	sub	r6, r31
    3246:	7f 0a       	sbc	r7, r31
	eitModule->beginMeasure();
	// Measure all Voltages for each possible stimulation case (including Needle):
	eitModule->stim_current = 10; // mA
	eitModule->writeModesAndLeds(HIGH<<PIN_LED_BLUE);
	for(int i = 0; i < ELECTRODE_NUMBER; i++){
		for(int j = i+1; j < ELECTRODE_NUMBER; j++){
    3248:	80 e1       	ldi	r24, 0x10	; 16
    324a:	68 16       	cp	r6, r24
    324c:	71 04       	cpc	r7, r1
    324e:	71 f4       	brne	.+28     	; 0x326c <_Z20startCollectingData2b+0x84>
    3250:	21 96       	adiw	r28, 0x01	; 1
	// Begin
	eitModule->beginMeasure();
	// Measure all Voltages for each possible stimulation case (including Needle):
	eitModule->stim_current = 10; // mA
	eitModule->writeModesAndLeds(HIGH<<PIN_LED_BLUE);
	for(int i = 0; i < ELECTRODE_NUMBER; i++){
    3252:	c0 31       	cpi	r28, 0x10	; 16
    3254:	d1 05       	cpc	r29, r1
    3256:	81 f7       	brne	.-32     	; 0x3238 <_Z20startCollectingData2b+0x50>
			eitModule->prepareStimulation();
			eitModule->measureAllPrepreparedV(complex ? DirectPRINT_COMPLEX : DirectPRINT_MAGNITUDE);
		}
	}
	// Measure all Voltages from Needle-SIGNAL to every possible Ground:
	eitModule->writeModesAndLeds(HIGH<<PIN_LED_BLUE | HIGH<<PIN_MODE_NEEDLE_OUT);
    3258:	62 e8       	ldi	r22, 0x82	; 130
    325a:	80 91 94 01 	lds	r24, 0x0194	; 0x800194 <__data_end>
    325e:	90 91 95 01 	lds	r25, 0x0195	; 0x800195 <__data_end+0x1>
    3262:	0e 94 0c 05 	call	0xa18	; 0xa18 <_ZN28ImpedanceMultiSensingCircuit17writeModesAndLedsEh>
	for(int i = 0; i < ELECTRODE_NUMBER; i++){
    3266:	c0 e0       	ldi	r28, 0x00	; 0
    3268:	d0 e0       	ldi	r29, 0x00	; 0
    326a:	12 c0       	rjmp	.+36     	; 0x3290 <_Z20startCollectingData2b+0xa8>
	// Measure all Voltages for each possible stimulation case (including Needle):
	eitModule->stim_current = 10; // mA
	eitModule->writeModesAndLeds(HIGH<<PIN_LED_BLUE);
	for(int i = 0; i < ELECTRODE_NUMBER; i++){
		for(int j = i+1; j < ELECTRODE_NUMBER; j++){
			eitModule->stim_pattern = i<<4 | j; // GND-Electrode << 4, SIGNAL-Electrode
    326c:	80 91 94 01 	lds	r24, 0x0194	; 0x800194 <__data_end>
    3270:	90 91 95 01 	lds	r25, 0x0195	; 0x800195 <__data_end+0x1>
    3274:	2f 2d       	mov	r18, r15
    3276:	26 29       	or	r18, r6
    3278:	fc 01       	movw	r30, r24
    327a:	25 87       	std	Z+13, r18	; 0x0d
			eitModule->prepareStimulation();
    327c:	0e 94 01 07 	call	0xe02	; 0xe02 <_ZN28ImpedanceMultiSensingCircuit18prepareStimulationEv>
			eitModule->measureAllPrepreparedV(complex ? DirectPRINT_COMPLEX : DirectPRINT_MAGNITUDE);
    3280:	60 2f       	mov	r22, r16
    3282:	80 91 94 01 	lds	r24, 0x0194	; 0x800194 <__data_end>
    3286:	90 91 95 01 	lds	r25, 0x0195	; 0x800195 <__data_end+0x1>
    328a:	0e 94 ab 0d 	call	0x1b56	; 0x1b56 <_ZN28ImpedanceMultiSensingCircuit22measureAllPrepreparedVE15directPrintMode>
	eitModule->beginMeasure();
	// Measure all Voltages for each possible stimulation case (including Needle):
	eitModule->stim_current = 10; // mA
	eitModule->writeModesAndLeds(HIGH<<PIN_LED_BLUE);
	for(int i = 0; i < ELECTRODE_NUMBER; i++){
		for(int j = i+1; j < ELECTRODE_NUMBER; j++){
    328e:	d9 cf       	rjmp	.-78     	; 0x3242 <_Z20startCollectingData2b+0x5a>
		}
	}
	// Measure all Voltages from Needle-SIGNAL to every possible Ground:
	eitModule->writeModesAndLeds(HIGH<<PIN_LED_BLUE | HIGH<<PIN_MODE_NEEDLE_OUT);
	for(int i = 0; i < ELECTRODE_NUMBER; i++){
		eitModule->trinityMUX->prepareSignalMux(DISABLE_MUX);
    3290:	e0 91 94 01 	lds	r30, 0x0194	; 0x800194 <__data_end>
    3294:	f0 91 95 01 	lds	r31, 0x0195	; 0x800195 <__data_end+0x1>
    3298:	e0 51       	subi	r30, 0x10	; 16
    329a:	ff 4f       	sbci	r31, 0xFF	; 255
    329c:	6f ef       	ldi	r22, 0xFF	; 255
    329e:	7f ef       	ldi	r23, 0xFF	; 255
    32a0:	80 81       	ld	r24, Z
    32a2:	91 81       	ldd	r25, Z+1	; 0x01
    32a4:	0e 94 b8 13 	call	0x2770	; 0x2770 <_ZN13MUX16_CIRCUIT16prepareSignalMuxEi>
		eitModule->trinityMUX->prepareGroundMux(i);
    32a8:	e0 91 94 01 	lds	r30, 0x0194	; 0x800194 <__data_end>
    32ac:	f0 91 95 01 	lds	r31, 0x0195	; 0x800195 <__data_end+0x1>
    32b0:	e0 51       	subi	r30, 0x10	; 16
    32b2:	ff 4f       	sbci	r31, 0xFF	; 255
    32b4:	be 01       	movw	r22, r28
    32b6:	80 81       	ld	r24, Z
    32b8:	91 81       	ldd	r25, Z+1	; 0x01
    32ba:	0e 94 d8 13 	call	0x27b0	; 0x27b0 <_ZN13MUX16_CIRCUIT16prepareGroundMuxEi>
		eitModule->measureAllPrepreparedV(complex ? DirectPRINT_COMPLEX : DirectPRINT_MAGNITUDE);
    32be:	60 2f       	mov	r22, r16
    32c0:	80 91 94 01 	lds	r24, 0x0194	; 0x800194 <__data_end>
    32c4:	90 91 95 01 	lds	r25, 0x0195	; 0x800195 <__data_end+0x1>
    32c8:	0e 94 ab 0d 	call	0x1b56	; 0x1b56 <_ZN28ImpedanceMultiSensingCircuit22measureAllPrepreparedVE15directPrintMode>
			eitModule->measureAllPrepreparedV(complex ? DirectPRINT_COMPLEX : DirectPRINT_MAGNITUDE);
		}
	}
	// Measure all Voltages from Needle-SIGNAL to every possible Ground:
	eitModule->writeModesAndLeds(HIGH<<PIN_LED_BLUE | HIGH<<PIN_MODE_NEEDLE_OUT);
	for(int i = 0; i < ELECTRODE_NUMBER; i++){
    32cc:	21 96       	adiw	r28, 0x01	; 1
    32ce:	c0 31       	cpi	r28, 0x10	; 16
    32d0:	d1 05       	cpc	r29, r1
    32d2:	f1 f6       	brne	.-68     	; 0x3290 <_Z20startCollectingData2b+0xa8>
		eitModule->trinityMUX->prepareSignalMux(DISABLE_MUX);
		eitModule->trinityMUX->prepareGroundMux(i);
		eitModule->measureAllPrepreparedV(complex ? DirectPRINT_COMPLEX : DirectPRINT_MAGNITUDE);
	}
	// Measure All voltages without Ground:
	eitModule->writeModesAndLeds(HIGH<<PIN_LED_BLUE);
    32d4:	60 e8       	ldi	r22, 0x80	; 128
    32d6:	80 91 94 01 	lds	r24, 0x0194	; 0x800194 <__data_end>
    32da:	90 91 95 01 	lds	r25, 0x0195	; 0x800195 <__data_end+0x1>
    32de:	0e 94 0c 05 	call	0xa18	; 0xa18 <_ZN28ImpedanceMultiSensingCircuit17writeModesAndLedsEh>
	for(int i = 0; i < ELECTRODE_NUMBER; i++){
    32e2:	c0 e0       	ldi	r28, 0x00	; 0
    32e4:	d0 e0       	ldi	r29, 0x00	; 0
		eitModule->trinityMUX->prepareSignalMux(i);
    32e6:	e0 91 94 01 	lds	r30, 0x0194	; 0x800194 <__data_end>
    32ea:	f0 91 95 01 	lds	r31, 0x0195	; 0x800195 <__data_end+0x1>
    32ee:	e0 51       	subi	r30, 0x10	; 16
    32f0:	ff 4f       	sbci	r31, 0xFF	; 255
    32f2:	be 01       	movw	r22, r28
    32f4:	80 81       	ld	r24, Z
    32f6:	91 81       	ldd	r25, Z+1	; 0x01
    32f8:	0e 94 b8 13 	call	0x2770	; 0x2770 <_ZN13MUX16_CIRCUIT16prepareSignalMuxEi>
		eitModule->trinityMUX->prepareGroundMux(DISABLE_MUX);
    32fc:	e0 91 94 01 	lds	r30, 0x0194	; 0x800194 <__data_end>
    3300:	f0 91 95 01 	lds	r31, 0x0195	; 0x800195 <__data_end+0x1>
    3304:	e0 51       	subi	r30, 0x10	; 16
    3306:	ff 4f       	sbci	r31, 0xFF	; 255
    3308:	6f ef       	ldi	r22, 0xFF	; 255
    330a:	7f ef       	ldi	r23, 0xFF	; 255
    330c:	80 81       	ld	r24, Z
    330e:	91 81       	ldd	r25, Z+1	; 0x01
    3310:	0e 94 d8 13 	call	0x27b0	; 0x27b0 <_ZN13MUX16_CIRCUIT16prepareGroundMuxEi>
		eitModule->measureAllPrepreparedV(complex ? DirectPRINT_COMPLEX : DirectPRINT_MAGNITUDE);
    3314:	60 2f       	mov	r22, r16
    3316:	80 91 94 01 	lds	r24, 0x0194	; 0x800194 <__data_end>
    331a:	90 91 95 01 	lds	r25, 0x0195	; 0x800195 <__data_end+0x1>
    331e:	0e 94 ab 0d 	call	0x1b56	; 0x1b56 <_ZN28ImpedanceMultiSensingCircuit22measureAllPrepreparedVE15directPrintMode>
		eitModule->trinityMUX->prepareGroundMux(i);
		eitModule->measureAllPrepreparedV(complex ? DirectPRINT_COMPLEX : DirectPRINT_MAGNITUDE);
	}
	// Measure All voltages without Ground:
	eitModule->writeModesAndLeds(HIGH<<PIN_LED_BLUE);
	for(int i = 0; i < ELECTRODE_NUMBER; i++){
    3322:	21 96       	adiw	r28, 0x01	; 1
    3324:	c0 31       	cpi	r28, 0x10	; 16
    3326:	d1 05       	cpc	r29, r1
    3328:	f1 f6       	brne	.-68     	; 0x32e6 <_Z20startCollectingData2b+0xfe>
		eitModule->trinityMUX->prepareSignalMux(i);
		eitModule->trinityMUX->prepareGroundMux(DISABLE_MUX);
		eitModule->measureAllPrepreparedV(complex ? DirectPRINT_COMPLEX : DirectPRINT_MAGNITUDE);
	}
	// Measure Voltages from Needle-SIGNAL without Ground:
	eitModule->writeModesAndLeds(HIGH<<PIN_LED_BLUE | HIGH<<PIN_MODE_NEEDLE_OUT);
    332a:	62 e8       	ldi	r22, 0x82	; 130
    332c:	80 91 94 01 	lds	r24, 0x0194	; 0x800194 <__data_end>
    3330:	90 91 95 01 	lds	r25, 0x0195	; 0x800195 <__data_end+0x1>
    3334:	0e 94 0c 05 	call	0xa18	; 0xa18 <_ZN28ImpedanceMultiSensingCircuit17writeModesAndLedsEh>
	eitModule->trinityMUX->prepareSignalMux(DISABLE_MUX);
    3338:	e0 91 94 01 	lds	r30, 0x0194	; 0x800194 <__data_end>
    333c:	f0 91 95 01 	lds	r31, 0x0195	; 0x800195 <__data_end+0x1>
    3340:	e0 51       	subi	r30, 0x10	; 16
    3342:	ff 4f       	sbci	r31, 0xFF	; 255
    3344:	6f ef       	ldi	r22, 0xFF	; 255
    3346:	7f ef       	ldi	r23, 0xFF	; 255
    3348:	80 81       	ld	r24, Z
    334a:	91 81       	ldd	r25, Z+1	; 0x01
    334c:	0e 94 b8 13 	call	0x2770	; 0x2770 <_ZN13MUX16_CIRCUIT16prepareSignalMuxEi>
	eitModule->trinityMUX->prepareGroundMux(DISABLE_MUX);
    3350:	e0 91 94 01 	lds	r30, 0x0194	; 0x800194 <__data_end>
    3354:	f0 91 95 01 	lds	r31, 0x0195	; 0x800195 <__data_end+0x1>
    3358:	e0 51       	subi	r30, 0x10	; 16
    335a:	ff 4f       	sbci	r31, 0xFF	; 255
    335c:	6f ef       	ldi	r22, 0xFF	; 255
    335e:	7f ef       	ldi	r23, 0xFF	; 255
    3360:	80 81       	ld	r24, Z
    3362:	91 81       	ldd	r25, Z+1	; 0x01
    3364:	0e 94 d8 13 	call	0x27b0	; 0x27b0 <_ZN13MUX16_CIRCUIT16prepareGroundMuxEi>
	eitModule->measureAllPrepreparedV(complex ? DirectPRINT_COMPLEX : DirectPRINT_MAGNITUDE);
    3368:	11 11       	cpse	r17, r1
    336a:	02 c0       	rjmp	.+4      	; 0x3370 <_Z20startCollectingData2b+0x188>
    336c:	61 e0       	ldi	r22, 0x01	; 1
    336e:	01 c0       	rjmp	.+2      	; 0x3372 <_Z20startCollectingData2b+0x18a>
    3370:	62 e0       	ldi	r22, 0x02	; 2
    3372:	80 91 94 01 	lds	r24, 0x0194	; 0x800194 <__data_end>
    3376:	90 91 95 01 	lds	r25, 0x0195	; 0x800195 <__data_end+0x1>
    337a:	0e 94 ab 0d 	call	0x1b56	; 0x1b56 <_ZN28ImpedanceMultiSensingCircuit22measureAllPrepreparedVE15directPrintMode>
    337e:	61 2c       	mov	r6, r1
    3380:	71 2c       	mov	r7, r1
    3382:	23 01       	movw	r4, r6
    3384:	8f ef       	ldi	r24, 0xFF	; 255
    3386:	48 1a       	sub	r4, r24
    3388:	58 0a       	sbc	r5, r24
    338a:	e2 01       	movw	r28, r4
    338c:	80 91 94 01 	lds	r24, 0x0194	; 0x800194 <__data_end>
    3390:	90 91 95 01 	lds	r25, 0x0195	; 0x800195 <__data_end+0x1>
	// ---------------------------------------------------------------
	// Measure all resistances to each other (including Needle):
	for(int i = 0; i < ELECTRODE_NUMBER; i++){
		for(int j = i+1; j < ELECTRODE_NUMBER+NEEDLE_NUMBER; j++){
			if(complex){
				eitModule->measureImpedance(i, j);
    3394:	20 e0       	ldi	r18, 0x00	; 0
    3396:	4c 2f       	mov	r20, r28
    3398:	66 2d       	mov	r22, r6
	eitModule->measureAllPrepreparedV(complex ? DirectPRINT_COMPLEX : DirectPRINT_MAGNITUDE);
	// ---------------------------------------------------------------
	// Measure all resistances to each other (including Needle):
	for(int i = 0; i < ELECTRODE_NUMBER; i++){
		for(int j = i+1; j < ELECTRODE_NUMBER+NEEDLE_NUMBER; j++){
			if(complex){
    339a:	11 23       	and	r17, r17
    339c:	b9 f0       	breq	.+46     	; 0x33cc <_Z20startCollectingData2b+0x1e4>
				eitModule->measureImpedance(i, j);
    339e:	0e 94 ba 07 	call	0xf74	; 0xf74 <_ZN28ImpedanceMultiSensingCircuit16measureImpedanceEaa15directPrintMode>
				eitModule->sendBinaryData(MODE_Complex_Impedance, i, j, -1, eitModule->result_Real, eitModule->result_Imag);
    33a2:	80 91 94 01 	lds	r24, 0x0194	; 0x800194 <__data_end>
    33a6:	90 91 95 01 	lds	r25, 0x0195	; 0x800195 <__data_end+0x1>
    33aa:	fc 01       	movw	r30, r24
    33ac:	e9 5b       	subi	r30, 0xB9	; 185
    33ae:	ff 4f       	sbci	r31, 0xFF	; 255
    33b0:	80 80       	ld	r8, Z
    33b2:	91 80       	ldd	r9, Z+1	; 0x01
    33b4:	a2 80       	ldd	r10, Z+2	; 0x02
    33b6:	b3 80       	ldd	r11, Z+3	; 0x03
    33b8:	34 97       	sbiw	r30, 0x04	; 4
    33ba:	c0 80       	ld	r12, Z
    33bc:	d1 80       	ldd	r13, Z+1	; 0x01
    33be:	e2 80       	ldd	r14, Z+2	; 0x02
    33c0:	f3 80       	ldd	r15, Z+3	; 0x03
    33c2:	0f ef       	ldi	r16, 0xFF	; 255
    33c4:	2c 2f       	mov	r18, r28
    33c6:	46 2d       	mov	r20, r6
    33c8:	64 e0       	ldi	r22, 0x04	; 4
    33ca:	12 c0       	rjmp	.+36     	; 0x33f0 <_Z20startCollectingData2b+0x208>
			}else{
				eitModule->sendBinaryData(MODE_Magnitude_of_Impedance, i, j, -1, eitModule->measureImpedance(i, j));
    33cc:	0e 94 ba 07 	call	0xf74	; 0xf74 <_ZN28ImpedanceMultiSensingCircuit16measureImpedanceEaa15directPrintMode>
    33d0:	6b 01       	movw	r12, r22
    33d2:	7c 01       	movw	r14, r24
    33d4:	81 2c       	mov	r8, r1
    33d6:	91 2c       	mov	r9, r1
    33d8:	90 ec       	ldi	r25, 0xC0	; 192
    33da:	a9 2e       	mov	r10, r25
    33dc:	9f e7       	ldi	r25, 0x7F	; 127
    33de:	b9 2e       	mov	r11, r25
    33e0:	0f ef       	ldi	r16, 0xFF	; 255
    33e2:	2c 2f       	mov	r18, r28
    33e4:	46 2d       	mov	r20, r6
    33e6:	63 e0       	ldi	r22, 0x03	; 3
    33e8:	80 91 94 01 	lds	r24, 0x0194	; 0x800194 <__data_end>
    33ec:	90 91 95 01 	lds	r25, 0x0195	; 0x800195 <__data_end+0x1>
    33f0:	0e 94 54 07 	call	0xea8	; 0xea8 <_ZN28ImpedanceMultiSensingCircuit14sendBinaryDataEaaaaff>
	eitModule->trinityMUX->prepareGroundMux(DISABLE_MUX);
	eitModule->measureAllPrepreparedV(complex ? DirectPRINT_COMPLEX : DirectPRINT_MAGNITUDE);
	// ---------------------------------------------------------------
	// Measure all resistances to each other (including Needle):
	for(int i = 0; i < ELECTRODE_NUMBER; i++){
		for(int j = i+1; j < ELECTRODE_NUMBER+NEEDLE_NUMBER; j++){
    33f4:	21 96       	adiw	r28, 0x01	; 1
    33f6:	c1 31       	cpi	r28, 0x11	; 17
    33f8:	d1 05       	cpc	r29, r1
    33fa:	41 f6       	brne	.-112    	; 0x338c <_Z20startCollectingData2b+0x1a4>
    33fc:	32 01       	movw	r6, r4
	eitModule->trinityMUX->prepareSignalMux(DISABLE_MUX);
	eitModule->trinityMUX->prepareGroundMux(DISABLE_MUX);
	eitModule->measureAllPrepreparedV(complex ? DirectPRINT_COMPLEX : DirectPRINT_MAGNITUDE);
	// ---------------------------------------------------------------
	// Measure all resistances to each other (including Needle):
	for(int i = 0; i < ELECTRODE_NUMBER; i++){
    33fe:	f0 e1       	ldi	r31, 0x10	; 16
    3400:	4f 16       	cp	r4, r31
    3402:	51 04       	cpc	r5, r1
    3404:	09 f0       	breq	.+2      	; 0x3408 <_Z20startCollectingData2b+0x220>
    3406:	bd cf       	rjmp	.-134    	; 0x3382 <_Z20startCollectingData2b+0x19a>
				eitModule->sendBinaryData(MODE_Magnitude_of_Impedance, i, j, -1, eitModule->measureImpedance(i, j));
			}
		}
	}
	// End Sequence of sending Calibration Data:
	eitModule->sendBinaryData(MODE_Data_acquisition_finished);
    3408:	81 2c       	mov	r8, r1
    340a:	91 2c       	mov	r9, r1
    340c:	80 ec       	ldi	r24, 0xC0	; 192
    340e:	a8 2e       	mov	r10, r24
    3410:	8f e7       	ldi	r24, 0x7F	; 127
    3412:	b8 2e       	mov	r11, r24
    3414:	75 01       	movw	r14, r10
    3416:	64 01       	movw	r12, r8
    3418:	0f ef       	ldi	r16, 0xFF	; 255
    341a:	2f ef       	ldi	r18, 0xFF	; 255
    341c:	4f ef       	ldi	r20, 0xFF	; 255
    341e:	60 e0       	ldi	r22, 0x00	; 0
    3420:	80 91 94 01 	lds	r24, 0x0194	; 0x800194 <__data_end>
    3424:	90 91 95 01 	lds	r25, 0x0195	; 0x800195 <__data_end+0x1>
    3428:	0e 94 54 07 	call	0xea8	; 0xea8 <_ZN28ImpedanceMultiSensingCircuit14sendBinaryDataEaaaaff>
	eitModule->writeModesAndLeds(HIGH<<PIN_LED_YELLOW);
    342c:	60 e2       	ldi	r22, 0x20	; 32
    342e:	80 91 94 01 	lds	r24, 0x0194	; 0x800194 <__data_end>
    3432:	90 91 95 01 	lds	r25, 0x0195	; 0x800195 <__data_end+0x1>
    3436:	0e 94 0c 05 	call	0xa18	; 0xa18 <_ZN28ImpedanceMultiSensingCircuit17writeModesAndLedsEh>
	// End Measurement:
	eitModule->endMeasure();
    343a:	80 91 94 01 	lds	r24, 0x0194	; 0x800194 <__data_end>
    343e:	90 91 95 01 	lds	r25, 0x0195	; 0x800195 <__data_end+0x1>
}
    3442:	df 91       	pop	r29
    3444:	cf 91       	pop	r28
    3446:	1f 91       	pop	r17
    3448:	0f 91       	pop	r16
    344a:	ff 90       	pop	r15
    344c:	ef 90       	pop	r14
    344e:	df 90       	pop	r13
    3450:	cf 90       	pop	r12
    3452:	bf 90       	pop	r11
    3454:	af 90       	pop	r10
    3456:	9f 90       	pop	r9
    3458:	8f 90       	pop	r8
    345a:	7f 90       	pop	r7
    345c:	6f 90       	pop	r6
    345e:	5f 90       	pop	r5
    3460:	4f 90       	pop	r4
	}
	// End Sequence of sending Calibration Data:
	eitModule->sendBinaryData(MODE_Data_acquisition_finished);
	eitModule->writeModesAndLeds(HIGH<<PIN_LED_YELLOW);
	// End Measurement:
	eitModule->endMeasure();
    3462:	0c 94 5e 06 	jmp	0xcbc	; 0xcbc <_ZN28ImpedanceMultiSensingCircuit10endMeasureEv>

00003466 <_Z12testFunctionv>:
}

// Transmit measured Data:
void testFunction(){  
    3466:	ef 92       	push	r14
    3468:	0f 93       	push	r16
    346a:	1f 93       	push	r17
    346c:	cf 93       	push	r28
    346e:	df 93       	push	r29
    3470:	00 d0       	rcall	.+0      	; 0x3472 <_Z12testFunctionv+0xc>
    3472:	00 d0       	rcall	.+0      	; 0x3474 <_Z12testFunctionv+0xe>
    3474:	cd b7       	in	r28, 0x3d	; 61
    3476:	de b7       	in	r29, 0x3e	; 62
	// ----------  Impedance-Measurement tests:  ----------
	eitModule->beginMeasure();
    3478:	80 91 94 01 	lds	r24, 0x0194	; 0x800194 <__data_end>
    347c:	90 91 95 01 	lds	r25, 0x0195	; 0x800195 <__data_end+0x1>
    3480:	0e 94 49 06 	call	0xc92	; 0xc92 <_ZN28ImpedanceMultiSensingCircuit12beginMeasureEv>
	Serial.println(F("-------------------------------------------"));
    3484:	65 ee       	ldi	r22, 0xE5	; 229
    3486:	71 e0       	ldi	r23, 0x01	; 1
    3488:	87 e9       	ldi	r24, 0x97	; 151
    348a:	91 e0       	ldi	r25, 0x01	; 1
    348c:	0e 94 83 23 	call	0x4706	; 0x4706 <_ZN5Print7printlnEPK19__FlashStringHelper>
	eitModule->setElectrodeInitCond();
    3490:	80 91 94 01 	lds	r24, 0x0194	; 0x800194 <__data_end>
    3494:	90 91 95 01 	lds	r25, 0x0195	; 0x800195 <__data_end+0x1>
    3498:	0e 94 21 06 	call	0xc42	; 0xc42 <_ZN28ImpedanceMultiSensingCircuit20setElectrodeInitCondEv>
	eitModule->disableModes();
    349c:	80 91 94 01 	lds	r24, 0x0194	; 0x800194 <__data_end>
    34a0:	90 91 95 01 	lds	r25, 0x0195	; 0x800195 <__data_end+0x1>
    34a4:	0e 94 3e 06 	call	0xc7c	; 0xc7c <_ZN28ImpedanceMultiSensingCircuit12disableModesEv>
	int16_t resistance_re;
	int16_t reactance_im;
	eitModule->ad5933ciruit->getOneFrequency(&resistance_re, &reactance_im);
    34a8:	e0 91 94 01 	lds	r30, 0x0194	; 0x800194 <__data_end>
    34ac:	f0 91 95 01 	lds	r31, 0x0195	; 0x800195 <__data_end+0x1>
    34b0:	ee 50       	subi	r30, 0x0E	; 14
    34b2:	ff 4f       	sbci	r31, 0xFF	; 255
    34b4:	ae 01       	movw	r20, r28
    34b6:	4f 5f       	subi	r20, 0xFF	; 255
    34b8:	5f 4f       	sbci	r21, 0xFF	; 255
    34ba:	be 01       	movw	r22, r28
    34bc:	6d 5f       	subi	r22, 0xFD	; 253
    34be:	7f 4f       	sbci	r23, 0xFF	; 255
    34c0:	80 81       	ld	r24, Z
    34c2:	91 81       	ldd	r25, Z+1	; 0x01
    34c4:	0e 94 ff 03 	call	0x7fe	; 0x7fe <_ZN7AD5933s15getOneFrequencyEPiS0_>
	Serial.print(F("resistance_re = "));
    34c8:	64 ed       	ldi	r22, 0xD4	; 212
    34ca:	71 e0       	ldi	r23, 0x01	; 1
    34cc:	87 e9       	ldi	r24, 0x97	; 151
    34ce:	91 e0       	ldi	r25, 0x01	; 1
    34d0:	0e 94 52 23 	call	0x46a4	; 0x46a4 <_ZN5Print5printEPK19__FlashStringHelper>
	Serial.println(resistance_re);
    34d4:	6b 81       	ldd	r22, Y+3	; 0x03
    34d6:	7c 81       	ldd	r23, Y+4	; 0x04
    34d8:	4a e0       	ldi	r20, 0x0A	; 10
    34da:	50 e0       	ldi	r21, 0x00	; 0
    34dc:	87 e9       	ldi	r24, 0x97	; 151
    34de:	91 e0       	ldi	r25, 0x01	; 1
    34e0:	0e 94 59 24 	call	0x48b2	; 0x48b2 <_ZN5Print7printlnEii>
	Serial.print(F("reactance_im = "));
    34e4:	64 ec       	ldi	r22, 0xC4	; 196
    34e6:	71 e0       	ldi	r23, 0x01	; 1
    34e8:	87 e9       	ldi	r24, 0x97	; 151
    34ea:	91 e0       	ldi	r25, 0x01	; 1
    34ec:	0e 94 52 23 	call	0x46a4	; 0x46a4 <_ZN5Print5printEPK19__FlashStringHelper>
	Serial.println(reactance_im);
    34f0:	69 81       	ldd	r22, Y+1	; 0x01
    34f2:	7a 81       	ldd	r23, Y+2	; 0x02
    34f4:	4a e0       	ldi	r20, 0x0A	; 10
    34f6:	50 e0       	ldi	r21, 0x00	; 0
    34f8:	87 e9       	ldi	r24, 0x97	; 151
    34fa:	91 e0       	ldi	r25, 0x01	; 1
    34fc:	0e 94 59 24 	call	0x48b2	; 0x48b2 <_ZN5Print7printlnEii>
	Serial.println(F("-------------------------------------------"));
    3500:	68 e9       	ldi	r22, 0x98	; 152
    3502:	71 e0       	ldi	r23, 0x01	; 1
    3504:	87 e9       	ldi	r24, 0x97	; 151
    3506:	91 e0       	ldi	r25, 0x01	; 1
    3508:	0e 94 83 23 	call	0x4706	; 0x4706 <_ZN5Print7printlnEPK19__FlashStringHelper>
	Serial.print(F("gainU = "));
    350c:	6f e8       	ldi	r22, 0x8F	; 143
    350e:	71 e0       	ldi	r23, 0x01	; 1
    3510:	87 e9       	ldi	r24, 0x97	; 151
    3512:	91 e0       	ldi	r25, 0x01	; 1
    3514:	0e 94 52 23 	call	0x46a4	; 0x46a4 <_ZN5Print5printEPK19__FlashStringHelper>
	Serial.println(eitModule->getGainU(), 10);
    3518:	80 91 94 01 	lds	r24, 0x0194	; 0x800194 <__data_end>
    351c:	90 91 95 01 	lds	r25, 0x0195	; 0x800195 <__data_end+0x1>
    3520:	0e 94 44 07 	call	0xe88	; 0xe88 <_ZN28ImpedanceMultiSensingCircuit8getGainUEv>
    3524:	ab 01       	movw	r20, r22
    3526:	bc 01       	movw	r22, r24
    3528:	2a e0       	ldi	r18, 0x0A	; 10
    352a:	30 e0       	ldi	r19, 0x00	; 0
    352c:	87 e9       	ldi	r24, 0x97	; 151
    352e:	91 e0       	ldi	r25, 0x01	; 1
    3530:	0e 94 46 25 	call	0x4a8c	; 0x4a8c <_ZN5Print7printlnEdi>
	Serial.print(F("gainZ = "));
    3534:	66 e8       	ldi	r22, 0x86	; 134
    3536:	71 e0       	ldi	r23, 0x01	; 1
    3538:	87 e9       	ldi	r24, 0x97	; 151
    353a:	91 e0       	ldi	r25, 0x01	; 1
    353c:	0e 94 52 23 	call	0x46a4	; 0x46a4 <_ZN5Print5printEPK19__FlashStringHelper>
	Serial.println(eitModule->getGainZ(), 10);
    3540:	80 91 94 01 	lds	r24, 0x0194	; 0x800194 <__data_end>
    3544:	90 91 95 01 	lds	r25, 0x0195	; 0x800195 <__data_end+0x1>
    3548:	0e 94 4c 07 	call	0xe98	; 0xe98 <_ZN28ImpedanceMultiSensingCircuit8getGainZEv>
    354c:	ab 01       	movw	r20, r22
    354e:	bc 01       	movw	r22, r24
    3550:	2a e0       	ldi	r18, 0x0A	; 10
    3552:	30 e0       	ldi	r19, 0x00	; 0
    3554:	87 e9       	ldi	r24, 0x97	; 151
    3556:	91 e0       	ldi	r25, 0x01	; 1
    3558:	0e 94 46 25 	call	0x4a8c	; 0x4a8c <_ZN5Print7printlnEdi>
	Serial.print(F("compensation_V_Re = "));
    355c:	61 e7       	ldi	r22, 0x71	; 113
    355e:	71 e0       	ldi	r23, 0x01	; 1
    3560:	87 e9       	ldi	r24, 0x97	; 151
    3562:	91 e0       	ldi	r25, 0x01	; 1
    3564:	0e 94 52 23 	call	0x46a4	; 0x46a4 <_ZN5Print5printEPK19__FlashStringHelper>
	Serial.println(eitModule->compensation_V_Re);
    3568:	e0 91 94 01 	lds	r30, 0x0194	; 0x800194 <__data_end>
    356c:	f0 91 95 01 	lds	r31, 0x0195	; 0x800195 <__data_end+0x1>
    3570:	e1 5b       	subi	r30, 0xB1	; 177
    3572:	ff 4f       	sbci	r31, 0xFF	; 255
    3574:	60 81       	ld	r22, Z
    3576:	71 81       	ldd	r23, Z+1	; 0x01
    3578:	4a e0       	ldi	r20, 0x0A	; 10
    357a:	50 e0       	ldi	r21, 0x00	; 0
    357c:	87 e9       	ldi	r24, 0x97	; 151
    357e:	91 e0       	ldi	r25, 0x01	; 1
    3580:	0e 94 59 24 	call	0x48b2	; 0x48b2 <_ZN5Print7printlnEii>
	Serial.print(F("compensation_V_Im = "));
    3584:	6c e5       	ldi	r22, 0x5C	; 92
    3586:	71 e0       	ldi	r23, 0x01	; 1
    3588:	87 e9       	ldi	r24, 0x97	; 151
    358a:	91 e0       	ldi	r25, 0x01	; 1
    358c:	0e 94 52 23 	call	0x46a4	; 0x46a4 <_ZN5Print5printEPK19__FlashStringHelper>
	Serial.println(eitModule->compensation_V_Im);
    3590:	e0 91 94 01 	lds	r30, 0x0194	; 0x800194 <__data_end>
    3594:	f0 91 95 01 	lds	r31, 0x0195	; 0x800195 <__data_end+0x1>
    3598:	ef 5a       	subi	r30, 0xAF	; 175
    359a:	ff 4f       	sbci	r31, 0xFF	; 255
    359c:	60 81       	ld	r22, Z
    359e:	71 81       	ldd	r23, Z+1	; 0x01
    35a0:	4a e0       	ldi	r20, 0x0A	; 10
    35a2:	50 e0       	ldi	r21, 0x00	; 0
    35a4:	87 e9       	ldi	r24, 0x97	; 151
    35a6:	91 e0       	ldi	r25, 0x01	; 1
    35a8:	0e 94 59 24 	call	0x48b2	; 0x48b2 <_ZN5Print7printlnEii>
	Serial.print(F("compensation_Z_Re = "));
    35ac:	67 e4       	ldi	r22, 0x47	; 71
    35ae:	71 e0       	ldi	r23, 0x01	; 1
    35b0:	87 e9       	ldi	r24, 0x97	; 151
    35b2:	91 e0       	ldi	r25, 0x01	; 1
    35b4:	0e 94 52 23 	call	0x46a4	; 0x46a4 <_ZN5Print5printEPK19__FlashStringHelper>
	Serial.println(eitModule->compensation_Z_Re);
    35b8:	e0 91 94 01 	lds	r30, 0x0194	; 0x800194 <__data_end>
    35bc:	f0 91 95 01 	lds	r31, 0x0195	; 0x800195 <__data_end+0x1>
    35c0:	e5 5b       	subi	r30, 0xB5	; 181
    35c2:	ff 4f       	sbci	r31, 0xFF	; 255
    35c4:	60 81       	ld	r22, Z
    35c6:	71 81       	ldd	r23, Z+1	; 0x01
    35c8:	4a e0       	ldi	r20, 0x0A	; 10
    35ca:	50 e0       	ldi	r21, 0x00	; 0
    35cc:	87 e9       	ldi	r24, 0x97	; 151
    35ce:	91 e0       	ldi	r25, 0x01	; 1
    35d0:	0e 94 59 24 	call	0x48b2	; 0x48b2 <_ZN5Print7printlnEii>
	Serial.print(F("compensation_Z_Im = "));
    35d4:	62 e3       	ldi	r22, 0x32	; 50
    35d6:	71 e0       	ldi	r23, 0x01	; 1
    35d8:	87 e9       	ldi	r24, 0x97	; 151
    35da:	91 e0       	ldi	r25, 0x01	; 1
    35dc:	0e 94 52 23 	call	0x46a4	; 0x46a4 <_ZN5Print5printEPK19__FlashStringHelper>
	Serial.println(eitModule->compensation_Z_Im);
    35e0:	e0 91 94 01 	lds	r30, 0x0194	; 0x800194 <__data_end>
    35e4:	f0 91 95 01 	lds	r31, 0x0195	; 0x800195 <__data_end+0x1>
    35e8:	e3 5b       	subi	r30, 0xB3	; 179
    35ea:	ff 4f       	sbci	r31, 0xFF	; 255
    35ec:	60 81       	ld	r22, Z
    35ee:	71 81       	ldd	r23, Z+1	; 0x01
    35f0:	4a e0       	ldi	r20, 0x0A	; 10
    35f2:	50 e0       	ldi	r21, 0x00	; 0
    35f4:	87 e9       	ldi	r24, 0x97	; 151
    35f6:	91 e0       	ldi	r25, 0x01	; 1
    35f8:	0e 94 59 24 	call	0x48b2	; 0x48b2 <_ZN5Print7printlnEii>
	Serial.println(F("-------------------------------------------"));
    35fc:	66 e0       	ldi	r22, 0x06	; 6
    35fe:	71 e0       	ldi	r23, 0x01	; 1
    3600:	87 e9       	ldi	r24, 0x97	; 151
    3602:	91 e0       	ldi	r25, 0x01	; 1
    3604:	0e 94 83 23 	call	0x4706	; 0x4706 <_ZN5Print7printlnEPK19__FlashStringHelper>
	Serial.println(eitModule->measureImpedance(DISABLE_MUX, DISABLE_MUX));	// Measured Total-Idle-Impedance
    3608:	20 e0       	ldi	r18, 0x00	; 0
    360a:	4f ef       	ldi	r20, 0xFF	; 255
    360c:	6f ef       	ldi	r22, 0xFF	; 255
    360e:	80 91 94 01 	lds	r24, 0x0194	; 0x800194 <__data_end>
    3612:	90 91 95 01 	lds	r25, 0x0195	; 0x800195 <__data_end+0x1>
    3616:	0e 94 ba 07 	call	0xf74	; 0xf74 <_ZN28ImpedanceMultiSensingCircuit16measureImpedanceEaa15directPrintMode>
    361a:	ab 01       	movw	r20, r22
    361c:	bc 01       	movw	r22, r24
    361e:	22 e0       	ldi	r18, 0x02	; 2
    3620:	30 e0       	ldi	r19, 0x00	; 0
    3622:	87 e9       	ldi	r24, 0x97	; 151
    3624:	91 e0       	ldi	r25, 0x01	; 1
    3626:	0e 94 46 25 	call	0x4a8c	; 0x4a8c <_ZN5Print7printlnEdi>
	Serial.println(eitModule->measureImpedance(0, DISABLE_MUX));			// Measured Half-Idle-Impedance 1 [signal out = 0, GND = None]
    362a:	20 e0       	ldi	r18, 0x00	; 0
    362c:	4f ef       	ldi	r20, 0xFF	; 255
    362e:	60 e0       	ldi	r22, 0x00	; 0
    3630:	80 91 94 01 	lds	r24, 0x0194	; 0x800194 <__data_end>
    3634:	90 91 95 01 	lds	r25, 0x0195	; 0x800195 <__data_end+0x1>
    3638:	0e 94 ba 07 	call	0xf74	; 0xf74 <_ZN28ImpedanceMultiSensingCircuit16measureImpedanceEaa15directPrintMode>
    363c:	ab 01       	movw	r20, r22
    363e:	bc 01       	movw	r22, r24
    3640:	22 e0       	ldi	r18, 0x02	; 2
    3642:	30 e0       	ldi	r19, 0x00	; 0
    3644:	87 e9       	ldi	r24, 0x97	; 151
    3646:	91 e0       	ldi	r25, 0x01	; 1
    3648:	0e 94 46 25 	call	0x4a8c	; 0x4a8c <_ZN5Print7printlnEdi>
	Serial.println(eitModule->measureImpedance(DISABLE_MUX, 0));			// Measured Half-Idle-Impedance 2 [signal out = None, GND = 0]
    364c:	20 e0       	ldi	r18, 0x00	; 0
    364e:	40 e0       	ldi	r20, 0x00	; 0
    3650:	6f ef       	ldi	r22, 0xFF	; 255
    3652:	80 91 94 01 	lds	r24, 0x0194	; 0x800194 <__data_end>
    3656:	90 91 95 01 	lds	r25, 0x0195	; 0x800195 <__data_end+0x1>
    365a:	0e 94 ba 07 	call	0xf74	; 0xf74 <_ZN28ImpedanceMultiSensingCircuit16measureImpedanceEaa15directPrintMode>
    365e:	ab 01       	movw	r20, r22
    3660:	bc 01       	movw	r22, r24
    3662:	22 e0       	ldi	r18, 0x02	; 2
    3664:	30 e0       	ldi	r19, 0x00	; 0
    3666:	87 e9       	ldi	r24, 0x97	; 151
    3668:	91 e0       	ldi	r25, 0x01	; 1
    366a:	0e 94 46 25 	call	0x4a8c	; 0x4a8c <_ZN5Print7printlnEdi>
	Serial.println(eitModule->measureImpedance(0, 1));			// Measured Half-Idle-Impedance 2 [signal out = None, GND = 0]
    366e:	20 e0       	ldi	r18, 0x00	; 0
    3670:	41 e0       	ldi	r20, 0x01	; 1
    3672:	60 e0       	ldi	r22, 0x00	; 0
    3674:	80 91 94 01 	lds	r24, 0x0194	; 0x800194 <__data_end>
    3678:	90 91 95 01 	lds	r25, 0x0195	; 0x800195 <__data_end+0x1>
    367c:	0e 94 ba 07 	call	0xf74	; 0xf74 <_ZN28ImpedanceMultiSensingCircuit16measureImpedanceEaa15directPrintMode>
    3680:	ab 01       	movw	r20, r22
    3682:	bc 01       	movw	r22, r24
    3684:	22 e0       	ldi	r18, 0x02	; 2
    3686:	30 e0       	ldi	r19, 0x00	; 0
    3688:	87 e9       	ldi	r24, 0x97	; 151
    368a:	91 e0       	ldi	r25, 0x01	; 1
    368c:	0e 94 46 25 	call	0x4a8c	; 0x4a8c <_ZN5Print7printlnEdi>
	Serial.println(F("Measured Impedances: "));
    3690:	60 ef       	ldi	r22, 0xF0	; 240
    3692:	70 e0       	ldi	r23, 0x00	; 0
    3694:	87 e9       	ldi	r24, 0x97	; 151
    3696:	91 e0       	ldi	r25, 0x01	; 1
    3698:	0e 94 83 23 	call	0x4706	; 0x4706 <_ZN5Print7printlnEPK19__FlashStringHelper>
    369c:	60 e0       	ldi	r22, 0x00	; 0
    369e:	11 e0       	ldi	r17, 0x01	; 1
    36a0:	16 0f       	add	r17, r22
	for(int i = 0; i < ELECTRODE_NUMBER-1; i++){
		Serial.println(eitModule->measureImpedance(i, (i+1)));
    36a2:	20 e0       	ldi	r18, 0x00	; 0
    36a4:	41 2f       	mov	r20, r17
    36a6:	80 91 94 01 	lds	r24, 0x0194	; 0x800194 <__data_end>
    36aa:	90 91 95 01 	lds	r25, 0x0195	; 0x800195 <__data_end+0x1>
    36ae:	0e 94 ba 07 	call	0xf74	; 0xf74 <_ZN28ImpedanceMultiSensingCircuit16measureImpedanceEaa15directPrintMode>
    36b2:	ab 01       	movw	r20, r22
    36b4:	bc 01       	movw	r22, r24
    36b6:	22 e0       	ldi	r18, 0x02	; 2
    36b8:	30 e0       	ldi	r19, 0x00	; 0
    36ba:	87 e9       	ldi	r24, 0x97	; 151
    36bc:	91 e0       	ldi	r25, 0x01	; 1
    36be:	0e 94 46 25 	call	0x4a8c	; 0x4a8c <_ZN5Print7printlnEdi>
    36c2:	61 2f       	mov	r22, r17
	Serial.println(eitModule->measureImpedance(DISABLE_MUX, DISABLE_MUX));	// Measured Total-Idle-Impedance
	Serial.println(eitModule->measureImpedance(0, DISABLE_MUX));			// Measured Half-Idle-Impedance 1 [signal out = 0, GND = None]
	Serial.println(eitModule->measureImpedance(DISABLE_MUX, 0));			// Measured Half-Idle-Impedance 2 [signal out = None, GND = 0]
	Serial.println(eitModule->measureImpedance(0, 1));			// Measured Half-Idle-Impedance 2 [signal out = None, GND = 0]
	Serial.println(F("Measured Impedances: "));
	for(int i = 0; i < ELECTRODE_NUMBER-1; i++){
    36c4:	1f 30       	cpi	r17, 0x0F	; 15
    36c6:	59 f7       	brne	.-42     	; 0x369e <_Z12testFunctionv+0x238>
	//Serial.print(F("Meas Voltage @ Needle (Stimulation: E0 - E8), no correction:	"));
	//Serial.println(eitModule->measureVoltage(16, 0, 8, DirectPRINT_NONE, false), 4);
	//eitModule->endMeasure();
	int a = 0;
	int b = 3;
	Serial.print(F("Meas Voltage:"));
    36c8:	62 ee       	ldi	r22, 0xE2	; 226
    36ca:	70 e0       	ldi	r23, 0x00	; 0
    36cc:	87 e9       	ldi	r24, 0x97	; 151
    36ce:	91 e0       	ldi	r25, 0x01	; 1
    36d0:	0e 94 52 23 	call	0x46a4	; 0x46a4 <_ZN5Print5printEPK19__FlashStringHelper>
	Serial.println(eitModule->measureVoltage(0, a, b, DirectPRINT_NONE, false), 4);
    36d4:	e1 2c       	mov	r14, r1
    36d6:	00 e0       	ldi	r16, 0x00	; 0
    36d8:	23 e0       	ldi	r18, 0x03	; 3
    36da:	40 e0       	ldi	r20, 0x00	; 0
    36dc:	60 e0       	ldi	r22, 0x00	; 0
    36de:	80 91 94 01 	lds	r24, 0x0194	; 0x800194 <__data_end>
    36e2:	90 91 95 01 	lds	r25, 0x0195	; 0x800195 <__data_end+0x1>
    36e6:	0e 94 6e 09 	call	0x12dc	; 0x12dc <_ZN28ImpedanceMultiSensingCircuit14measureVoltageEaaa15directPrintModeb>
    36ea:	ab 01       	movw	r20, r22
    36ec:	bc 01       	movw	r22, r24
    36ee:	24 e0       	ldi	r18, 0x04	; 4
    36f0:	30 e0       	ldi	r19, 0x00	; 0
    36f2:	87 e9       	ldi	r24, 0x97	; 151
    36f4:	91 e0       	ldi	r25, 0x01	; 1
    36f6:	0e 94 46 25 	call	0x4a8c	; 0x4a8c <_ZN5Print7printlnEdi>
	Serial.println(eitModule->measureVoltage(1, a, b, DirectPRINT_NONE, false), 4);
    36fa:	23 e0       	ldi	r18, 0x03	; 3
    36fc:	40 e0       	ldi	r20, 0x00	; 0
    36fe:	61 e0       	ldi	r22, 0x01	; 1
    3700:	80 91 94 01 	lds	r24, 0x0194	; 0x800194 <__data_end>
    3704:	90 91 95 01 	lds	r25, 0x0195	; 0x800195 <__data_end+0x1>
    3708:	0e 94 6e 09 	call	0x12dc	; 0x12dc <_ZN28ImpedanceMultiSensingCircuit14measureVoltageEaaa15directPrintModeb>
    370c:	ab 01       	movw	r20, r22
    370e:	bc 01       	movw	r22, r24
    3710:	24 e0       	ldi	r18, 0x04	; 4
    3712:	30 e0       	ldi	r19, 0x00	; 0
    3714:	87 e9       	ldi	r24, 0x97	; 151
    3716:	91 e0       	ldi	r25, 0x01	; 1
    3718:	0e 94 46 25 	call	0x4a8c	; 0x4a8c <_ZN5Print7printlnEdi>
	Serial.println(eitModule->measureVoltage(2, a, b, DirectPRINT_NONE, false), 4);
    371c:	23 e0       	ldi	r18, 0x03	; 3
    371e:	40 e0       	ldi	r20, 0x00	; 0
    3720:	62 e0       	ldi	r22, 0x02	; 2
    3722:	80 91 94 01 	lds	r24, 0x0194	; 0x800194 <__data_end>
    3726:	90 91 95 01 	lds	r25, 0x0195	; 0x800195 <__data_end+0x1>
    372a:	0e 94 6e 09 	call	0x12dc	; 0x12dc <_ZN28ImpedanceMultiSensingCircuit14measureVoltageEaaa15directPrintModeb>
    372e:	ab 01       	movw	r20, r22
    3730:	bc 01       	movw	r22, r24
    3732:	24 e0       	ldi	r18, 0x04	; 4
    3734:	30 e0       	ldi	r19, 0x00	; 0
    3736:	87 e9       	ldi	r24, 0x97	; 151
    3738:	91 e0       	ldi	r25, 0x01	; 1
    373a:	0e 94 46 25 	call	0x4a8c	; 0x4a8c <_ZN5Print7printlnEdi>
	Serial.println(eitModule->measureVoltage(3, a, b, DirectPRINT_NONE, false), 4);
    373e:	23 e0       	ldi	r18, 0x03	; 3
    3740:	40 e0       	ldi	r20, 0x00	; 0
    3742:	63 e0       	ldi	r22, 0x03	; 3
    3744:	80 91 94 01 	lds	r24, 0x0194	; 0x800194 <__data_end>
    3748:	90 91 95 01 	lds	r25, 0x0195	; 0x800195 <__data_end+0x1>
    374c:	0e 94 6e 09 	call	0x12dc	; 0x12dc <_ZN28ImpedanceMultiSensingCircuit14measureVoltageEaaa15directPrintModeb>
    3750:	ab 01       	movw	r20, r22
    3752:	bc 01       	movw	r22, r24
    3754:	24 e0       	ldi	r18, 0x04	; 4
    3756:	30 e0       	ldi	r19, 0x00	; 0
    3758:	87 e9       	ldi	r24, 0x97	; 151
    375a:	91 e0       	ldi	r25, 0x01	; 1
    375c:	0e 94 46 25 	call	0x4a8c	; 0x4a8c <_ZN5Print7printlnEdi>
	Serial.println(eitModule->measureVoltage(4, a, b, DirectPRINT_NONE, false), 4);
    3760:	23 e0       	ldi	r18, 0x03	; 3
    3762:	40 e0       	ldi	r20, 0x00	; 0
    3764:	64 e0       	ldi	r22, 0x04	; 4
    3766:	80 91 94 01 	lds	r24, 0x0194	; 0x800194 <__data_end>
    376a:	90 91 95 01 	lds	r25, 0x0195	; 0x800195 <__data_end+0x1>
    376e:	0e 94 6e 09 	call	0x12dc	; 0x12dc <_ZN28ImpedanceMultiSensingCircuit14measureVoltageEaaa15directPrintModeb>
    3772:	ab 01       	movw	r20, r22
    3774:	bc 01       	movw	r22, r24
    3776:	24 e0       	ldi	r18, 0x04	; 4
    3778:	30 e0       	ldi	r19, 0x00	; 0
    377a:	87 e9       	ldi	r24, 0x97	; 151
    377c:	91 e0       	ldi	r25, 0x01	; 1
    377e:	0e 94 46 25 	call	0x4a8c	; 0x4a8c <_ZN5Print7printlnEdi>
	Serial.println(eitModule->measureVoltage(5, a, b, DirectPRINT_NONE, false), 4);
    3782:	23 e0       	ldi	r18, 0x03	; 3
    3784:	40 e0       	ldi	r20, 0x00	; 0
    3786:	65 e0       	ldi	r22, 0x05	; 5
    3788:	80 91 94 01 	lds	r24, 0x0194	; 0x800194 <__data_end>
    378c:	90 91 95 01 	lds	r25, 0x0195	; 0x800195 <__data_end+0x1>
    3790:	0e 94 6e 09 	call	0x12dc	; 0x12dc <_ZN28ImpedanceMultiSensingCircuit14measureVoltageEaaa15directPrintModeb>
    3794:	ab 01       	movw	r20, r22
    3796:	bc 01       	movw	r22, r24
    3798:	24 e0       	ldi	r18, 0x04	; 4
    379a:	30 e0       	ldi	r19, 0x00	; 0
    379c:	87 e9       	ldi	r24, 0x97	; 151
    379e:	91 e0       	ldi	r25, 0x01	; 1
    37a0:	0e 94 46 25 	call	0x4a8c	; 0x4a8c <_ZN5Print7printlnEdi>
}
    37a4:	0f 90       	pop	r0
    37a6:	0f 90       	pop	r0
    37a8:	0f 90       	pop	r0
    37aa:	0f 90       	pop	r0
    37ac:	df 91       	pop	r29
    37ae:	cf 91       	pop	r28
    37b0:	1f 91       	pop	r17
    37b2:	0f 91       	pop	r16
    37b4:	ef 90       	pop	r14
    37b6:	08 95       	ret

000037b8 <setup>:


// =======================================================================

void setup() {
    37b8:	cf 93       	push	r28
    37ba:	df 93       	push	r29
	delay(2000);
    37bc:	60 ed       	ldi	r22, 0xD0	; 208
    37be:	77 e0       	ldi	r23, 0x07	; 7
    37c0:	80 e0       	ldi	r24, 0x00	; 0
    37c2:	90 e0       	ldi	r25, 0x00	; 0
    37c4:	0e 94 00 2a 	call	0x5400	; 0x5400 <delay>
	// Begin Serial communication:
	Serial.begin(SERIAL_BAUDRATE);
    37c8:	40 e0       	ldi	r20, 0x00	; 0
    37ca:	52 ec       	ldi	r21, 0xC2	; 194
    37cc:	61 e0       	ldi	r22, 0x01	; 1
    37ce:	70 e0       	ldi	r23, 0x00	; 0
    37d0:	87 e9       	ldi	r24, 0x97	; 151
    37d2:	91 e0       	ldi	r25, 0x01	; 1
    37d4:	0e 94 0c 23 	call	0x4618	; 0x4618 <_ZN7Serial_5beginEm>
	// Start up EIT-Module:
	eitModule = new ImpedanceMultiSensingCircuit;
    37d8:	86 e0       	ldi	r24, 0x06	; 6
    37da:	91 e0       	ldi	r25, 0x01	; 1
    37dc:	0e 94 3b 23 	call	0x4676	; 0x4676 <_Znwj>
    37e0:	ec 01       	movw	r28, r24
    37e2:	0e 94 9e 05 	call	0xb3c	; 0xb3c <_ZN28ImpedanceMultiSensingCircuitC1Ev>
    37e6:	d0 93 95 01 	sts	0x0195, r29	; 0x800195 <__data_end+0x1>
    37ea:	c0 93 94 01 	sts	0x0194, r28	; 0x800194 <__data_end>
	if(eitModule->initIMSC()){
    37ee:	ce 01       	movw	r24, r28
    37f0:	0e 94 53 0c 	call	0x18a6	; 0x18a6 <_ZN28ImpedanceMultiSensingCircuit8initIMSCEv>
    37f4:	88 23       	and	r24, r24
    37f6:	21 f0       	breq	.+8      	; 0x3800 <setup+0x48>
		// ERROR:
		exit(1);
    37f8:	81 e0       	ldi	r24, 0x01	; 1
    37fa:	90 e0       	ldi	r25, 0x00	; 0
    37fc:	0e 94 eb 32 	call	0x65d6	; 0x65d6 <_exit>
	}
	// Get compensation Data / Config:
	updateCompensationValues();
    3800:	0e 94 b2 17 	call	0x2f64	; 0x2f64 <_Z24updateCompensationValuesv>
	// Short Waiting time to ensure steady state:
	delay(100);
    3804:	64 e6       	ldi	r22, 0x64	; 100
    3806:	70 e0       	ldi	r23, 0x00	; 0
    3808:	80 e0       	ldi	r24, 0x00	; 0
    380a:	90 e0       	ldi	r25, 0x00	; 0
    380c:	0e 94 00 2a 	call	0x5400	; 0x5400 <delay>
	// Inform about finished Initialization:
	Serial.println(F("READY"));
    3810:	6c ed       	ldi	r22, 0xDC	; 220
    3812:	70 e0       	ldi	r23, 0x00	; 0
    3814:	87 e9       	ldi	r24, 0x97	; 151
    3816:	91 e0       	ldi	r25, 0x01	; 1
}
    3818:	df 91       	pop	r29
    381a:	cf 91       	pop	r28
	// Get compensation Data / Config:
	updateCompensationValues();
	// Short Waiting time to ensure steady state:
	delay(100);
	// Inform about finished Initialization:
	Serial.println(F("READY"));
    381c:	0c 94 83 23 	jmp	0x4706	; 0x4706 <_ZN5Print7printlnEPK19__FlashStringHelper>

00003820 <_Z21setMeasurementPatterni>:
	eitModule->compensation_Z_Re = (EEPROM.read(COMPENSATIONVALUESADDR+2*BYTESIZE_OF_COMPENSATIONVALUES  )<<8) +  EEPROM.read(COMPENSATIONVALUESADDR+2*BYTESIZE_OF_COMPENSATIONVALUES+1);
	eitModule->compensation_Z_Im = (EEPROM.read(COMPENSATIONVALUESADDR+3*BYTESIZE_OF_COMPENSATIONVALUES  )<<8) +  EEPROM.read(COMPENSATIONVALUESADDR+3*BYTESIZE_OF_COMPENSATIONVALUES+1);
}

// Receive Measurement Pattern (binary):
void setMeasurementPattern(int patternIdx){
    3820:	ef 92       	push	r14
    3822:	ff 92       	push	r15
    3824:	0f 93       	push	r16
    3826:	1f 93       	push	r17
    3828:	cf 93       	push	r28
    382a:	df 93       	push	r29
    382c:	7c 01       	movw	r14, r24
  for (int i = 0; i<MEASURE_NUMBER_PER_STIMULATION; i++){
    382e:	c0 e0       	ldi	r28, 0x00	; 0
    3830:	d0 e0       	ldi	r29, 0x00	; 0
	  eitModule->meas_pattern[i] = 0;
    3832:	e0 91 94 01 	lds	r30, 0x0194	; 0x800194 <__data_end>
    3836:	f0 91 95 01 	lds	r31, 0x0195	; 0x800195 <__data_end+0x1>
    383a:	ec 0f       	add	r30, r28
    383c:	fd 1f       	adc	r31, r29
    383e:	10 82       	st	Z, r1
	  for (int j = 0; j<ELECTRODE_NUMBER; j++){
    3840:	00 e0       	ldi	r16, 0x00	; 0
    3842:	10 e0       	ldi	r17, 0x00	; 0
		  while (Serial.available() <= 0){}
    3844:	87 e9       	ldi	r24, 0x97	; 151
    3846:	91 e0       	ldi	r25, 0x01	; 1
    3848:	0e 94 36 22 	call	0x446c	; 0x446c <_ZN7Serial_9availableEv>
    384c:	18 16       	cp	r1, r24
    384e:	19 06       	cpc	r1, r25
    3850:	cc f7       	brge	.-14     	; 0x3844 <_Z21setMeasurementPatterni+0x24>
		  incomingByte = (Serial.read());
    3852:	87 e9       	ldi	r24, 0x97	; 151
    3854:	91 e0       	ldi	r25, 0x01	; 1
    3856:	0e 94 46 22 	call	0x448c	; 0x448c <_ZN7Serial_4readEv>
    385a:	80 93 06 01 	sts	0x0106, r24	; 0x800106 <incomingByte>
		  if((int8_t)incomingByte < 0){
    385e:	87 ff       	sbrs	r24, 7
    3860:	0f c0       	rjmp	.+30     	; 0x3880 <_Z21setMeasurementPatterni+0x60>
			  eitModule->meas_pattern[i] |= j<<4;
    3862:	e0 91 94 01 	lds	r30, 0x0194	; 0x800194 <__data_end>
    3866:	f0 91 95 01 	lds	r31, 0x0195	; 0x800195 <__data_end+0x1>
    386a:	ec 0f       	add	r30, r28
    386c:	fd 1f       	adc	r31, r29
    386e:	20 81       	ld	r18, Z
    3870:	c8 01       	movw	r24, r16
    3872:	34 e0       	ldi	r19, 0x04	; 4
    3874:	88 0f       	add	r24, r24
    3876:	99 1f       	adc	r25, r25
    3878:	3a 95       	dec	r19
    387a:	e1 f7       	brne	.-8      	; 0x3874 <_Z21setMeasurementPatterni+0x54>
    387c:	82 2b       	or	r24, r18
    387e:	0a c0       	rjmp	.+20     	; 0x3894 <_Z21setMeasurementPatterni+0x74>
		  }else if((int8_t)incomingByte > 0){
    3880:	88 23       	and	r24, r24
    3882:	49 f0       	breq	.+18     	; 0x3896 <_Z21setMeasurementPatterni+0x76>
			  eitModule->meas_pattern[i] |= j;
    3884:	e0 91 94 01 	lds	r30, 0x0194	; 0x800194 <__data_end>
    3888:	f0 91 95 01 	lds	r31, 0x0195	; 0x800195 <__data_end+0x1>
    388c:	ec 0f       	add	r30, r28
    388e:	fd 1f       	adc	r31, r29
    3890:	80 81       	ld	r24, Z
    3892:	80 2b       	or	r24, r16
    3894:	80 83       	st	Z, r24

// Receive Measurement Pattern (binary):
void setMeasurementPattern(int patternIdx){
  for (int i = 0; i<MEASURE_NUMBER_PER_STIMULATION; i++){
	  eitModule->meas_pattern[i] = 0;
	  for (int j = 0; j<ELECTRODE_NUMBER; j++){
    3896:	0f 5f       	subi	r16, 0xFF	; 255
    3898:	1f 4f       	sbci	r17, 0xFF	; 255
    389a:	00 31       	cpi	r16, 0x10	; 16
    389c:	11 05       	cpc	r17, r1
    389e:	91 f6       	brne	.-92     	; 0x3844 <_Z21setMeasurementPatterni+0x24>
	eitModule->compensation_Z_Im = (EEPROM.read(COMPENSATIONVALUESADDR+3*BYTESIZE_OF_COMPENSATIONVALUES  )<<8) +  EEPROM.read(COMPENSATIONVALUESADDR+3*BYTESIZE_OF_COMPENSATIONVALUES+1);
}

// Receive Measurement Pattern (binary):
void setMeasurementPattern(int patternIdx){
  for (int i = 0; i<MEASURE_NUMBER_PER_STIMULATION; i++){
    38a0:	21 96       	adiw	r28, 0x01	; 1
    38a2:	cd 30       	cpi	r28, 0x0D	; 13
    38a4:	d1 05       	cpc	r29, r1
    38a6:	29 f6       	brne	.-118    	; 0x3832 <_Z21setMeasurementPatterni+0x12>
			  eitModule->meas_pattern[i] |= j;
		  }
	  }
  }
  // Write to EEPROM:
  writeMeasPatternToEEPROM(patternIdx);
    38a8:	c7 01       	movw	r24, r14
  //printMeasPattern();  
}
    38aa:	df 91       	pop	r29
    38ac:	cf 91       	pop	r28
    38ae:	1f 91       	pop	r17
    38b0:	0f 91       	pop	r16
    38b2:	ff 90       	pop	r15
    38b4:	ef 90       	pop	r14
			  eitModule->meas_pattern[i] |= j;
		  }
	  }
  }
  // Write to EEPROM:
  writeMeasPatternToEEPROM(patternIdx);
    38b6:	0c 94 04 14 	jmp	0x2808	; 0x2808 <_Z24writeMeasPatternToEEPROMi>

000038ba <_Z21setStimulationPatterni>:
  //printMeasPattern();  
}

// Receive Stimulation Pattern (binary):
void setStimulationPattern(int patternIdx){
    38ba:	0f 93       	push	r16
    38bc:	1f 93       	push	r17
    38be:	cf 93       	push	r28
    38c0:	df 93       	push	r29
    38c2:	8c 01       	movw	r16, r24
	eitModule->stim_pattern = 0;
    38c4:	e0 91 94 01 	lds	r30, 0x0194	; 0x800194 <__data_end>
    38c8:	f0 91 95 01 	lds	r31, 0x0195	; 0x800195 <__data_end+0x1>
    38cc:	15 86       	std	Z+13, r1	; 0x0d
	for (int j = 0; j<ELECTRODE_NUMBER; j++){
    38ce:	c0 e0       	ldi	r28, 0x00	; 0
    38d0:	d0 e0       	ldi	r29, 0x00	; 0
		while (Serial.available() <= 0){}
    38d2:	87 e9       	ldi	r24, 0x97	; 151
    38d4:	91 e0       	ldi	r25, 0x01	; 1
    38d6:	0e 94 36 22 	call	0x446c	; 0x446c <_ZN7Serial_9availableEv>
    38da:	18 16       	cp	r1, r24
    38dc:	19 06       	cpc	r1, r25
    38de:	cc f7       	brge	.-14     	; 0x38d2 <_Z21setStimulationPatterni+0x18>
		incomingByte = (Serial.read());
    38e0:	87 e9       	ldi	r24, 0x97	; 151
    38e2:	91 e0       	ldi	r25, 0x01	; 1
    38e4:	0e 94 46 22 	call	0x448c	; 0x448c <_ZN7Serial_4readEv>
    38e8:	80 93 06 01 	sts	0x0106, r24	; 0x800106 <incomingByte>
		if((int8_t)incomingByte < 0){
    38ec:	87 ff       	sbrs	r24, 7
    38ee:	0e c0       	rjmp	.+28     	; 0x390c <_Z21setStimulationPatterni+0x52>
			eitModule->stim_pattern |= j<<4;
    38f0:	e0 91 94 01 	lds	r30, 0x0194	; 0x800194 <__data_end>
    38f4:	f0 91 95 01 	lds	r31, 0x0195	; 0x800195 <__data_end+0x1>
    38f8:	25 85       	ldd	r18, Z+13	; 0x0d
    38fa:	ce 01       	movw	r24, r28
    38fc:	34 e0       	ldi	r19, 0x04	; 4
    38fe:	88 0f       	add	r24, r24
    3900:	99 1f       	adc	r25, r25
    3902:	3a 95       	dec	r19
    3904:	e1 f7       	brne	.-8      	; 0x38fe <_Z21setStimulationPatterni+0x44>
    3906:	82 2b       	or	r24, r18
    3908:	85 87       	std	Z+13, r24	; 0x0d
    390a:	0a c0       	rjmp	.+20     	; 0x3920 <_Z21setStimulationPatterni+0x66>
		}else if((int8_t)incomingByte > 0){
    390c:	88 23       	and	r24, r24
    390e:	41 f0       	breq	.+16     	; 0x3920 <_Z21setStimulationPatterni+0x66>
			eitModule->stim_pattern |= j;
    3910:	e0 91 94 01 	lds	r30, 0x0194	; 0x800194 <__data_end>
    3914:	f0 91 95 01 	lds	r31, 0x0195	; 0x800195 <__data_end+0x1>
    3918:	95 85       	ldd	r25, Z+13	; 0x0d
    391a:	9c 2b       	or	r25, r28
    391c:	95 87       	std	Z+13, r25	; 0x0d
			eitModule->stim_current = incomingByte;
    391e:	86 87       	std	Z+14, r24	; 0x0e
}

// Receive Stimulation Pattern (binary):
void setStimulationPattern(int patternIdx){
	eitModule->stim_pattern = 0;
	for (int j = 0; j<ELECTRODE_NUMBER; j++){
    3920:	21 96       	adiw	r28, 0x01	; 1
    3922:	c0 31       	cpi	r28, 0x10	; 16
    3924:	d1 05       	cpc	r29, r1
    3926:	a9 f6       	brne	.-86     	; 0x38d2 <_Z21setStimulationPatterni+0x18>
			eitModule->stim_pattern |= j;
			eitModule->stim_current = incomingByte;
		}
	}
	// Write to EEPROM:
	writeStimPatternToEEPROM(patternIdx);
    3928:	c8 01       	movw	r24, r16
  //printStimPattern();
}
    392a:	df 91       	pop	r29
    392c:	cf 91       	pop	r28
    392e:	1f 91       	pop	r17
    3930:	0f 91       	pop	r16
			eitModule->stim_pattern |= j;
			eitModule->stim_current = incomingByte;
		}
	}
	// Write to EEPROM:
	writeStimPatternToEEPROM(patternIdx);
    3932:	0c 94 25 14 	jmp	0x284a	; 0x284a <_Z24writeStimPatternToEEPROMi>

00003936 <loop>:
	delay(100);
	// Inform about finished Initialization:
	Serial.println(F("READY"));
}

void loop() {
    3936:	8f 92       	push	r8
    3938:	9f 92       	push	r9
    393a:	af 92       	push	r10
    393c:	bf 92       	push	r11
    393e:	cf 92       	push	r12
    3940:	df 92       	push	r13
    3942:	ef 92       	push	r14
    3944:	ff 92       	push	r15
    3946:	0f 93       	push	r16
    3948:	cf 93       	push	r28
    394a:	df 93       	push	r29
	// Wait until character has reached:
	while (Serial.available() <= 0){}
    394c:	87 e9       	ldi	r24, 0x97	; 151
    394e:	91 e0       	ldi	r25, 0x01	; 1
    3950:	0e 94 36 22 	call	0x446c	; 0x446c <_ZN7Serial_9availableEv>
    3954:	18 16       	cp	r1, r24
    3956:	19 06       	cpc	r1, r25
    3958:	cc f7       	brge	.-14     	; 0x394c <loop+0x16>
	// Read incoming character:
	incomingByte = Serial.read();
    395a:	87 e9       	ldi	r24, 0x97	; 151
    395c:	91 e0       	ldi	r25, 0x01	; 1
    395e:	0e 94 46 22 	call	0x448c	; 0x448c <_ZN7Serial_4readEv>
    3962:	80 93 06 01 	sts	0x0106, r24	; 0x800106 <incomingByte>
	// Select case:
	if (incomingByte == 'S') {
    3966:	83 35       	cpi	r24, 0x53	; 83
    3968:	c1 f4       	brne	.+48     	; 0x399a <loop+0x64>
		// Read incoming character:
		while (Serial.available() <= 0){}
    396a:	87 e9       	ldi	r24, 0x97	; 151
    396c:	91 e0       	ldi	r25, 0x01	; 1
    396e:	0e 94 36 22 	call	0x446c	; 0x446c <_ZN7Serial_9availableEv>
    3972:	18 16       	cp	r1, r24
    3974:	19 06       	cpc	r1, r25
    3976:	cc f7       	brge	.-14     	; 0x396a <loop+0x34>
		int patternIdx = (int)Serial.read();
    3978:	87 e9       	ldi	r24, 0x97	; 151
    397a:	91 e0       	ldi	r25, 0x01	; 1
    397c:	0e 94 46 22 	call	0x448c	; 0x448c <_ZN7Serial_4readEv>
	}else if (incomingByte == 'X') {
	// End Measurement:
		eitModule->endMeasure();
		eitModule->setElectrodeInitCond();
	}
}
    3980:	df 91       	pop	r29
    3982:	cf 91       	pop	r28
    3984:	0f 91       	pop	r16
    3986:	ff 90       	pop	r15
    3988:	ef 90       	pop	r14
    398a:	df 90       	pop	r13
    398c:	cf 90       	pop	r12
    398e:	bf 90       	pop	r11
    3990:	af 90       	pop	r10
    3992:	9f 90       	pop	r9
    3994:	8f 90       	pop	r8
	if (incomingByte == 'S') {
		// Read incoming character:
		while (Serial.available() <= 0){}
		int patternIdx = (int)Serial.read();
		// Set Stimulation Pattern:
		setStimulationPattern(patternIdx);
    3996:	0c 94 5d 1c 	jmp	0x38ba	; 0x38ba <_Z21setStimulationPatterni>
	} else if (incomingByte == 'M') {
    399a:	8d 34       	cpi	r24, 0x4D	; 77
    399c:	c1 f4       	brne	.+48     	; 0x39ce <loop+0x98>
		// Read incoming character:
		while (Serial.available() <= 0){}
    399e:	87 e9       	ldi	r24, 0x97	; 151
    39a0:	91 e0       	ldi	r25, 0x01	; 1
    39a2:	0e 94 36 22 	call	0x446c	; 0x446c <_ZN7Serial_9availableEv>
    39a6:	18 16       	cp	r1, r24
    39a8:	19 06       	cpc	r1, r25
    39aa:	cc f7       	brge	.-14     	; 0x399e <loop+0x68>
		int patternIdx = (int)Serial.read();
    39ac:	87 e9       	ldi	r24, 0x97	; 151
    39ae:	91 e0       	ldi	r25, 0x01	; 1
    39b0:	0e 94 46 22 	call	0x448c	; 0x448c <_ZN7Serial_4readEv>
	}else if (incomingByte == 'X') {
	// End Measurement:
		eitModule->endMeasure();
		eitModule->setElectrodeInitCond();
	}
}
    39b4:	df 91       	pop	r29
    39b6:	cf 91       	pop	r28
    39b8:	0f 91       	pop	r16
    39ba:	ff 90       	pop	r15
    39bc:	ef 90       	pop	r14
    39be:	df 90       	pop	r13
    39c0:	cf 90       	pop	r12
    39c2:	bf 90       	pop	r11
    39c4:	af 90       	pop	r10
    39c6:	9f 90       	pop	r9
    39c8:	8f 90       	pop	r8
	} else if (incomingByte == 'M') {
		// Read incoming character:
		while (Serial.available() <= 0){}
		int patternIdx = (int)Serial.read();
		// Set Measurement Pattern:
		setMeasurementPattern(patternIdx);
    39ca:	0c 94 10 1c 	jmp	0x3820	; 0x3820 <_Z21setMeasurementPatterni>
	} else if (incomingByte == 'c') {
    39ce:	83 36       	cpi	r24, 0x63	; 99
    39d0:	19 f4       	brne	.+6      	; 0x39d8 <loop+0xa2>
		// Collect and transmit data (NO leakage correction):
		startCollectingData(false);
    39d2:	61 e0       	ldi	r22, 0x01	; 1
    39d4:	80 e0       	ldi	r24, 0x00	; 0
    39d6:	04 c0       	rjmp	.+8      	; 0x39e0 <loop+0xaa>
	}else if (incomingByte == 'C') {
    39d8:	83 34       	cpi	r24, 0x43	; 67
    39da:	79 f4       	brne	.+30     	; 0x39fa <loop+0xc4>
		// Collect and transmit data (including leakage correction):
		startCollectingData();
    39dc:	61 e0       	ldi	r22, 0x01	; 1
    39de:	81 e0       	ldi	r24, 0x01	; 1
	}else if (incomingByte == 'X') {
	// End Measurement:
		eitModule->endMeasure();
		eitModule->setElectrodeInitCond();
	}
}
    39e0:	df 91       	pop	r29
    39e2:	cf 91       	pop	r28
    39e4:	0f 91       	pop	r16
    39e6:	ff 90       	pop	r15
    39e8:	ef 90       	pop	r14
    39ea:	df 90       	pop	r13
    39ec:	cf 90       	pop	r12
    39ee:	bf 90       	pop	r11
    39f0:	af 90       	pop	r10
    39f2:	9f 90       	pop	r9
    39f4:	8f 90       	pop	r8
	} else if (incomingByte == 'c') {
		// Collect and transmit data (NO leakage correction):
		startCollectingData(false);
	}else if (incomingByte == 'C') {
		// Collect and transmit data (including leakage correction):
		startCollectingData();
    39f6:	0c 94 a7 18 	jmp	0x314e	; 0x314e <_Z19startCollectingDatabb>
	} else if (incomingByte == 'T') {
    39fa:	84 35       	cpi	r24, 0x54	; 84
    39fc:	69 f4       	brne	.+26     	; 0x3a18 <loop+0xe2>
	}else if (incomingByte == 'X') {
	// End Measurement:
		eitModule->endMeasure();
		eitModule->setElectrodeInitCond();
	}
}
    39fe:	df 91       	pop	r29
    3a00:	cf 91       	pop	r28
    3a02:	0f 91       	pop	r16
    3a04:	ff 90       	pop	r15
    3a06:	ef 90       	pop	r14
    3a08:	df 90       	pop	r13
    3a0a:	cf 90       	pop	r12
    3a0c:	bf 90       	pop	r11
    3a0e:	af 90       	pop	r10
    3a10:	9f 90       	pop	r9
    3a12:	8f 90       	pop	r8
	}else if (incomingByte == 'C') {
		// Collect and transmit data (including leakage correction):
		startCollectingData();
	} else if (incomingByte == 'T') {
		// Test Hardware:
		testFunction();
    3a14:	0c 94 33 1a 	jmp	0x3466	; 0x3466 <_Z12testFunctionv>
	} else if (incomingByte == '+') {
    3a18:	8b 32       	cpi	r24, 0x2B	; 43
    3a1a:	11 f4       	brne	.+4      	; 0x3a20 <loop+0xea>
		// Measure all Magnitude:
		startCollectingData2(false);
    3a1c:	80 e0       	ldi	r24, 0x00	; 0
    3a1e:	03 c0       	rjmp	.+6      	; 0x3a26 <loop+0xf0>
	}else if (incomingByte == '*') {
    3a20:	8a 32       	cpi	r24, 0x2A	; 42
    3a22:	71 f4       	brne	.+28     	; 0x3a40 <loop+0x10a>
		// Measure all Complex:
		startCollectingData2(true);
    3a24:	81 e0       	ldi	r24, 0x01	; 1
	}else if (incomingByte == 'X') {
	// End Measurement:
		eitModule->endMeasure();
		eitModule->setElectrodeInitCond();
	}
}
    3a26:	df 91       	pop	r29
    3a28:	cf 91       	pop	r28
    3a2a:	0f 91       	pop	r16
    3a2c:	ff 90       	pop	r15
    3a2e:	ef 90       	pop	r14
    3a30:	df 90       	pop	r13
    3a32:	cf 90       	pop	r12
    3a34:	bf 90       	pop	r11
    3a36:	af 90       	pop	r10
    3a38:	9f 90       	pop	r9
    3a3a:	8f 90       	pop	r8
	} else if (incomingByte == '+') {
		// Measure all Magnitude:
		startCollectingData2(false);
	}else if (incomingByte == '*') {
		// Measure all Complex:
		startCollectingData2(true);
    3a3c:	0c 94 f4 18 	jmp	0x31e8	; 0x31e8 <_Z20startCollectingData2b>
		readMeasPatternFromEEPROM(0);
		readStimPatternFromEEPROM(0);
		printMeasPattern();
		printStimPattern();
	} */
	else if (incomingByte == 'r') {
    3a40:	82 37       	cpi	r24, 0x72	; 114
    3a42:	39 f5       	brne	.+78     	; 0x3a92 <loop+0x15c>
    3a44:	e1 2c       	mov	r14, r1
    3a46:	f1 2c       	mov	r15, r1
		// Read PAtterns:
		for(int i = 0; i < ELECTRODE_NUMBER; i++){
			Serial.print(F("Pattern Data ["));Serial.print(i);Serial.println(F("]:"));
    3a48:	6d ec       	ldi	r22, 0xCD	; 205
    3a4a:	70 e0       	ldi	r23, 0x00	; 0
    3a4c:	87 e9       	ldi	r24, 0x97	; 151
    3a4e:	91 e0       	ldi	r25, 0x01	; 1
    3a50:	0e 94 52 23 	call	0x46a4	; 0x46a4 <_ZN5Print5printEPK19__FlashStringHelper>
    3a54:	4a e0       	ldi	r20, 0x0A	; 10
    3a56:	50 e0       	ldi	r21, 0x00	; 0
    3a58:	b7 01       	movw	r22, r14
    3a5a:	87 e9       	ldi	r24, 0x97	; 151
    3a5c:	91 e0       	ldi	r25, 0x01	; 1
    3a5e:	0e 94 52 24 	call	0x48a4	; 0x48a4 <_ZN5Print5printEii>
    3a62:	6a ec       	ldi	r22, 0xCA	; 202
    3a64:	70 e0       	ldi	r23, 0x00	; 0
    3a66:	87 e9       	ldi	r24, 0x97	; 151
    3a68:	91 e0       	ldi	r25, 0x01	; 1
    3a6a:	0e 94 83 23 	call	0x4706	; 0x4706 <_ZN5Print7printlnEPK19__FlashStringHelper>
			readMeasPatternFromEEPROM(i);
    3a6e:	c7 01       	movw	r24, r14
    3a70:	0e 94 8f 14 	call	0x291e	; 0x291e <_Z25readMeasPatternFromEEPROMi>
			readStimPatternFromEEPROM(i);
    3a74:	c7 01       	movw	r24, r14
    3a76:	0e 94 b7 14 	call	0x296e	; 0x296e <_Z25readStimPatternFromEEPROMi>
			printMeasPattern();
    3a7a:	0e 94 25 15 	call	0x2a4a	; 0x2a4a <_Z16printMeasPatternv>
			printStimPattern();
    3a7e:	0e 94 88 15 	call	0x2b10	; 0x2b10 <_Z16printStimPatternv>
		printMeasPattern();
		printStimPattern();
	} */
	else if (incomingByte == 'r') {
		// Read PAtterns:
		for(int i = 0; i < ELECTRODE_NUMBER; i++){
    3a82:	8f ef       	ldi	r24, 0xFF	; 255
    3a84:	e8 1a       	sub	r14, r24
    3a86:	f8 0a       	sbc	r15, r24
    3a88:	80 e1       	ldi	r24, 0x10	; 16
    3a8a:	e8 16       	cp	r14, r24
    3a8c:	f1 04       	cpc	r15, r1
    3a8e:	e1 f6       	brne	.-72     	; 0x3a48 <loop+0x112>
    3a90:	1b c2       	rjmp	.+1078   	; 0x3ec8 <loop+0x592>
			readMeasPatternFromEEPROM(i);
			readStimPatternFromEEPROM(i);
			printMeasPattern();
			printStimPattern();
		}
	} else if (incomingByte == 'K') {
    3a92:	8b 34       	cpi	r24, 0x4B	; 75
    3a94:	69 f4       	brne	.+26     	; 0x3ab0 <loop+0x17a>
	}else if (incomingByte == 'X') {
	// End Measurement:
		eitModule->endMeasure();
		eitModule->setElectrodeInitCond();
	}
}
    3a96:	df 91       	pop	r29
    3a98:	cf 91       	pop	r28
    3a9a:	0f 91       	pop	r16
    3a9c:	ff 90       	pop	r15
    3a9e:	ef 90       	pop	r14
    3aa0:	df 90       	pop	r13
    3aa2:	cf 90       	pop	r12
    3aa4:	bf 90       	pop	r11
    3aa6:	af 90       	pop	r10
    3aa8:	9f 90       	pop	r9
    3aaa:	8f 90       	pop	r8
			printMeasPattern();
			printStimPattern();
		}
	} else if (incomingByte == 'K') {
	// Send Calibration Data:
		sendCalibData();
    3aac:	0c 94 f0 16 	jmp	0x2de0	; 0x2de0 <_Z13sendCalibDatav>
	}else if (incomingByte == 'B') {
    3ab0:	82 34       	cpi	r24, 0x42	; 66
    3ab2:	89 f4       	brne	.+34     	; 0x3ad6 <loop+0x1a0>
	// Begin Measurement:
	eitModule->beginMeasure();
    3ab4:	80 91 94 01 	lds	r24, 0x0194	; 0x800194 <__data_end>
    3ab8:	90 91 95 01 	lds	r25, 0x0195	; 0x800195 <__data_end+0x1>
	}else if (incomingByte == 'X') {
	// End Measurement:
		eitModule->endMeasure();
		eitModule->setElectrodeInitCond();
	}
}
    3abc:	df 91       	pop	r29
    3abe:	cf 91       	pop	r28
    3ac0:	0f 91       	pop	r16
    3ac2:	ff 90       	pop	r15
    3ac4:	ef 90       	pop	r14
    3ac6:	df 90       	pop	r13
    3ac8:	cf 90       	pop	r12
    3aca:	bf 90       	pop	r11
    3acc:	af 90       	pop	r10
    3ace:	9f 90       	pop	r9
    3ad0:	8f 90       	pop	r8
	} else if (incomingByte == 'K') {
	// Send Calibration Data:
		sendCalibData();
	}else if (incomingByte == 'B') {
	// Begin Measurement:
	eitModule->beginMeasure();
    3ad2:	0c 94 49 06 	jmp	0xc92	; 0xc92 <_ZN28ImpedanceMultiSensingCircuit12beginMeasureEv>
	} else if (incomingByte == 'Z') { // Removeable?
    3ad6:	8a 35       	cpi	r24, 0x5A	; 90
    3ad8:	09 f0       	breq	.+2      	; 0x3adc <loop+0x1a6>
    3ada:	b1 c0       	rjmp	.+354    	; 0x3c3e <loop+0x308>
	// MEasure Impedance:
		while (Serial.available() <= 0){}
    3adc:	87 e9       	ldi	r24, 0x97	; 151
    3ade:	91 e0       	ldi	r25, 0x01	; 1
    3ae0:	0e 94 36 22 	call	0x446c	; 0x446c <_ZN7Serial_9availableEv>
    3ae4:	18 16       	cp	r1, r24
    3ae6:	19 06       	cpc	r1, r25
    3ae8:	cc f7       	brge	.-14     	; 0x3adc <loop+0x1a6>
		uint8_t from = (uint8_t)Serial.read();
    3aea:	87 e9       	ldi	r24, 0x97	; 151
    3aec:	91 e0       	ldi	r25, 0x01	; 1
    3aee:	0e 94 46 22 	call	0x448c	; 0x448c <_ZN7Serial_4readEv>
    3af2:	c8 2f       	mov	r28, r24
		while (Serial.available() <= 0){}
    3af4:	87 e9       	ldi	r24, 0x97	; 151
    3af6:	91 e0       	ldi	r25, 0x01	; 1
    3af8:	0e 94 36 22 	call	0x446c	; 0x446c <_ZN7Serial_9availableEv>
    3afc:	18 16       	cp	r1, r24
    3afe:	19 06       	cpc	r1, r25
    3b00:	cc f7       	brge	.-14     	; 0x3af4 <loop+0x1be>
		uint8_t to = (uint8_t)Serial.read();
    3b02:	87 e9       	ldi	r24, 0x97	; 151
    3b04:	91 e0       	ldi	r25, 0x01	; 1
    3b06:	0e 94 46 22 	call	0x448c	; 0x448c <_ZN7Serial_4readEv>
		long impedance = (long)eitModule->measureImpedance(from, to);
    3b0a:	20 e0       	ldi	r18, 0x00	; 0
    3b0c:	48 2f       	mov	r20, r24
    3b0e:	6c 2f       	mov	r22, r28
    3b10:	80 91 94 01 	lds	r24, 0x0194	; 0x800194 <__data_end>
    3b14:	90 91 95 01 	lds	r25, 0x0195	; 0x800195 <__data_end+0x1>
    3b18:	0e 94 ba 07 	call	0xf74	; 0xf74 <_ZN28ImpedanceMultiSensingCircuit16measureImpedanceEaa15directPrintMode>
    3b1c:	0e 94 54 20 	call	0x40a8	; 0x40a8 <__fixsfsi>
    3b20:	4b 01       	movw	r8, r22
    3b22:	5c 01       	movw	r10, r24
		if (impedance<1e8) Serial.print('0');
    3b24:	0e 94 8c 20 	call	0x4118	; 0x4118 <__floatsisf>
    3b28:	6b 01       	movw	r12, r22
    3b2a:	7c 01       	movw	r14, r24
    3b2c:	20 e2       	ldi	r18, 0x20	; 32
    3b2e:	3c eb       	ldi	r19, 0xBC	; 188
    3b30:	4e eb       	ldi	r20, 0xBE	; 190
    3b32:	5c e4       	ldi	r21, 0x4C	; 76
    3b34:	0e 94 dd 1f 	call	0x3fba	; 0x3fba <__cmpsf2>
    3b38:	87 ff       	sbrs	r24, 7
    3b3a:	05 c0       	rjmp	.+10     	; 0x3b46 <loop+0x210>
    3b3c:	60 e3       	ldi	r22, 0x30	; 48
    3b3e:	87 e9       	ldi	r24, 0x97	; 151
    3b40:	91 e0       	ldi	r25, 0x01	; 1
    3b42:	0e 94 78 23 	call	0x46f0	; 0x46f0 <_ZN5Print5printEc>
		if (impedance<1e7) Serial.print('0');
    3b46:	20 e8       	ldi	r18, 0x80	; 128
    3b48:	36 e9       	ldi	r19, 0x96	; 150
    3b4a:	48 e1       	ldi	r20, 0x18	; 24
    3b4c:	5b e4       	ldi	r21, 0x4B	; 75
    3b4e:	c7 01       	movw	r24, r14
    3b50:	b6 01       	movw	r22, r12
    3b52:	0e 94 dd 1f 	call	0x3fba	; 0x3fba <__cmpsf2>
    3b56:	87 ff       	sbrs	r24, 7
    3b58:	05 c0       	rjmp	.+10     	; 0x3b64 <loop+0x22e>
    3b5a:	60 e3       	ldi	r22, 0x30	; 48
    3b5c:	87 e9       	ldi	r24, 0x97	; 151
    3b5e:	91 e0       	ldi	r25, 0x01	; 1
    3b60:	0e 94 78 23 	call	0x46f0	; 0x46f0 <_ZN5Print5printEc>
		if (impedance<1e6) Serial.print('0');
    3b64:	20 e0       	ldi	r18, 0x00	; 0
    3b66:	34 e2       	ldi	r19, 0x24	; 36
    3b68:	44 e7       	ldi	r20, 0x74	; 116
    3b6a:	59 e4       	ldi	r21, 0x49	; 73
    3b6c:	c7 01       	movw	r24, r14
    3b6e:	b6 01       	movw	r22, r12
    3b70:	0e 94 dd 1f 	call	0x3fba	; 0x3fba <__cmpsf2>
    3b74:	87 ff       	sbrs	r24, 7
    3b76:	05 c0       	rjmp	.+10     	; 0x3b82 <loop+0x24c>
    3b78:	60 e3       	ldi	r22, 0x30	; 48
    3b7a:	87 e9       	ldi	r24, 0x97	; 151
    3b7c:	91 e0       	ldi	r25, 0x01	; 1
    3b7e:	0e 94 78 23 	call	0x46f0	; 0x46f0 <_ZN5Print5printEc>
		if (impedance<1e5) Serial.print('0');
    3b82:	20 e0       	ldi	r18, 0x00	; 0
    3b84:	30 e5       	ldi	r19, 0x50	; 80
    3b86:	43 ec       	ldi	r20, 0xC3	; 195
    3b88:	57 e4       	ldi	r21, 0x47	; 71
    3b8a:	c7 01       	movw	r24, r14
    3b8c:	b6 01       	movw	r22, r12
    3b8e:	0e 94 dd 1f 	call	0x3fba	; 0x3fba <__cmpsf2>
    3b92:	87 ff       	sbrs	r24, 7
    3b94:	05 c0       	rjmp	.+10     	; 0x3ba0 <loop+0x26a>
    3b96:	60 e3       	ldi	r22, 0x30	; 48
    3b98:	87 e9       	ldi	r24, 0x97	; 151
    3b9a:	91 e0       	ldi	r25, 0x01	; 1
    3b9c:	0e 94 78 23 	call	0x46f0	; 0x46f0 <_ZN5Print5printEc>
		if (impedance<1e4) Serial.print('0');
    3ba0:	20 e0       	ldi	r18, 0x00	; 0
    3ba2:	30 e4       	ldi	r19, 0x40	; 64
    3ba4:	4c e1       	ldi	r20, 0x1C	; 28
    3ba6:	56 e4       	ldi	r21, 0x46	; 70
    3ba8:	c7 01       	movw	r24, r14
    3baa:	b6 01       	movw	r22, r12
    3bac:	0e 94 dd 1f 	call	0x3fba	; 0x3fba <__cmpsf2>
    3bb0:	87 ff       	sbrs	r24, 7
    3bb2:	05 c0       	rjmp	.+10     	; 0x3bbe <loop+0x288>
    3bb4:	60 e3       	ldi	r22, 0x30	; 48
    3bb6:	87 e9       	ldi	r24, 0x97	; 151
    3bb8:	91 e0       	ldi	r25, 0x01	; 1
    3bba:	0e 94 78 23 	call	0x46f0	; 0x46f0 <_ZN5Print5printEc>
		if (impedance<1e3) Serial.print('0');
    3bbe:	20 e0       	ldi	r18, 0x00	; 0
    3bc0:	30 e0       	ldi	r19, 0x00	; 0
    3bc2:	4a e7       	ldi	r20, 0x7A	; 122
    3bc4:	54 e4       	ldi	r21, 0x44	; 68
    3bc6:	c7 01       	movw	r24, r14
    3bc8:	b6 01       	movw	r22, r12
    3bca:	0e 94 dd 1f 	call	0x3fba	; 0x3fba <__cmpsf2>
    3bce:	87 ff       	sbrs	r24, 7
    3bd0:	05 c0       	rjmp	.+10     	; 0x3bdc <loop+0x2a6>
    3bd2:	60 e3       	ldi	r22, 0x30	; 48
    3bd4:	87 e9       	ldi	r24, 0x97	; 151
    3bd6:	91 e0       	ldi	r25, 0x01	; 1
    3bd8:	0e 94 78 23 	call	0x46f0	; 0x46f0 <_ZN5Print5printEc>
		if (impedance<1e2) Serial.print('0');
    3bdc:	20 e0       	ldi	r18, 0x00	; 0
    3bde:	30 e0       	ldi	r19, 0x00	; 0
    3be0:	48 ec       	ldi	r20, 0xC8	; 200
    3be2:	52 e4       	ldi	r21, 0x42	; 66
    3be4:	c7 01       	movw	r24, r14
    3be6:	b6 01       	movw	r22, r12
    3be8:	0e 94 dd 1f 	call	0x3fba	; 0x3fba <__cmpsf2>
    3bec:	87 ff       	sbrs	r24, 7
    3bee:	05 c0       	rjmp	.+10     	; 0x3bfa <loop+0x2c4>
    3bf0:	60 e3       	ldi	r22, 0x30	; 48
    3bf2:	87 e9       	ldi	r24, 0x97	; 151
    3bf4:	91 e0       	ldi	r25, 0x01	; 1
    3bf6:	0e 94 78 23 	call	0x46f0	; 0x46f0 <_ZN5Print5printEc>
		if (impedance<1e1) Serial.print('0');
    3bfa:	20 e0       	ldi	r18, 0x00	; 0
    3bfc:	30 e0       	ldi	r19, 0x00	; 0
    3bfe:	40 e2       	ldi	r20, 0x20	; 32
    3c00:	51 e4       	ldi	r21, 0x41	; 65
    3c02:	c7 01       	movw	r24, r14
    3c04:	b6 01       	movw	r22, r12
    3c06:	0e 94 dd 1f 	call	0x3fba	; 0x3fba <__cmpsf2>
    3c0a:	87 ff       	sbrs	r24, 7
    3c0c:	05 c0       	rjmp	.+10     	; 0x3c18 <loop+0x2e2>
    3c0e:	60 e3       	ldi	r22, 0x30	; 48
    3c10:	87 e9       	ldi	r24, 0x97	; 151
    3c12:	91 e0       	ldi	r25, 0x01	; 1
    3c14:	0e 94 78 23 	call	0x46f0	; 0x46f0 <_ZN5Print5printEc>
		Serial.print(impedance);
    3c18:	2a e0       	ldi	r18, 0x0A	; 10
    3c1a:	30 e0       	ldi	r19, 0x00	; 0
    3c1c:	b5 01       	movw	r22, r10
    3c1e:	a4 01       	movw	r20, r8
    3c20:	87 e9       	ldi	r24, 0x97	; 151
    3c22:	91 e0       	ldi	r25, 0x01	; 1
	}else if (incomingByte == 'X') {
	// End Measurement:
		eitModule->endMeasure();
		eitModule->setElectrodeInitCond();
	}
}
    3c24:	df 91       	pop	r29
    3c26:	cf 91       	pop	r28
    3c28:	0f 91       	pop	r16
    3c2a:	ff 90       	pop	r15
    3c2c:	ef 90       	pop	r14
    3c2e:	df 90       	pop	r13
    3c30:	cf 90       	pop	r12
    3c32:	bf 90       	pop	r11
    3c34:	af 90       	pop	r10
    3c36:	9f 90       	pop	r9
    3c38:	8f 90       	pop	r8
		if (impedance<1e5) Serial.print('0');
		if (impedance<1e4) Serial.print('0');
		if (impedance<1e3) Serial.print('0');
		if (impedance<1e2) Serial.print('0');
		if (impedance<1e1) Serial.print('0');
		Serial.print(impedance);
    3c3a:	0c 94 0a 24 	jmp	0x4814	; 0x4814 <_ZN5Print5printEli>
	}else if (incomingByte == 'L') {
    3c3e:	8c 34       	cpi	r24, 0x4C	; 76
    3c40:	21 f4       	brne	.+8      	; 0x3c4a <loop+0x314>
		// Set flag for voltage Leakage Correction:
		voltageMeasureLeakageCorrection = true;
    3c42:	81 e0       	ldi	r24, 0x01	; 1
    3c44:	80 93 96 01 	sts	0x0196, r24	; 0x800196 <voltageMeasureLeakageCorrection>
    3c48:	3f c1       	rjmp	.+638    	; 0x3ec8 <loop+0x592>
	}else if (incomingByte == 'l') {
    3c4a:	8c 36       	cpi	r24, 0x6C	; 108
    3c4c:	19 f4       	brne	.+6      	; 0x3c54 <loop+0x31e>
		// Reset flag for voltage Leakage Correction:
		voltageMeasureLeakageCorrection = false;
    3c4e:	10 92 96 01 	sts	0x0196, r1	; 0x800196 <voltageMeasureLeakageCorrection>
    3c52:	3a c1       	rjmp	.+628    	; 0x3ec8 <loop+0x592>
	}
	else if(incomingByte == '@'){
    3c54:	80 34       	cpi	r24, 0x40	; 64
    3c56:	09 f0       	breq	.+2      	; 0x3c5a <loop+0x324>
    3c58:	61 c0       	rjmp	.+194    	; 0x3d1c <loop+0x3e6>
		while (Serial.available() <= 0){}
    3c5a:	87 e9       	ldi	r24, 0x97	; 151
    3c5c:	91 e0       	ldi	r25, 0x01	; 1
    3c5e:	0e 94 36 22 	call	0x446c	; 0x446c <_ZN7Serial_9availableEv>
    3c62:	18 16       	cp	r1, r24
    3c64:	19 06       	cpc	r1, r25
    3c66:	cc f7       	brge	.-14     	; 0x3c5a <loop+0x324>
		int8_t mode = (int8_t)Serial.read();
    3c68:	87 e9       	ldi	r24, 0x97	; 151
    3c6a:	91 e0       	ldi	r25, 0x01	; 1
    3c6c:	0e 94 46 22 	call	0x448c	; 0x448c <_ZN7Serial_4readEv>
    3c70:	c8 2f       	mov	r28, r24
		while (Serial.available() <= 0){}
    3c72:	87 e9       	ldi	r24, 0x97	; 151
    3c74:	91 e0       	ldi	r25, 0x01	; 1
    3c76:	0e 94 36 22 	call	0x446c	; 0x446c <_ZN7Serial_9availableEv>
    3c7a:	18 16       	cp	r1, r24
    3c7c:	19 06       	cpc	r1, r25
    3c7e:	cc f7       	brge	.-14     	; 0x3c72 <loop+0x33c>
		int8_t from = (int8_t)Serial.read();
    3c80:	87 e9       	ldi	r24, 0x97	; 151
    3c82:	91 e0       	ldi	r25, 0x01	; 1
    3c84:	0e 94 46 22 	call	0x448c	; 0x448c <_ZN7Serial_4readEv>
    3c88:	f8 2e       	mov	r15, r24
		while (Serial.available() <= 0){}
    3c8a:	87 e9       	ldi	r24, 0x97	; 151
    3c8c:	91 e0       	ldi	r25, 0x01	; 1
    3c8e:	0e 94 36 22 	call	0x446c	; 0x446c <_ZN7Serial_9availableEv>
    3c92:	18 16       	cp	r1, r24
    3c94:	19 06       	cpc	r1, r25
    3c96:	cc f7       	brge	.-14     	; 0x3c8a <loop+0x354>
		int8_t to = (int8_t)Serial.read();
    3c98:	87 e9       	ldi	r24, 0x97	; 151
    3c9a:	91 e0       	ldi	r25, 0x01	; 1
    3c9c:	0e 94 46 22 	call	0x448c	; 0x448c <_ZN7Serial_4readEv>
    3ca0:	d8 2e       	mov	r13, r24
		while (Serial.available() <= 0){}
    3ca2:	87 e9       	ldi	r24, 0x97	; 151
    3ca4:	91 e0       	ldi	r25, 0x01	; 1
    3ca6:	0e 94 36 22 	call	0x446c	; 0x446c <_ZN7Serial_9availableEv>
    3caa:	18 16       	cp	r1, r24
    3cac:	19 06       	cpc	r1, r25
    3cae:	cc f7       	brge	.-14     	; 0x3ca2 <loop+0x36c>
		int8_t meas = (int8_t)Serial.read();
    3cb0:	87 e9       	ldi	r24, 0x97	; 151
    3cb2:	91 e0       	ldi	r25, 0x01	; 1
    3cb4:	0e 94 46 22 	call	0x448c	; 0x448c <_ZN7Serial_4readEv>
    3cb8:	68 2f       	mov	r22, r24
		switch(mode){
    3cba:	c2 30       	cpi	r28, 0x02	; 2
    3cbc:	79 f0       	breq	.+30     	; 0x3cdc <loop+0x3a6>
    3cbe:	3c f4       	brge	.+14     	; 0x3cce <loop+0x398>
    3cc0:	c1 30       	cpi	r28, 0x01	; 1
    3cc2:	09 f0       	breq	.+2      	; 0x3cc6 <loop+0x390>
    3cc4:	01 c1       	rjmp	.+514    	; 0x3ec8 <loop+0x592>
			case 1:		// Mode1-->Magnitude of Voltage
				eitModule->measureVoltage(meas, from, to, DirectPRINT_MAGNITUDE, voltageMeasureLeakageCorrection); // Leakage-correction ON/OFF
    3cc6:	e0 90 96 01 	lds	r14, 0x0196	; 0x800196 <voltageMeasureLeakageCorrection>
    3cca:	01 e0       	ldi	r16, 0x01	; 1
    3ccc:	0a c0       	rjmp	.+20     	; 0x3ce2 <loop+0x3ac>
		int8_t from = (int8_t)Serial.read();
		while (Serial.available() <= 0){}
		int8_t to = (int8_t)Serial.read();
		while (Serial.available() <= 0){}
		int8_t meas = (int8_t)Serial.read();
		switch(mode){
    3cce:	c3 30       	cpi	r28, 0x03	; 3
    3cd0:	89 f0       	breq	.+34     	; 0x3cf4 <loop+0x3be>
    3cd2:	c4 30       	cpi	r28, 0x04	; 4
    3cd4:	09 f0       	breq	.+2      	; 0x3cd8 <loop+0x3a2>
    3cd6:	f8 c0       	rjmp	.+496    	; 0x3ec8 <loop+0x592>
				break;
			case 3:		// Mode3-->Magnitude of Impedance
				eitModule->measureImpedance(from, to, DirectPRINT_MAGNITUDE);
				break;
			case 4:		// Mode4-->Complex Impedance
				eitModule->measureImpedance(from, to, DirectPRINT_COMPLEX);
    3cd8:	22 e0       	ldi	r18, 0x02	; 2
    3cda:	0d c0       	rjmp	.+26     	; 0x3cf6 <loop+0x3c0>
		switch(mode){
			case 1:		// Mode1-->Magnitude of Voltage
				eitModule->measureVoltage(meas, from, to, DirectPRINT_MAGNITUDE, voltageMeasureLeakageCorrection); // Leakage-correction ON/OFF
				break;
			case 2:		// Mode2-->Complex Voltage
				eitModule->measureVoltage(meas, from, to, DirectPRINT_COMPLEX, voltageMeasureLeakageCorrection); // Leakage-correction ON/OFF
    3cdc:	e0 90 96 01 	lds	r14, 0x0196	; 0x800196 <voltageMeasureLeakageCorrection>
    3ce0:	02 e0       	ldi	r16, 0x02	; 2
    3ce2:	2d 2d       	mov	r18, r13
    3ce4:	4f 2d       	mov	r20, r15
    3ce6:	80 91 94 01 	lds	r24, 0x0194	; 0x800194 <__data_end>
    3cea:	90 91 95 01 	lds	r25, 0x0195	; 0x800195 <__data_end+0x1>
    3cee:	0e 94 6e 09 	call	0x12dc	; 0x12dc <_ZN28ImpedanceMultiSensingCircuit14measureVoltageEaaa15directPrintModeb>
				break;
    3cf2:	ea c0       	rjmp	.+468    	; 0x3ec8 <loop+0x592>
			case 3:		// Mode3-->Magnitude of Impedance
				eitModule->measureImpedance(from, to, DirectPRINT_MAGNITUDE);
    3cf4:	21 e0       	ldi	r18, 0x01	; 1
				break;
			case 4:		// Mode4-->Complex Impedance
				eitModule->measureImpedance(from, to, DirectPRINT_COMPLEX);
    3cf6:	4d 2d       	mov	r20, r13
    3cf8:	6f 2d       	mov	r22, r15
    3cfa:	80 91 94 01 	lds	r24, 0x0194	; 0x800194 <__data_end>
    3cfe:	90 91 95 01 	lds	r25, 0x0195	; 0x800195 <__data_end+0x1>
	}else if (incomingByte == 'X') {
	// End Measurement:
		eitModule->endMeasure();
		eitModule->setElectrodeInitCond();
	}
}
    3d02:	df 91       	pop	r29
    3d04:	cf 91       	pop	r28
    3d06:	0f 91       	pop	r16
    3d08:	ff 90       	pop	r15
    3d0a:	ef 90       	pop	r14
    3d0c:	df 90       	pop	r13
    3d0e:	cf 90       	pop	r12
    3d10:	bf 90       	pop	r11
    3d12:	af 90       	pop	r10
    3d14:	9f 90       	pop	r9
    3d16:	8f 90       	pop	r8
				break;
			case 3:		// Mode3-->Magnitude of Impedance
				eitModule->measureImpedance(from, to, DirectPRINT_MAGNITUDE);
				break;
			case 4:		// Mode4-->Complex Impedance
				eitModule->measureImpedance(from, to, DirectPRINT_COMPLEX);
    3d18:	0c 94 ba 07 	jmp	0xf74	; 0xf74 <_ZN28ImpedanceMultiSensingCircuit16measureImpedanceEaa15directPrintMode>
				break;
			default: 
				break;
		}
	}else if(incomingByte == '%'){
    3d1c:	85 32       	cpi	r24, 0x25	; 37
    3d1e:	09 f0       	breq	.+2      	; 0x3d22 <loop+0x3ec>
    3d20:	65 c0       	rjmp	.+202    	; 0x3dec <loop+0x4b6>
		// GPIO:
		while (Serial.available() <= 0){}
    3d22:	87 e9       	ldi	r24, 0x97	; 151
    3d24:	91 e0       	ldi	r25, 0x01	; 1
    3d26:	0e 94 36 22 	call	0x446c	; 0x446c <_ZN7Serial_9availableEv>
    3d2a:	18 16       	cp	r1, r24
    3d2c:	19 06       	cpc	r1, r25
    3d2e:	cc f7       	brge	.-14     	; 0x3d22 <loop+0x3ec>
		char mode = (uint8_t)Serial.read();
    3d30:	87 e9       	ldi	r24, 0x97	; 151
    3d32:	91 e0       	ldi	r25, 0x01	; 1
    3d34:	0e 94 46 22 	call	0x448c	; 0x448c <_ZN7Serial_4readEv>
    3d38:	d8 2f       	mov	r29, r24
		while (Serial.available() <= 0){}
    3d3a:	87 e9       	ldi	r24, 0x97	; 151
    3d3c:	91 e0       	ldi	r25, 0x01	; 1
    3d3e:	0e 94 36 22 	call	0x446c	; 0x446c <_ZN7Serial_9availableEv>
    3d42:	18 16       	cp	r1, r24
    3d44:	19 06       	cpc	r1, r25
    3d46:	cc f7       	brge	.-14     	; 0x3d3a <loop+0x404>
		uint8_t port = (uint8_t)Serial.read();
    3d48:	87 e9       	ldi	r24, 0x97	; 151
    3d4a:	91 e0       	ldi	r25, 0x01	; 1
    3d4c:	0e 94 46 22 	call	0x448c	; 0x448c <_ZN7Serial_4readEv>
    3d50:	c8 2f       	mov	r28, r24
		if (mode == GPIO_READ_MODE){ // Read
    3d52:	d2 37       	cpi	r29, 0x72	; 114
    3d54:	91 f4       	brne	.+36     	; 0x3d7a <loop+0x444>
			Serial.write((byte)gpioRead(port));
    3d56:	0e 94 de 15 	call	0x2bbc	; 0x2bbc <_Z8gpioReadh>
    3d5a:	68 2f       	mov	r22, r24
    3d5c:	87 e9       	ldi	r24, 0x97	; 151
    3d5e:	91 e0       	ldi	r25, 0x01	; 1
	}else if (incomingByte == 'X') {
	// End Measurement:
		eitModule->endMeasure();
		eitModule->setElectrodeInitCond();
	}
}
    3d60:	df 91       	pop	r29
    3d62:	cf 91       	pop	r28
    3d64:	0f 91       	pop	r16
    3d66:	ff 90       	pop	r15
    3d68:	ef 90       	pop	r14
    3d6a:	df 90       	pop	r13
    3d6c:	cf 90       	pop	r12
    3d6e:	bf 90       	pop	r11
    3d70:	af 90       	pop	r10
    3d72:	9f 90       	pop	r9
    3d74:	8f 90       	pop	r8
		while (Serial.available() <= 0){}
		char mode = (uint8_t)Serial.read();
		while (Serial.available() <= 0){}
		uint8_t port = (uint8_t)Serial.read();
		if (mode == GPIO_READ_MODE){ // Read
			Serial.write((byte)gpioRead(port));
    3d76:	0c 94 07 22 	jmp	0x440e	; 0x440e <_ZN7Serial_5writeEh>
		}
		else if (mode == GPIO_WRITE_MODE){// Write
    3d7a:	d7 37       	cpi	r29, 0x77	; 119
    3d7c:	d1 f4       	brne	.+52     	; 0x3db2 <loop+0x47c>
			while (Serial.available() <= 0){}
    3d7e:	87 e9       	ldi	r24, 0x97	; 151
    3d80:	91 e0       	ldi	r25, 0x01	; 1
    3d82:	0e 94 36 22 	call	0x446c	; 0x446c <_ZN7Serial_9availableEv>
    3d86:	18 16       	cp	r1, r24
    3d88:	19 06       	cpc	r1, r25
    3d8a:	cc f7       	brge	.-14     	; 0x3d7e <loop+0x448>
			uint8_t gpioValue = (uint8_t)Serial.read();
    3d8c:	87 e9       	ldi	r24, 0x97	; 151
    3d8e:	91 e0       	ldi	r25, 0x01	; 1
    3d90:	0e 94 46 22 	call	0x448c	; 0x448c <_ZN7Serial_4readEv>
			gpioWrite(port, gpioValue);
    3d94:	68 2f       	mov	r22, r24
    3d96:	8c 2f       	mov	r24, r28
	}else if (incomingByte == 'X') {
	// End Measurement:
		eitModule->endMeasure();
		eitModule->setElectrodeInitCond();
	}
}
    3d98:	df 91       	pop	r29
    3d9a:	cf 91       	pop	r28
    3d9c:	0f 91       	pop	r16
    3d9e:	ff 90       	pop	r15
    3da0:	ef 90       	pop	r14
    3da2:	df 90       	pop	r13
    3da4:	cf 90       	pop	r12
    3da6:	bf 90       	pop	r11
    3da8:	af 90       	pop	r10
    3daa:	9f 90       	pop	r9
    3dac:	8f 90       	pop	r8
			Serial.write((byte)gpioRead(port));
		}
		else if (mode == GPIO_WRITE_MODE){// Write
			while (Serial.available() <= 0){}
			uint8_t gpioValue = (uint8_t)Serial.read();
			gpioWrite(port, gpioValue);
    3dae:	0c 94 45 16 	jmp	0x2c8a	; 0x2c8a <_Z9gpioWritehh>
		}
		else if (mode == GPIO_SET_DIR){// Write
    3db2:	d4 36       	cpi	r29, 0x64	; 100
    3db4:	09 f0       	breq	.+2      	; 0x3db8 <loop+0x482>
    3db6:	88 c0       	rjmp	.+272    	; 0x3ec8 <loop+0x592>
			while (Serial.available() <= 0){}
    3db8:	87 e9       	ldi	r24, 0x97	; 151
    3dba:	91 e0       	ldi	r25, 0x01	; 1
    3dbc:	0e 94 36 22 	call	0x446c	; 0x446c <_ZN7Serial_9availableEv>
    3dc0:	18 16       	cp	r1, r24
    3dc2:	19 06       	cpc	r1, r25
    3dc4:	cc f7       	brge	.-14     	; 0x3db8 <loop+0x482>
			uint8_t gpioValue = (uint8_t)Serial.read();
    3dc6:	87 e9       	ldi	r24, 0x97	; 151
    3dc8:	91 e0       	ldi	r25, 0x01	; 1
    3dca:	0e 94 46 22 	call	0x448c	; 0x448c <_ZN7Serial_4readEv>
			gpioMode(port, gpioValue);
    3dce:	68 2f       	mov	r22, r24
    3dd0:	8c 2f       	mov	r24, r28
	}else if (incomingByte == 'X') {
	// End Measurement:
		eitModule->endMeasure();
		eitModule->setElectrodeInitCond();
	}
}
    3dd2:	df 91       	pop	r29
    3dd4:	cf 91       	pop	r28
    3dd6:	0f 91       	pop	r16
    3dd8:	ff 90       	pop	r15
    3dda:	ef 90       	pop	r14
    3ddc:	df 90       	pop	r13
    3dde:	cf 90       	pop	r12
    3de0:	bf 90       	pop	r11
    3de2:	af 90       	pop	r10
    3de4:	9f 90       	pop	r9
    3de6:	8f 90       	pop	r8
			gpioWrite(port, gpioValue);
		}
		else if (mode == GPIO_SET_DIR){// Write
			while (Serial.available() <= 0){}
			uint8_t gpioValue = (uint8_t)Serial.read();
			gpioMode(port, gpioValue);
    3de8:	0c 94 9a 16 	jmp	0x2d34	; 0x2d34 <_Z8gpioModehh>
		}
	}else if(incomingByte == 'F'){
    3dec:	86 34       	cpi	r24, 0x46	; 70
    3dee:	09 f0       	breq	.+2      	; 0x3df2 <loop+0x4bc>
    3df0:	52 c0       	rjmp	.+164    	; 0x3e96 <loop+0x560>
		while (Serial.available() <= 0){}
    3df2:	87 e9       	ldi	r24, 0x97	; 151
    3df4:	91 e0       	ldi	r25, 0x01	; 1
    3df6:	0e 94 36 22 	call	0x446c	; 0x446c <_ZN7Serial_9availableEv>
    3dfa:	18 16       	cp	r1, r24
    3dfc:	19 06       	cpc	r1, r25
    3dfe:	cc f7       	brge	.-14     	; 0x3df2 <loop+0x4bc>
		incomingByte = (Serial.read());
    3e00:	87 e9       	ldi	r24, 0x97	; 151
    3e02:	91 e0       	ldi	r25, 0x01	; 1
    3e04:	0e 94 46 22 	call	0x448c	; 0x448c <_ZN7Serial_4readEv>
    3e08:	80 93 06 01 	sts	0x0106, r24	; 0x800106 <incomingByte>
		int8_t frequency_kHz = (int8_t)incomingByte;                    //Read Frequency in kHz (2..99)
    3e0c:	c8 2f       	mov	r28, r24
		if(frequency_kHz < 2) {frequency_kHz = 2;}
    3e0e:	82 30       	cpi	r24, 0x02	; 2
    3e10:	24 f0       	brlt	.+8      	; 0x3e1a <loop+0x4e4>
		if(frequency_kHz > 99) {frequency_kHz = 99;}
    3e12:	84 36       	cpi	r24, 0x64	; 100
    3e14:	1c f0       	brlt	.+6      	; 0x3e1c <loop+0x4e6>
    3e16:	c3 e6       	ldi	r28, 0x63	; 99
    3e18:	01 c0       	rjmp	.+2      	; 0x3e1c <loop+0x4e6>
		}
	}else if(incomingByte == 'F'){
		while (Serial.available() <= 0){}
		incomingByte = (Serial.read());
		int8_t frequency_kHz = (int8_t)incomingByte;                    //Read Frequency in kHz (2..99)
		if(frequency_kHz < 2) {frequency_kHz = 2;}
    3e1a:	c2 e0       	ldi	r28, 0x02	; 2
		if(frequency_kHz > 99) {frequency_kHz = 99;}
		// Reset Chip with new frequency:
		eitModule->endMeasure();
    3e1c:	80 91 94 01 	lds	r24, 0x0194	; 0x800194 <__data_end>
    3e20:	90 91 95 01 	lds	r25, 0x0195	; 0x800195 <__data_end+0x1>
    3e24:	0e 94 5e 06 	call	0xcbc	; 0xcbc <_ZN28ImpedanceMultiSensingCircuit10endMeasureEv>
		//eitModule->ad5933ciruit->reset();
		eitModule->ad5933ciruit->setInternalClock(USE_INTERNAL_CLOCK);
    3e28:	80 e0       	ldi	r24, 0x00	; 0
    3e2a:	0e 94 d1 02 	call	0x5a2	; 0x5a2 <_ZN7AD5933s16setInternalClockEb>
		eitModule->measureFrequency = (unsigned long)frequency_kHz*1000;
    3e2e:	ac 2f       	mov	r26, r28
    3e30:	cc 0f       	add	r28, r28
    3e32:	bb 0b       	sbc	r27, r27
    3e34:	28 ee       	ldi	r18, 0xE8	; 232
    3e36:	33 e0       	ldi	r19, 0x03	; 3
    3e38:	0e 94 8a 31 	call	0x6314	; 0x6314 <__usmulhisi3>
    3e3c:	e0 91 94 01 	lds	r30, 0x0194	; 0x800194 <__data_end>
    3e40:	f0 91 95 01 	lds	r31, 0x0195	; 0x800195 <__data_end+0x1>
    3e44:	ed 5a       	subi	r30, 0xAD	; 173
    3e46:	ff 4f       	sbci	r31, 0xFF	; 255
    3e48:	60 83       	st	Z, r22
    3e4a:	71 83       	std	Z+1, r23	; 0x01
    3e4c:	82 83       	std	Z+2, r24	; 0x02
    3e4e:	93 83       	std	Z+3, r25	; 0x03
		eitModule->ad5933ciruit->setStartFrequency(eitModule->measureFrequency);
    3e50:	0e 94 0f 02 	call	0x41e	; 0x41e <_ZN7AD5933s17setStartFrequencyEm>
		eitModule->ad5933ciruit->setIncrementFrequency(FREQ_INCR);
    3e54:	60 e0       	ldi	r22, 0x00	; 0
    3e56:	70 e0       	ldi	r23, 0x00	; 0
    3e58:	cb 01       	movw	r24, r22
    3e5a:	0e 94 4e 02 	call	0x49c	; 0x49c <_ZN7AD5933s21setIncrementFrequencyEm>
		eitModule->ad5933ciruit->setNumberIncrements(NUM_INCR);
    3e5e:	8a e0       	ldi	r24, 0x0A	; 10
    3e60:	90 e0       	ldi	r25, 0x00	; 0
    3e62:	0e 94 8d 02 	call	0x51a	; 0x51a <_ZN7AD5933s19setNumberIncrementsEj>
		eitModule->ad5933ciruit->setPGAGain(PGA_GAIN_X1);
    3e66:	81 e0       	ldi	r24, 0x01	; 1
    3e68:	0e 94 6e 03 	call	0x6dc	; 0x6dc <_ZN7AD5933s10setPGAGainEh>
		eitModule->ad5933ciruit->setSettlingTimeCycles(SETTLING_TIME_CYCLES);
    3e6c:	85 e0       	ldi	r24, 0x05	; 5
    3e6e:	90 e0       	ldi	r25, 0x00	; 0
    3e70:	0e 94 a4 02 	call	0x548	; 0x548 <_ZN7AD5933s21setSettlingTimeCyclesEj>
		
		// Self Calibration if nothing is connected (checked between Pin 0 and 1):
		eitModule->calibrationRoutine();
    3e74:	80 91 94 01 	lds	r24, 0x0194	; 0x800194 <__data_end>
    3e78:	90 91 95 01 	lds	r25, 0x0195	; 0x800195 <__data_end+0x1>
	}else if (incomingByte == 'X') {
	// End Measurement:
		eitModule->endMeasure();
		eitModule->setElectrodeInitCond();
	}
}
    3e7c:	df 91       	pop	r29
    3e7e:	cf 91       	pop	r28
    3e80:	0f 91       	pop	r16
    3e82:	ff 90       	pop	r15
    3e84:	ef 90       	pop	r14
    3e86:	df 90       	pop	r13
    3e88:	cf 90       	pop	r12
    3e8a:	bf 90       	pop	r11
    3e8c:	af 90       	pop	r10
    3e8e:	9f 90       	pop	r9
    3e90:	8f 90       	pop	r8
		eitModule->ad5933ciruit->setNumberIncrements(NUM_INCR);
		eitModule->ad5933ciruit->setPGAGain(PGA_GAIN_X1);
		eitModule->ad5933ciruit->setSettlingTimeCycles(SETTLING_TIME_CYCLES);
		
		// Self Calibration if nothing is connected (checked between Pin 0 and 1):
		eitModule->calibrationRoutine();
    3e92:	0c 94 2a 0c 	jmp	0x1854	; 0x1854 <_ZN28ImpedanceMultiSensingCircuit18calibrationRoutineEv>
		// Disable Modes:
		//eitModule->disableModes();
	}else if (incomingByte == 'X') {
    3e96:	88 35       	cpi	r24, 0x58	; 88
    3e98:	b9 f4       	brne	.+46     	; 0x3ec8 <loop+0x592>
	// End Measurement:
		eitModule->endMeasure();
    3e9a:	80 91 94 01 	lds	r24, 0x0194	; 0x800194 <__data_end>
    3e9e:	90 91 95 01 	lds	r25, 0x0195	; 0x800195 <__data_end+0x1>
    3ea2:	0e 94 5e 06 	call	0xcbc	; 0xcbc <_ZN28ImpedanceMultiSensingCircuit10endMeasureEv>
		eitModule->setElectrodeInitCond();
    3ea6:	80 91 94 01 	lds	r24, 0x0194	; 0x800194 <__data_end>
    3eaa:	90 91 95 01 	lds	r25, 0x0195	; 0x800195 <__data_end+0x1>
	}
}
    3eae:	df 91       	pop	r29
    3eb0:	cf 91       	pop	r28
    3eb2:	0f 91       	pop	r16
    3eb4:	ff 90       	pop	r15
    3eb6:	ef 90       	pop	r14
    3eb8:	df 90       	pop	r13
    3eba:	cf 90       	pop	r12
    3ebc:	bf 90       	pop	r11
    3ebe:	af 90       	pop	r10
    3ec0:	9f 90       	pop	r9
    3ec2:	8f 90       	pop	r8
		// Disable Modes:
		//eitModule->disableModes();
	}else if (incomingByte == 'X') {
	// End Measurement:
		eitModule->endMeasure();
		eitModule->setElectrodeInitCond();
    3ec4:	0c 94 21 06 	jmp	0xc42	; 0xc42 <_ZN28ImpedanceMultiSensingCircuit20setElectrodeInitCondEv>
	}
}
    3ec8:	df 91       	pop	r29
    3eca:	cf 91       	pop	r28
    3ecc:	0f 91       	pop	r16
    3ece:	ff 90       	pop	r15
    3ed0:	ef 90       	pop	r14
    3ed2:	df 90       	pop	r13
    3ed4:	cf 90       	pop	r12
    3ed6:	bf 90       	pop	r11
    3ed8:	af 90       	pop	r10
    3eda:	9f 90       	pop	r9
    3edc:	8f 90       	pop	r8
    3ede:	08 95       	ret

00003ee0 <__subsf3>:
    3ee0:	50 58       	subi	r21, 0x80	; 128

00003ee2 <__addsf3>:
    3ee2:	bb 27       	eor	r27, r27
    3ee4:	aa 27       	eor	r26, r26
    3ee6:	0e 94 88 1f 	call	0x3f10	; 0x3f10 <__addsf3x>
    3eea:	0c 94 02 21 	jmp	0x4204	; 0x4204 <__fp_round>
    3eee:	0e 94 f4 20 	call	0x41e8	; 0x41e8 <__fp_pscA>
    3ef2:	38 f0       	brcs	.+14     	; 0x3f02 <__addsf3+0x20>
    3ef4:	0e 94 fb 20 	call	0x41f6	; 0x41f6 <__fp_pscB>
    3ef8:	20 f0       	brcs	.+8      	; 0x3f02 <__addsf3+0x20>
    3efa:	39 f4       	brne	.+14     	; 0x3f0a <__addsf3+0x28>
    3efc:	9f 3f       	cpi	r25, 0xFF	; 255
    3efe:	19 f4       	brne	.+6      	; 0x3f06 <__addsf3+0x24>
    3f00:	26 f4       	brtc	.+8      	; 0x3f0a <__addsf3+0x28>
    3f02:	0c 94 f1 20 	jmp	0x41e2	; 0x41e2 <__fp_nan>
    3f06:	0e f4       	brtc	.+2      	; 0x3f0a <__addsf3+0x28>
    3f08:	e0 95       	com	r30
    3f0a:	e7 fb       	bst	r30, 7
    3f0c:	0c 94 eb 20 	jmp	0x41d6	; 0x41d6 <__fp_inf>

00003f10 <__addsf3x>:
    3f10:	e9 2f       	mov	r30, r25
    3f12:	0e 94 13 21 	call	0x4226	; 0x4226 <__fp_split3>
    3f16:	58 f3       	brcs	.-42     	; 0x3eee <__addsf3+0xc>
    3f18:	ba 17       	cp	r27, r26
    3f1a:	62 07       	cpc	r22, r18
    3f1c:	73 07       	cpc	r23, r19
    3f1e:	84 07       	cpc	r24, r20
    3f20:	95 07       	cpc	r25, r21
    3f22:	20 f0       	brcs	.+8      	; 0x3f2c <__addsf3x+0x1c>
    3f24:	79 f4       	brne	.+30     	; 0x3f44 <__addsf3x+0x34>
    3f26:	a6 f5       	brtc	.+104    	; 0x3f90 <__addsf3x+0x80>
    3f28:	0c 94 35 21 	jmp	0x426a	; 0x426a <__fp_zero>
    3f2c:	0e f4       	brtc	.+2      	; 0x3f30 <__addsf3x+0x20>
    3f2e:	e0 95       	com	r30
    3f30:	0b 2e       	mov	r0, r27
    3f32:	ba 2f       	mov	r27, r26
    3f34:	a0 2d       	mov	r26, r0
    3f36:	0b 01       	movw	r0, r22
    3f38:	b9 01       	movw	r22, r18
    3f3a:	90 01       	movw	r18, r0
    3f3c:	0c 01       	movw	r0, r24
    3f3e:	ca 01       	movw	r24, r20
    3f40:	a0 01       	movw	r20, r0
    3f42:	11 24       	eor	r1, r1
    3f44:	ff 27       	eor	r31, r31
    3f46:	59 1b       	sub	r21, r25
    3f48:	99 f0       	breq	.+38     	; 0x3f70 <__addsf3x+0x60>
    3f4a:	59 3f       	cpi	r21, 0xF9	; 249
    3f4c:	50 f4       	brcc	.+20     	; 0x3f62 <__addsf3x+0x52>
    3f4e:	50 3e       	cpi	r21, 0xE0	; 224
    3f50:	68 f1       	brcs	.+90     	; 0x3fac <__addsf3x+0x9c>
    3f52:	1a 16       	cp	r1, r26
    3f54:	f0 40       	sbci	r31, 0x00	; 0
    3f56:	a2 2f       	mov	r26, r18
    3f58:	23 2f       	mov	r18, r19
    3f5a:	34 2f       	mov	r19, r20
    3f5c:	44 27       	eor	r20, r20
    3f5e:	58 5f       	subi	r21, 0xF8	; 248
    3f60:	f3 cf       	rjmp	.-26     	; 0x3f48 <__addsf3x+0x38>
    3f62:	46 95       	lsr	r20
    3f64:	37 95       	ror	r19
    3f66:	27 95       	ror	r18
    3f68:	a7 95       	ror	r26
    3f6a:	f0 40       	sbci	r31, 0x00	; 0
    3f6c:	53 95       	inc	r21
    3f6e:	c9 f7       	brne	.-14     	; 0x3f62 <__addsf3x+0x52>
    3f70:	7e f4       	brtc	.+30     	; 0x3f90 <__addsf3x+0x80>
    3f72:	1f 16       	cp	r1, r31
    3f74:	ba 0b       	sbc	r27, r26
    3f76:	62 0b       	sbc	r22, r18
    3f78:	73 0b       	sbc	r23, r19
    3f7a:	84 0b       	sbc	r24, r20
    3f7c:	ba f0       	brmi	.+46     	; 0x3fac <__addsf3x+0x9c>
    3f7e:	91 50       	subi	r25, 0x01	; 1
    3f80:	a1 f0       	breq	.+40     	; 0x3faa <__addsf3x+0x9a>
    3f82:	ff 0f       	add	r31, r31
    3f84:	bb 1f       	adc	r27, r27
    3f86:	66 1f       	adc	r22, r22
    3f88:	77 1f       	adc	r23, r23
    3f8a:	88 1f       	adc	r24, r24
    3f8c:	c2 f7       	brpl	.-16     	; 0x3f7e <__addsf3x+0x6e>
    3f8e:	0e c0       	rjmp	.+28     	; 0x3fac <__addsf3x+0x9c>
    3f90:	ba 0f       	add	r27, r26
    3f92:	62 1f       	adc	r22, r18
    3f94:	73 1f       	adc	r23, r19
    3f96:	84 1f       	adc	r24, r20
    3f98:	48 f4       	brcc	.+18     	; 0x3fac <__addsf3x+0x9c>
    3f9a:	87 95       	ror	r24
    3f9c:	77 95       	ror	r23
    3f9e:	67 95       	ror	r22
    3fa0:	b7 95       	ror	r27
    3fa2:	f7 95       	ror	r31
    3fa4:	9e 3f       	cpi	r25, 0xFE	; 254
    3fa6:	08 f0       	brcs	.+2      	; 0x3faa <__addsf3x+0x9a>
    3fa8:	b0 cf       	rjmp	.-160    	; 0x3f0a <__addsf3+0x28>
    3faa:	93 95       	inc	r25
    3fac:	88 0f       	add	r24, r24
    3fae:	08 f0       	brcs	.+2      	; 0x3fb2 <__addsf3x+0xa2>
    3fb0:	99 27       	eor	r25, r25
    3fb2:	ee 0f       	add	r30, r30
    3fb4:	97 95       	ror	r25
    3fb6:	87 95       	ror	r24
    3fb8:	08 95       	ret

00003fba <__cmpsf2>:
    3fba:	0e 94 c7 20 	call	0x418e	; 0x418e <__fp_cmp>
    3fbe:	08 f4       	brcc	.+2      	; 0x3fc2 <__cmpsf2+0x8>
    3fc0:	81 e0       	ldi	r24, 0x01	; 1
    3fc2:	08 95       	ret

00003fc4 <__divsf3>:
    3fc4:	0e 94 f6 1f 	call	0x3fec	; 0x3fec <__divsf3x>
    3fc8:	0c 94 02 21 	jmp	0x4204	; 0x4204 <__fp_round>
    3fcc:	0e 94 fb 20 	call	0x41f6	; 0x41f6 <__fp_pscB>
    3fd0:	58 f0       	brcs	.+22     	; 0x3fe8 <__divsf3+0x24>
    3fd2:	0e 94 f4 20 	call	0x41e8	; 0x41e8 <__fp_pscA>
    3fd6:	40 f0       	brcs	.+16     	; 0x3fe8 <__divsf3+0x24>
    3fd8:	29 f4       	brne	.+10     	; 0x3fe4 <__divsf3+0x20>
    3fda:	5f 3f       	cpi	r21, 0xFF	; 255
    3fdc:	29 f0       	breq	.+10     	; 0x3fe8 <__divsf3+0x24>
    3fde:	0c 94 eb 20 	jmp	0x41d6	; 0x41d6 <__fp_inf>
    3fe2:	51 11       	cpse	r21, r1
    3fe4:	0c 94 36 21 	jmp	0x426c	; 0x426c <__fp_szero>
    3fe8:	0c 94 f1 20 	jmp	0x41e2	; 0x41e2 <__fp_nan>

00003fec <__divsf3x>:
    3fec:	0e 94 13 21 	call	0x4226	; 0x4226 <__fp_split3>
    3ff0:	68 f3       	brcs	.-38     	; 0x3fcc <__divsf3+0x8>

00003ff2 <__divsf3_pse>:
    3ff2:	99 23       	and	r25, r25
    3ff4:	b1 f3       	breq	.-20     	; 0x3fe2 <__divsf3+0x1e>
    3ff6:	55 23       	and	r21, r21
    3ff8:	91 f3       	breq	.-28     	; 0x3fde <__divsf3+0x1a>
    3ffa:	95 1b       	sub	r25, r21
    3ffc:	55 0b       	sbc	r21, r21
    3ffe:	bb 27       	eor	r27, r27
    4000:	aa 27       	eor	r26, r26
    4002:	62 17       	cp	r22, r18
    4004:	73 07       	cpc	r23, r19
    4006:	84 07       	cpc	r24, r20
    4008:	38 f0       	brcs	.+14     	; 0x4018 <__divsf3_pse+0x26>
    400a:	9f 5f       	subi	r25, 0xFF	; 255
    400c:	5f 4f       	sbci	r21, 0xFF	; 255
    400e:	22 0f       	add	r18, r18
    4010:	33 1f       	adc	r19, r19
    4012:	44 1f       	adc	r20, r20
    4014:	aa 1f       	adc	r26, r26
    4016:	a9 f3       	breq	.-22     	; 0x4002 <__divsf3_pse+0x10>
    4018:	35 d0       	rcall	.+106    	; 0x4084 <__divsf3_pse+0x92>
    401a:	0e 2e       	mov	r0, r30
    401c:	3a f0       	brmi	.+14     	; 0x402c <__divsf3_pse+0x3a>
    401e:	e0 e8       	ldi	r30, 0x80	; 128
    4020:	32 d0       	rcall	.+100    	; 0x4086 <__divsf3_pse+0x94>
    4022:	91 50       	subi	r25, 0x01	; 1
    4024:	50 40       	sbci	r21, 0x00	; 0
    4026:	e6 95       	lsr	r30
    4028:	00 1c       	adc	r0, r0
    402a:	ca f7       	brpl	.-14     	; 0x401e <__divsf3_pse+0x2c>
    402c:	2b d0       	rcall	.+86     	; 0x4084 <__divsf3_pse+0x92>
    402e:	fe 2f       	mov	r31, r30
    4030:	29 d0       	rcall	.+82     	; 0x4084 <__divsf3_pse+0x92>
    4032:	66 0f       	add	r22, r22
    4034:	77 1f       	adc	r23, r23
    4036:	88 1f       	adc	r24, r24
    4038:	bb 1f       	adc	r27, r27
    403a:	26 17       	cp	r18, r22
    403c:	37 07       	cpc	r19, r23
    403e:	48 07       	cpc	r20, r24
    4040:	ab 07       	cpc	r26, r27
    4042:	b0 e8       	ldi	r27, 0x80	; 128
    4044:	09 f0       	breq	.+2      	; 0x4048 <__divsf3_pse+0x56>
    4046:	bb 0b       	sbc	r27, r27
    4048:	80 2d       	mov	r24, r0
    404a:	bf 01       	movw	r22, r30
    404c:	ff 27       	eor	r31, r31
    404e:	93 58       	subi	r25, 0x83	; 131
    4050:	5f 4f       	sbci	r21, 0xFF	; 255
    4052:	3a f0       	brmi	.+14     	; 0x4062 <__divsf3_pse+0x70>
    4054:	9e 3f       	cpi	r25, 0xFE	; 254
    4056:	51 05       	cpc	r21, r1
    4058:	78 f0       	brcs	.+30     	; 0x4078 <__divsf3_pse+0x86>
    405a:	0c 94 eb 20 	jmp	0x41d6	; 0x41d6 <__fp_inf>
    405e:	0c 94 36 21 	jmp	0x426c	; 0x426c <__fp_szero>
    4062:	5f 3f       	cpi	r21, 0xFF	; 255
    4064:	e4 f3       	brlt	.-8      	; 0x405e <__divsf3_pse+0x6c>
    4066:	98 3e       	cpi	r25, 0xE8	; 232
    4068:	d4 f3       	brlt	.-12     	; 0x405e <__divsf3_pse+0x6c>
    406a:	86 95       	lsr	r24
    406c:	77 95       	ror	r23
    406e:	67 95       	ror	r22
    4070:	b7 95       	ror	r27
    4072:	f7 95       	ror	r31
    4074:	9f 5f       	subi	r25, 0xFF	; 255
    4076:	c9 f7       	brne	.-14     	; 0x406a <__divsf3_pse+0x78>
    4078:	88 0f       	add	r24, r24
    407a:	91 1d       	adc	r25, r1
    407c:	96 95       	lsr	r25
    407e:	87 95       	ror	r24
    4080:	97 f9       	bld	r25, 7
    4082:	08 95       	ret
    4084:	e1 e0       	ldi	r30, 0x01	; 1
    4086:	66 0f       	add	r22, r22
    4088:	77 1f       	adc	r23, r23
    408a:	88 1f       	adc	r24, r24
    408c:	bb 1f       	adc	r27, r27
    408e:	62 17       	cp	r22, r18
    4090:	73 07       	cpc	r23, r19
    4092:	84 07       	cpc	r24, r20
    4094:	ba 07       	cpc	r27, r26
    4096:	20 f0       	brcs	.+8      	; 0x40a0 <__divsf3_pse+0xae>
    4098:	62 1b       	sub	r22, r18
    409a:	73 0b       	sbc	r23, r19
    409c:	84 0b       	sbc	r24, r20
    409e:	ba 0b       	sbc	r27, r26
    40a0:	ee 1f       	adc	r30, r30
    40a2:	88 f7       	brcc	.-30     	; 0x4086 <__divsf3_pse+0x94>
    40a4:	e0 95       	com	r30
    40a6:	08 95       	ret

000040a8 <__fixsfsi>:
    40a8:	0e 94 5b 20 	call	0x40b6	; 0x40b6 <__fixunssfsi>
    40ac:	68 94       	set
    40ae:	b1 11       	cpse	r27, r1
    40b0:	0c 94 36 21 	jmp	0x426c	; 0x426c <__fp_szero>
    40b4:	08 95       	ret

000040b6 <__fixunssfsi>:
    40b6:	0e 94 1b 21 	call	0x4236	; 0x4236 <__fp_splitA>
    40ba:	88 f0       	brcs	.+34     	; 0x40de <__fixunssfsi+0x28>
    40bc:	9f 57       	subi	r25, 0x7F	; 127
    40be:	98 f0       	brcs	.+38     	; 0x40e6 <__fixunssfsi+0x30>
    40c0:	b9 2f       	mov	r27, r25
    40c2:	99 27       	eor	r25, r25
    40c4:	b7 51       	subi	r27, 0x17	; 23
    40c6:	b0 f0       	brcs	.+44     	; 0x40f4 <__fixunssfsi+0x3e>
    40c8:	e1 f0       	breq	.+56     	; 0x4102 <__fixunssfsi+0x4c>
    40ca:	66 0f       	add	r22, r22
    40cc:	77 1f       	adc	r23, r23
    40ce:	88 1f       	adc	r24, r24
    40d0:	99 1f       	adc	r25, r25
    40d2:	1a f0       	brmi	.+6      	; 0x40da <__fixunssfsi+0x24>
    40d4:	ba 95       	dec	r27
    40d6:	c9 f7       	brne	.-14     	; 0x40ca <__fixunssfsi+0x14>
    40d8:	14 c0       	rjmp	.+40     	; 0x4102 <__fixunssfsi+0x4c>
    40da:	b1 30       	cpi	r27, 0x01	; 1
    40dc:	91 f0       	breq	.+36     	; 0x4102 <__fixunssfsi+0x4c>
    40de:	0e 94 35 21 	call	0x426a	; 0x426a <__fp_zero>
    40e2:	b1 e0       	ldi	r27, 0x01	; 1
    40e4:	08 95       	ret
    40e6:	0c 94 35 21 	jmp	0x426a	; 0x426a <__fp_zero>
    40ea:	67 2f       	mov	r22, r23
    40ec:	78 2f       	mov	r23, r24
    40ee:	88 27       	eor	r24, r24
    40f0:	b8 5f       	subi	r27, 0xF8	; 248
    40f2:	39 f0       	breq	.+14     	; 0x4102 <__fixunssfsi+0x4c>
    40f4:	b9 3f       	cpi	r27, 0xF9	; 249
    40f6:	cc f3       	brlt	.-14     	; 0x40ea <__fixunssfsi+0x34>
    40f8:	86 95       	lsr	r24
    40fa:	77 95       	ror	r23
    40fc:	67 95       	ror	r22
    40fe:	b3 95       	inc	r27
    4100:	d9 f7       	brne	.-10     	; 0x40f8 <__fixunssfsi+0x42>
    4102:	3e f4       	brtc	.+14     	; 0x4112 <__fixunssfsi+0x5c>
    4104:	90 95       	com	r25
    4106:	80 95       	com	r24
    4108:	70 95       	com	r23
    410a:	61 95       	neg	r22
    410c:	7f 4f       	sbci	r23, 0xFF	; 255
    410e:	8f 4f       	sbci	r24, 0xFF	; 255
    4110:	9f 4f       	sbci	r25, 0xFF	; 255
    4112:	08 95       	ret

00004114 <__floatunsisf>:
    4114:	e8 94       	clt
    4116:	09 c0       	rjmp	.+18     	; 0x412a <__floatsisf+0x12>

00004118 <__floatsisf>:
    4118:	97 fb       	bst	r25, 7
    411a:	3e f4       	brtc	.+14     	; 0x412a <__floatsisf+0x12>
    411c:	90 95       	com	r25
    411e:	80 95       	com	r24
    4120:	70 95       	com	r23
    4122:	61 95       	neg	r22
    4124:	7f 4f       	sbci	r23, 0xFF	; 255
    4126:	8f 4f       	sbci	r24, 0xFF	; 255
    4128:	9f 4f       	sbci	r25, 0xFF	; 255
    412a:	99 23       	and	r25, r25
    412c:	a9 f0       	breq	.+42     	; 0x4158 <__floatsisf+0x40>
    412e:	f9 2f       	mov	r31, r25
    4130:	96 e9       	ldi	r25, 0x96	; 150
    4132:	bb 27       	eor	r27, r27
    4134:	93 95       	inc	r25
    4136:	f6 95       	lsr	r31
    4138:	87 95       	ror	r24
    413a:	77 95       	ror	r23
    413c:	67 95       	ror	r22
    413e:	b7 95       	ror	r27
    4140:	f1 11       	cpse	r31, r1
    4142:	f8 cf       	rjmp	.-16     	; 0x4134 <__floatsisf+0x1c>
    4144:	fa f4       	brpl	.+62     	; 0x4184 <__floatsisf+0x6c>
    4146:	bb 0f       	add	r27, r27
    4148:	11 f4       	brne	.+4      	; 0x414e <__floatsisf+0x36>
    414a:	60 ff       	sbrs	r22, 0
    414c:	1b c0       	rjmp	.+54     	; 0x4184 <__floatsisf+0x6c>
    414e:	6f 5f       	subi	r22, 0xFF	; 255
    4150:	7f 4f       	sbci	r23, 0xFF	; 255
    4152:	8f 4f       	sbci	r24, 0xFF	; 255
    4154:	9f 4f       	sbci	r25, 0xFF	; 255
    4156:	16 c0       	rjmp	.+44     	; 0x4184 <__floatsisf+0x6c>
    4158:	88 23       	and	r24, r24
    415a:	11 f0       	breq	.+4      	; 0x4160 <__floatsisf+0x48>
    415c:	96 e9       	ldi	r25, 0x96	; 150
    415e:	11 c0       	rjmp	.+34     	; 0x4182 <__floatsisf+0x6a>
    4160:	77 23       	and	r23, r23
    4162:	21 f0       	breq	.+8      	; 0x416c <__floatsisf+0x54>
    4164:	9e e8       	ldi	r25, 0x8E	; 142
    4166:	87 2f       	mov	r24, r23
    4168:	76 2f       	mov	r23, r22
    416a:	05 c0       	rjmp	.+10     	; 0x4176 <__floatsisf+0x5e>
    416c:	66 23       	and	r22, r22
    416e:	71 f0       	breq	.+28     	; 0x418c <__floatsisf+0x74>
    4170:	96 e8       	ldi	r25, 0x86	; 134
    4172:	86 2f       	mov	r24, r22
    4174:	70 e0       	ldi	r23, 0x00	; 0
    4176:	60 e0       	ldi	r22, 0x00	; 0
    4178:	2a f0       	brmi	.+10     	; 0x4184 <__floatsisf+0x6c>
    417a:	9a 95       	dec	r25
    417c:	66 0f       	add	r22, r22
    417e:	77 1f       	adc	r23, r23
    4180:	88 1f       	adc	r24, r24
    4182:	da f7       	brpl	.-10     	; 0x417a <__floatsisf+0x62>
    4184:	88 0f       	add	r24, r24
    4186:	96 95       	lsr	r25
    4188:	87 95       	ror	r24
    418a:	97 f9       	bld	r25, 7
    418c:	08 95       	ret

0000418e <__fp_cmp>:
    418e:	99 0f       	add	r25, r25
    4190:	00 08       	sbc	r0, r0
    4192:	55 0f       	add	r21, r21
    4194:	aa 0b       	sbc	r26, r26
    4196:	e0 e8       	ldi	r30, 0x80	; 128
    4198:	fe ef       	ldi	r31, 0xFE	; 254
    419a:	16 16       	cp	r1, r22
    419c:	17 06       	cpc	r1, r23
    419e:	e8 07       	cpc	r30, r24
    41a0:	f9 07       	cpc	r31, r25
    41a2:	c0 f0       	brcs	.+48     	; 0x41d4 <__fp_cmp+0x46>
    41a4:	12 16       	cp	r1, r18
    41a6:	13 06       	cpc	r1, r19
    41a8:	e4 07       	cpc	r30, r20
    41aa:	f5 07       	cpc	r31, r21
    41ac:	98 f0       	brcs	.+38     	; 0x41d4 <__fp_cmp+0x46>
    41ae:	62 1b       	sub	r22, r18
    41b0:	73 0b       	sbc	r23, r19
    41b2:	84 0b       	sbc	r24, r20
    41b4:	95 0b       	sbc	r25, r21
    41b6:	39 f4       	brne	.+14     	; 0x41c6 <__fp_cmp+0x38>
    41b8:	0a 26       	eor	r0, r26
    41ba:	61 f0       	breq	.+24     	; 0x41d4 <__fp_cmp+0x46>
    41bc:	23 2b       	or	r18, r19
    41be:	24 2b       	or	r18, r20
    41c0:	25 2b       	or	r18, r21
    41c2:	21 f4       	brne	.+8      	; 0x41cc <__fp_cmp+0x3e>
    41c4:	08 95       	ret
    41c6:	0a 26       	eor	r0, r26
    41c8:	09 f4       	brne	.+2      	; 0x41cc <__fp_cmp+0x3e>
    41ca:	a1 40       	sbci	r26, 0x01	; 1
    41cc:	a6 95       	lsr	r26
    41ce:	8f ef       	ldi	r24, 0xFF	; 255
    41d0:	81 1d       	adc	r24, r1
    41d2:	81 1d       	adc	r24, r1
    41d4:	08 95       	ret

000041d6 <__fp_inf>:
    41d6:	97 f9       	bld	r25, 7
    41d8:	9f 67       	ori	r25, 0x7F	; 127
    41da:	80 e8       	ldi	r24, 0x80	; 128
    41dc:	70 e0       	ldi	r23, 0x00	; 0
    41de:	60 e0       	ldi	r22, 0x00	; 0
    41e0:	08 95       	ret

000041e2 <__fp_nan>:
    41e2:	9f ef       	ldi	r25, 0xFF	; 255
    41e4:	80 ec       	ldi	r24, 0xC0	; 192
    41e6:	08 95       	ret

000041e8 <__fp_pscA>:
    41e8:	00 24       	eor	r0, r0
    41ea:	0a 94       	dec	r0
    41ec:	16 16       	cp	r1, r22
    41ee:	17 06       	cpc	r1, r23
    41f0:	18 06       	cpc	r1, r24
    41f2:	09 06       	cpc	r0, r25
    41f4:	08 95       	ret

000041f6 <__fp_pscB>:
    41f6:	00 24       	eor	r0, r0
    41f8:	0a 94       	dec	r0
    41fa:	12 16       	cp	r1, r18
    41fc:	13 06       	cpc	r1, r19
    41fe:	14 06       	cpc	r1, r20
    4200:	05 06       	cpc	r0, r21
    4202:	08 95       	ret

00004204 <__fp_round>:
    4204:	09 2e       	mov	r0, r25
    4206:	03 94       	inc	r0
    4208:	00 0c       	add	r0, r0
    420a:	11 f4       	brne	.+4      	; 0x4210 <__fp_round+0xc>
    420c:	88 23       	and	r24, r24
    420e:	52 f0       	brmi	.+20     	; 0x4224 <__fp_round+0x20>
    4210:	bb 0f       	add	r27, r27
    4212:	40 f4       	brcc	.+16     	; 0x4224 <__fp_round+0x20>
    4214:	bf 2b       	or	r27, r31
    4216:	11 f4       	brne	.+4      	; 0x421c <__fp_round+0x18>
    4218:	60 ff       	sbrs	r22, 0
    421a:	04 c0       	rjmp	.+8      	; 0x4224 <__fp_round+0x20>
    421c:	6f 5f       	subi	r22, 0xFF	; 255
    421e:	7f 4f       	sbci	r23, 0xFF	; 255
    4220:	8f 4f       	sbci	r24, 0xFF	; 255
    4222:	9f 4f       	sbci	r25, 0xFF	; 255
    4224:	08 95       	ret

00004226 <__fp_split3>:
    4226:	57 fd       	sbrc	r21, 7
    4228:	90 58       	subi	r25, 0x80	; 128
    422a:	44 0f       	add	r20, r20
    422c:	55 1f       	adc	r21, r21
    422e:	59 f0       	breq	.+22     	; 0x4246 <__fp_splitA+0x10>
    4230:	5f 3f       	cpi	r21, 0xFF	; 255
    4232:	71 f0       	breq	.+28     	; 0x4250 <__fp_splitA+0x1a>
    4234:	47 95       	ror	r20

00004236 <__fp_splitA>:
    4236:	88 0f       	add	r24, r24
    4238:	97 fb       	bst	r25, 7
    423a:	99 1f       	adc	r25, r25
    423c:	61 f0       	breq	.+24     	; 0x4256 <__fp_splitA+0x20>
    423e:	9f 3f       	cpi	r25, 0xFF	; 255
    4240:	79 f0       	breq	.+30     	; 0x4260 <__fp_splitA+0x2a>
    4242:	87 95       	ror	r24
    4244:	08 95       	ret
    4246:	12 16       	cp	r1, r18
    4248:	13 06       	cpc	r1, r19
    424a:	14 06       	cpc	r1, r20
    424c:	55 1f       	adc	r21, r21
    424e:	f2 cf       	rjmp	.-28     	; 0x4234 <__fp_split3+0xe>
    4250:	46 95       	lsr	r20
    4252:	f1 df       	rcall	.-30     	; 0x4236 <__fp_splitA>
    4254:	08 c0       	rjmp	.+16     	; 0x4266 <__fp_splitA+0x30>
    4256:	16 16       	cp	r1, r22
    4258:	17 06       	cpc	r1, r23
    425a:	18 06       	cpc	r1, r24
    425c:	99 1f       	adc	r25, r25
    425e:	f1 cf       	rjmp	.-30     	; 0x4242 <__fp_splitA+0xc>
    4260:	86 95       	lsr	r24
    4262:	71 05       	cpc	r23, r1
    4264:	61 05       	cpc	r22, r1
    4266:	08 94       	sec
    4268:	08 95       	ret

0000426a <__fp_zero>:
    426a:	e8 94       	clt

0000426c <__fp_szero>:
    426c:	bb 27       	eor	r27, r27
    426e:	66 27       	eor	r22, r22
    4270:	77 27       	eor	r23, r23
    4272:	cb 01       	movw	r24, r22
    4274:	97 f9       	bld	r25, 7
    4276:	08 95       	ret

00004278 <__mulsf3>:
    4278:	0e 94 4f 21 	call	0x429e	; 0x429e <__mulsf3x>
    427c:	0c 94 02 21 	jmp	0x4204	; 0x4204 <__fp_round>
    4280:	0e 94 f4 20 	call	0x41e8	; 0x41e8 <__fp_pscA>
    4284:	38 f0       	brcs	.+14     	; 0x4294 <__mulsf3+0x1c>
    4286:	0e 94 fb 20 	call	0x41f6	; 0x41f6 <__fp_pscB>
    428a:	20 f0       	brcs	.+8      	; 0x4294 <__mulsf3+0x1c>
    428c:	95 23       	and	r25, r21
    428e:	11 f0       	breq	.+4      	; 0x4294 <__mulsf3+0x1c>
    4290:	0c 94 eb 20 	jmp	0x41d6	; 0x41d6 <__fp_inf>
    4294:	0c 94 f1 20 	jmp	0x41e2	; 0x41e2 <__fp_nan>
    4298:	11 24       	eor	r1, r1
    429a:	0c 94 36 21 	jmp	0x426c	; 0x426c <__fp_szero>

0000429e <__mulsf3x>:
    429e:	0e 94 13 21 	call	0x4226	; 0x4226 <__fp_split3>
    42a2:	70 f3       	brcs	.-36     	; 0x4280 <__mulsf3+0x8>

000042a4 <__mulsf3_pse>:
    42a4:	95 9f       	mul	r25, r21
    42a6:	c1 f3       	breq	.-16     	; 0x4298 <__mulsf3+0x20>
    42a8:	95 0f       	add	r25, r21
    42aa:	50 e0       	ldi	r21, 0x00	; 0
    42ac:	55 1f       	adc	r21, r21
    42ae:	62 9f       	mul	r22, r18
    42b0:	f0 01       	movw	r30, r0
    42b2:	72 9f       	mul	r23, r18
    42b4:	bb 27       	eor	r27, r27
    42b6:	f0 0d       	add	r31, r0
    42b8:	b1 1d       	adc	r27, r1
    42ba:	63 9f       	mul	r22, r19
    42bc:	aa 27       	eor	r26, r26
    42be:	f0 0d       	add	r31, r0
    42c0:	b1 1d       	adc	r27, r1
    42c2:	aa 1f       	adc	r26, r26
    42c4:	64 9f       	mul	r22, r20
    42c6:	66 27       	eor	r22, r22
    42c8:	b0 0d       	add	r27, r0
    42ca:	a1 1d       	adc	r26, r1
    42cc:	66 1f       	adc	r22, r22
    42ce:	82 9f       	mul	r24, r18
    42d0:	22 27       	eor	r18, r18
    42d2:	b0 0d       	add	r27, r0
    42d4:	a1 1d       	adc	r26, r1
    42d6:	62 1f       	adc	r22, r18
    42d8:	73 9f       	mul	r23, r19
    42da:	b0 0d       	add	r27, r0
    42dc:	a1 1d       	adc	r26, r1
    42de:	62 1f       	adc	r22, r18
    42e0:	83 9f       	mul	r24, r19
    42e2:	a0 0d       	add	r26, r0
    42e4:	61 1d       	adc	r22, r1
    42e6:	22 1f       	adc	r18, r18
    42e8:	74 9f       	mul	r23, r20
    42ea:	33 27       	eor	r19, r19
    42ec:	a0 0d       	add	r26, r0
    42ee:	61 1d       	adc	r22, r1
    42f0:	23 1f       	adc	r18, r19
    42f2:	84 9f       	mul	r24, r20
    42f4:	60 0d       	add	r22, r0
    42f6:	21 1d       	adc	r18, r1
    42f8:	82 2f       	mov	r24, r18
    42fa:	76 2f       	mov	r23, r22
    42fc:	6a 2f       	mov	r22, r26
    42fe:	11 24       	eor	r1, r1
    4300:	9f 57       	subi	r25, 0x7F	; 127
    4302:	50 40       	sbci	r21, 0x00	; 0
    4304:	9a f0       	brmi	.+38     	; 0x432c <__mulsf3_pse+0x88>
    4306:	f1 f0       	breq	.+60     	; 0x4344 <__mulsf3_pse+0xa0>
    4308:	88 23       	and	r24, r24
    430a:	4a f0       	brmi	.+18     	; 0x431e <__mulsf3_pse+0x7a>
    430c:	ee 0f       	add	r30, r30
    430e:	ff 1f       	adc	r31, r31
    4310:	bb 1f       	adc	r27, r27
    4312:	66 1f       	adc	r22, r22
    4314:	77 1f       	adc	r23, r23
    4316:	88 1f       	adc	r24, r24
    4318:	91 50       	subi	r25, 0x01	; 1
    431a:	50 40       	sbci	r21, 0x00	; 0
    431c:	a9 f7       	brne	.-22     	; 0x4308 <__mulsf3_pse+0x64>
    431e:	9e 3f       	cpi	r25, 0xFE	; 254
    4320:	51 05       	cpc	r21, r1
    4322:	80 f0       	brcs	.+32     	; 0x4344 <__mulsf3_pse+0xa0>
    4324:	0c 94 eb 20 	jmp	0x41d6	; 0x41d6 <__fp_inf>
    4328:	0c 94 36 21 	jmp	0x426c	; 0x426c <__fp_szero>
    432c:	5f 3f       	cpi	r21, 0xFF	; 255
    432e:	e4 f3       	brlt	.-8      	; 0x4328 <__mulsf3_pse+0x84>
    4330:	98 3e       	cpi	r25, 0xE8	; 232
    4332:	d4 f3       	brlt	.-12     	; 0x4328 <__mulsf3_pse+0x84>
    4334:	86 95       	lsr	r24
    4336:	77 95       	ror	r23
    4338:	67 95       	ror	r22
    433a:	b7 95       	ror	r27
    433c:	f7 95       	ror	r31
    433e:	e7 95       	ror	r30
    4340:	9f 5f       	subi	r25, 0xFF	; 255
    4342:	c1 f7       	brne	.-16     	; 0x4334 <__mulsf3_pse+0x90>
    4344:	fe 2b       	or	r31, r30
    4346:	88 0f       	add	r24, r24
    4348:	91 1d       	adc	r25, r1
    434a:	96 95       	lsr	r25
    434c:	87 95       	ror	r24
    434e:	97 f9       	bld	r25, 7
    4350:	08 95       	ret
    4352:	19 f4       	brne	.+6      	; 0x435a <__mulsf3_pse+0xb6>
    4354:	16 f4       	brtc	.+4      	; 0x435a <__mulsf3_pse+0xb6>
    4356:	0c 94 f1 20 	jmp	0x41e2	; 0x41e2 <__fp_nan>
    435a:	0c 94 ef 21 	jmp	0x43de	; 0x43de <__fp_mpack>

0000435e <sqrt>:
    435e:	0e 94 1b 21 	call	0x4236	; 0x4236 <__fp_splitA>
    4362:	b8 f3       	brcs	.-18     	; 0x4352 <__mulsf3_pse+0xae>
    4364:	99 23       	and	r25, r25
    4366:	c9 f3       	breq	.-14     	; 0x435a <__mulsf3_pse+0xb6>
    4368:	b6 f3       	brts	.-20     	; 0x4356 <__mulsf3_pse+0xb2>
    436a:	9f 57       	subi	r25, 0x7F	; 127
    436c:	55 0b       	sbc	r21, r21
    436e:	87 ff       	sbrs	r24, 7
    4370:	0e 94 fd 21 	call	0x43fa	; 0x43fa <__fp_norm2>
    4374:	00 24       	eor	r0, r0
    4376:	a0 e6       	ldi	r26, 0x60	; 96
    4378:	40 ea       	ldi	r20, 0xA0	; 160
    437a:	90 01       	movw	r18, r0
    437c:	80 58       	subi	r24, 0x80	; 128
    437e:	56 95       	lsr	r21
    4380:	97 95       	ror	r25
    4382:	28 f4       	brcc	.+10     	; 0x438e <sqrt+0x30>
    4384:	80 5c       	subi	r24, 0xC0	; 192
    4386:	66 0f       	add	r22, r22
    4388:	77 1f       	adc	r23, r23
    438a:	88 1f       	adc	r24, r24
    438c:	20 f0       	brcs	.+8      	; 0x4396 <sqrt+0x38>
    438e:	26 17       	cp	r18, r22
    4390:	37 07       	cpc	r19, r23
    4392:	48 07       	cpc	r20, r24
    4394:	30 f4       	brcc	.+12     	; 0x43a2 <sqrt+0x44>
    4396:	62 1b       	sub	r22, r18
    4398:	73 0b       	sbc	r23, r19
    439a:	84 0b       	sbc	r24, r20
    439c:	20 29       	or	r18, r0
    439e:	31 29       	or	r19, r1
    43a0:	4a 2b       	or	r20, r26
    43a2:	a6 95       	lsr	r26
    43a4:	17 94       	ror	r1
    43a6:	07 94       	ror	r0
    43a8:	20 25       	eor	r18, r0
    43aa:	31 25       	eor	r19, r1
    43ac:	4a 27       	eor	r20, r26
    43ae:	58 f7       	brcc	.-42     	; 0x4386 <sqrt+0x28>
    43b0:	66 0f       	add	r22, r22
    43b2:	77 1f       	adc	r23, r23
    43b4:	88 1f       	adc	r24, r24
    43b6:	20 f0       	brcs	.+8      	; 0x43c0 <sqrt+0x62>
    43b8:	26 17       	cp	r18, r22
    43ba:	37 07       	cpc	r19, r23
    43bc:	48 07       	cpc	r20, r24
    43be:	30 f4       	brcc	.+12     	; 0x43cc <sqrt+0x6e>
    43c0:	62 0b       	sbc	r22, r18
    43c2:	73 0b       	sbc	r23, r19
    43c4:	84 0b       	sbc	r24, r20
    43c6:	20 0d       	add	r18, r0
    43c8:	31 1d       	adc	r19, r1
    43ca:	41 1d       	adc	r20, r1
    43cc:	a0 95       	com	r26
    43ce:	81 f7       	brne	.-32     	; 0x43b0 <sqrt+0x52>
    43d0:	b9 01       	movw	r22, r18
    43d2:	84 2f       	mov	r24, r20
    43d4:	91 58       	subi	r25, 0x81	; 129
    43d6:	88 0f       	add	r24, r24
    43d8:	96 95       	lsr	r25
    43da:	87 95       	ror	r24
    43dc:	08 95       	ret

000043de <__fp_mpack>:
    43de:	9f 3f       	cpi	r25, 0xFF	; 255
    43e0:	31 f0       	breq	.+12     	; 0x43ee <__fp_mpack_finite+0xc>

000043e2 <__fp_mpack_finite>:
    43e2:	91 50       	subi	r25, 0x01	; 1
    43e4:	20 f4       	brcc	.+8      	; 0x43ee <__fp_mpack_finite+0xc>
    43e6:	87 95       	ror	r24
    43e8:	77 95       	ror	r23
    43ea:	67 95       	ror	r22
    43ec:	b7 95       	ror	r27
    43ee:	88 0f       	add	r24, r24
    43f0:	91 1d       	adc	r25, r1
    43f2:	96 95       	lsr	r25
    43f4:	87 95       	ror	r24
    43f6:	97 f9       	bld	r25, 7
    43f8:	08 95       	ret

000043fa <__fp_norm2>:
    43fa:	91 50       	subi	r25, 0x01	; 1
    43fc:	50 40       	sbci	r21, 0x00	; 0
    43fe:	66 0f       	add	r22, r22
    4400:	77 1f       	adc	r23, r23
    4402:	88 1f       	adc	r24, r24
    4404:	d2 f7       	brpl	.-12     	; 0x43fa <__fp_norm2>
    4406:	08 95       	ret

00004408 <_ZN5Print17availableForWriteEv>:
	ATOMIC_BLOCK(ATOMIC_RESTORESTATE) {
		ret = breakValue;
		breakValue = -1;
	}
	return ret;
}
    4408:	80 e0       	ldi	r24, 0x00	; 0
    440a:	90 e0       	ldi	r25, 0x00	; 0
    440c:	08 95       	ret

0000440e <_ZN7Serial_5writeEh>:
    440e:	cf 93       	push	r28
    4410:	df 93       	push	r29
    4412:	1f 92       	push	r1
    4414:	cd b7       	in	r28, 0x3d	; 61
    4416:	de b7       	in	r29, 0x3e	; 62
    4418:	69 83       	std	Y+1, r22	; 0x01
    441a:	dc 01       	movw	r26, r24
    441c:	ed 91       	ld	r30, X+
    441e:	fc 91       	ld	r31, X
    4420:	02 80       	ldd	r0, Z+2	; 0x02
    4422:	f3 81       	ldd	r31, Z+3	; 0x03
    4424:	e0 2d       	mov	r30, r0
    4426:	41 e0       	ldi	r20, 0x01	; 1
    4428:	50 e0       	ldi	r21, 0x00	; 0
    442a:	be 01       	movw	r22, r28
    442c:	6f 5f       	subi	r22, 0xFF	; 255
    442e:	7f 4f       	sbci	r23, 0xFF	; 255
    4430:	09 95       	icall
    4432:	0f 90       	pop	r0
    4434:	df 91       	pop	r29
    4436:	cf 91       	pop	r28
    4438:	08 95       	ret

0000443a <_ZN7Serial_4peekEv>:
    443a:	cf 93       	push	r28
    443c:	df 93       	push	r29
    443e:	ec 01       	movw	r28, r24
    4440:	8c 85       	ldd	r24, Y+12	; 0x0c
    4442:	9d 85       	ldd	r25, Y+13	; 0x0d
    4444:	97 ff       	sbrs	r25, 7
    4446:	05 c0       	rjmp	.+10     	; 0x4452 <_ZN7Serial_4peekEv+0x18>
    4448:	82 e0       	ldi	r24, 0x02	; 2
    444a:	0e 94 5e 26 	call	0x4cbc	; 0x4cbc <_Z8USB_Recvh>
    444e:	9d 87       	std	Y+13, r25	; 0x0d
    4450:	8c 87       	std	Y+12, r24	; 0x0c
    4452:	8c 85       	ldd	r24, Y+12	; 0x0c
    4454:	9d 85       	ldd	r25, Y+13	; 0x0d
    4456:	df 91       	pop	r29
    4458:	cf 91       	pop	r28
    445a:	08 95       	ret

0000445c <_ZN7Serial_17availableForWriteEv>:
    445c:	83 e0       	ldi	r24, 0x03	; 3
    445e:	0e 94 75 26 	call	0x4cea	; 0x4cea <_Z13USB_SendSpaceh>
    4462:	90 e0       	ldi	r25, 0x00	; 0
    4464:	08 95       	ret

00004466 <_ZN7Serial_5flushEv>:
    4466:	83 e0       	ldi	r24, 0x03	; 3
    4468:	0c 94 f3 28 	jmp	0x51e6	; 0x51e6 <_Z9USB_Flushh>

0000446c <_ZN7Serial_9availableEv>:
    446c:	fc 01       	movw	r30, r24
    446e:	84 85       	ldd	r24, Z+12	; 0x0c
    4470:	95 85       	ldd	r25, Z+13	; 0x0d
    4472:	97 fd       	sbrc	r25, 7
    4474:	06 c0       	rjmp	.+12     	; 0x4482 <_ZN7Serial_9availableEv+0x16>
    4476:	82 e0       	ldi	r24, 0x02	; 2
    4478:	0e 94 09 26 	call	0x4c12	; 0x4c12 <_Z13USB_Availableh>
    447c:	90 e0       	ldi	r25, 0x00	; 0
    447e:	01 96       	adiw	r24, 0x01	; 1
    4480:	08 95       	ret
    4482:	82 e0       	ldi	r24, 0x02	; 2
    4484:	0e 94 09 26 	call	0x4c12	; 0x4c12 <_Z13USB_Availableh>
    4488:	90 e0       	ldi	r25, 0x00	; 0
    448a:	08 95       	ret

0000448c <_ZN7Serial_4readEv>:
    448c:	fc 01       	movw	r30, r24
    448e:	84 85       	ldd	r24, Z+12	; 0x0c
    4490:	95 85       	ldd	r25, Z+13	; 0x0d
    4492:	97 fd       	sbrc	r25, 7
    4494:	05 c0       	rjmp	.+10     	; 0x44a0 <_ZN7Serial_4readEv+0x14>
    4496:	2f ef       	ldi	r18, 0xFF	; 255
    4498:	3f ef       	ldi	r19, 0xFF	; 255
    449a:	35 87       	std	Z+13, r19	; 0x0d
    449c:	24 87       	std	Z+12, r18	; 0x0c
    449e:	08 95       	ret
    44a0:	82 e0       	ldi	r24, 0x02	; 2
    44a2:	0c 94 5e 26 	jmp	0x4cbc	; 0x4cbc <_Z8USB_Recvh>

000044a6 <_ZN7Serial_5writeEPKhj>:
    44a6:	cf 93       	push	r28
    44a8:	df 93       	push	r29
    44aa:	ec 01       	movw	r28, r24
    44ac:	80 91 12 01 	lds	r24, 0x0112	; 0x800112 <_ZL12_usbLineInfo+0x7>
    44b0:	88 23       	and	r24, r24
    44b2:	31 f0       	breq	.+12     	; 0x44c0 <_ZN7Serial_5writeEPKhj+0x1a>
    44b4:	83 e0       	ldi	r24, 0x03	; 3
    44b6:	0e 94 8f 26 	call	0x4d1e	; 0x4d1e <_Z8USB_SendhPKvi>
    44ba:	18 16       	cp	r1, r24
    44bc:	19 06       	cpc	r1, r25
    44be:	34 f0       	brlt	.+12     	; 0x44cc <_ZN7Serial_5writeEPKhj+0x26>
    44c0:	81 e0       	ldi	r24, 0x01	; 1
    44c2:	90 e0       	ldi	r25, 0x00	; 0
    44c4:	9b 83       	std	Y+3, r25	; 0x03
    44c6:	8a 83       	std	Y+2, r24	; 0x02
    44c8:	80 e0       	ldi	r24, 0x00	; 0
    44ca:	90 e0       	ldi	r25, 0x00	; 0
    44cc:	df 91       	pop	r29
    44ce:	cf 91       	pop	r28
    44d0:	08 95       	ret

000044d2 <_Z16isLUFAbootloaderv>:
    44d2:	ee ef       	ldi	r30, 0xFE	; 254
    44d4:	ff e7       	ldi	r31, 0x7F	; 127
    44d6:	25 91       	lpm	r18, Z+
    44d8:	34 91       	lpm	r19, Z
    44da:	81 e0       	ldi	r24, 0x01	; 1
    44dc:	2b 3f       	cpi	r18, 0xFB	; 251
    44de:	3c 4d       	sbci	r19, 0xDC	; 220
    44e0:	09 f0       	breq	.+2      	; 0x44e4 <_Z16isLUFAbootloaderv+0x12>
    44e2:	80 e0       	ldi	r24, 0x00	; 0
    44e4:	08 95       	ret

000044e6 <_Z16CDC_GetInterfacePh>:
    44e6:	fc 01       	movw	r30, r24
    44e8:	90 81       	ld	r25, Z
    44ea:	9e 5f       	subi	r25, 0xFE	; 254
    44ec:	90 83       	st	Z, r25
    44ee:	42 e4       	ldi	r20, 0x42	; 66
    44f0:	50 e0       	ldi	r21, 0x00	; 0
    44f2:	63 e7       	ldi	r22, 0x73	; 115
    44f4:	72 e0       	ldi	r23, 0x02	; 2
    44f6:	80 e8       	ldi	r24, 0x80	; 128
    44f8:	0c 94 3f 27 	jmp	0x4e7e	; 0x4e7e <_Z15USB_SendControlhPKvi>

000044fc <_Z9CDC_SetupR8USBSetup>:
    44fc:	fc 01       	movw	r30, r24
    44fe:	81 81       	ldd	r24, Z+1	; 0x01
    4500:	90 81       	ld	r25, Z
    4502:	91 3a       	cpi	r25, 0xA1	; 161
    4504:	59 f4       	brne	.+22     	; 0x451c <_Z9CDC_SetupR8USBSetup+0x20>
    4506:	81 32       	cpi	r24, 0x21	; 33
    4508:	09 f0       	breq	.+2      	; 0x450c <_Z9CDC_SetupR8USBSetup+0x10>
    450a:	65 c0       	rjmp	.+202    	; 0x45d6 <_Z9CDC_SetupR8USBSetup+0xda>
    450c:	47 e0       	ldi	r20, 0x07	; 7
    450e:	50 e0       	ldi	r21, 0x00	; 0
    4510:	6b e0       	ldi	r22, 0x0B	; 11
    4512:	71 e0       	ldi	r23, 0x01	; 1
    4514:	80 e0       	ldi	r24, 0x00	; 0
    4516:	0e 94 3f 27 	call	0x4e7e	; 0x4e7e <_Z15USB_SendControlhPKvi>
    451a:	5b c0       	rjmp	.+182    	; 0x45d2 <_Z9CDC_SetupR8USBSetup+0xd6>
    451c:	91 32       	cpi	r25, 0x21	; 33
    451e:	09 f0       	breq	.+2      	; 0x4522 <_Z9CDC_SetupR8USBSetup+0x26>
    4520:	5a c0       	rjmp	.+180    	; 0x45d6 <_Z9CDC_SetupR8USBSetup+0xda>
    4522:	83 32       	cpi	r24, 0x23	; 35
    4524:	69 f4       	brne	.+26     	; 0x4540 <_Z9CDC_SetupR8USBSetup+0x44>
    4526:	82 81       	ldd	r24, Z+2	; 0x02
    4528:	93 81       	ldd	r25, Z+3	; 0x03
    452a:	a0 e0       	ldi	r26, 0x00	; 0
    452c:	b0 e0       	ldi	r27, 0x00	; 0
    452e:	80 93 07 01 	sts	0x0107, r24	; 0x800107 <_ZL10breakValue>
    4532:	90 93 08 01 	sts	0x0108, r25	; 0x800108 <_ZL10breakValue+0x1>
    4536:	a0 93 09 01 	sts	0x0109, r26	; 0x800109 <_ZL10breakValue+0x2>
    453a:	b0 93 0a 01 	sts	0x010A, r27	; 0x80010a <_ZL10breakValue+0x3>
    453e:	49 c0       	rjmp	.+146    	; 0x45d2 <_Z9CDC_SetupR8USBSetup+0xd6>
    4540:	80 32       	cpi	r24, 0x20	; 32
    4542:	39 f4       	brne	.+14     	; 0x4552 <_Z9CDC_SetupR8USBSetup+0x56>
    4544:	67 e0       	ldi	r22, 0x07	; 7
    4546:	70 e0       	ldi	r23, 0x00	; 0
    4548:	8b e0       	ldi	r24, 0x0B	; 11
    454a:	91 e0       	ldi	r25, 0x01	; 1
    454c:	0e 94 66 27 	call	0x4ecc	; 0x4ecc <_Z15USB_RecvControlPvi>
    4550:	40 c0       	rjmp	.+128    	; 0x45d2 <_Z9CDC_SetupR8USBSetup+0xd6>
    4552:	82 32       	cpi	r24, 0x22	; 34
    4554:	09 f0       	breq	.+2      	; 0x4558 <_Z9CDC_SetupR8USBSetup+0x5c>
    4556:	3d c0       	rjmp	.+122    	; 0x45d2 <_Z9CDC_SetupR8USBSetup+0xd6>
    4558:	82 81       	ldd	r24, Z+2	; 0x02
    455a:	80 93 12 01 	sts	0x0112, r24	; 0x800112 <_ZL12_usbLineInfo+0x7>
    455e:	0e 94 69 22 	call	0x44d2	; 0x44d2 <_Z16isLUFAbootloaderv>
    4562:	88 23       	and	r24, r24
    4564:	19 f0       	breq	.+6      	; 0x456c <_Z9CDC_SetupR8USBSetup+0x70>
    4566:	ee ef       	ldi	r30, 0xFE	; 254
    4568:	fa e0       	ldi	r31, 0x0A	; 10
    456a:	02 c0       	rjmp	.+4      	; 0x4570 <_Z9CDC_SetupR8USBSetup+0x74>
    456c:	e0 e0       	ldi	r30, 0x00	; 0
    456e:	f8 e0       	ldi	r31, 0x08	; 8
    4570:	80 91 0b 01 	lds	r24, 0x010B	; 0x80010b <_ZL12_usbLineInfo>
    4574:	90 91 0c 01 	lds	r25, 0x010C	; 0x80010c <_ZL12_usbLineInfo+0x1>
    4578:	a0 91 0d 01 	lds	r26, 0x010D	; 0x80010d <_ZL12_usbLineInfo+0x2>
    457c:	b0 91 0e 01 	lds	r27, 0x010E	; 0x80010e <_ZL12_usbLineInfo+0x3>
    4580:	80 3b       	cpi	r24, 0xB0	; 176
    4582:	94 40       	sbci	r25, 0x04	; 4
    4584:	a1 05       	cpc	r26, r1
    4586:	b1 05       	cpc	r27, r1
    4588:	41 f5       	brne	.+80     	; 0x45da <_Z9CDC_SetupR8USBSetup+0xde>
    458a:	80 91 12 01 	lds	r24, 0x0112	; 0x800112 <_ZL12_usbLineInfo+0x7>
    458e:	80 fd       	sbrc	r24, 0
    4590:	24 c0       	rjmp	.+72     	; 0x45da <_Z9CDC_SetupR8USBSetup+0xde>
    4592:	ee 3f       	cpi	r30, 0xFE	; 254
    4594:	8a e0       	ldi	r24, 0x0A	; 10
    4596:	f8 07       	cpc	r31, r24
    4598:	51 f0       	breq	.+20     	; 0x45ae <_Z9CDC_SetupR8USBSetup+0xb2>
    459a:	80 81       	ld	r24, Z
    459c:	91 81       	ldd	r25, Z+1	; 0x01
    459e:	87 37       	cpi	r24, 0x77	; 119
    45a0:	27 e7       	ldi	r18, 0x77	; 119
    45a2:	92 07       	cpc	r25, r18
    45a4:	21 f0       	breq	.+8      	; 0x45ae <_Z9CDC_SetupR8USBSetup+0xb2>
    45a6:	90 93 ff 0a 	sts	0x0AFF, r25	; 0x800aff <__bss_end+0x82a>
    45aa:	80 93 fe 0a 	sts	0x0AFE, r24	; 0x800afe <__bss_end+0x829>
    45ae:	87 e7       	ldi	r24, 0x77	; 119
    45b0:	97 e7       	ldi	r25, 0x77	; 119
    45b2:	91 83       	std	Z+1, r25	; 0x01
    45b4:	80 83       	st	Z, r24
    45b6:	80 91 60 00 	lds	r24, 0x0060	; 0x800060 <__TEXT_REGION_LENGTH__+0x7f8060>
    45ba:	80 93 e7 01 	sts	0x01E7, r24	; 0x8001e7 <_ZL11wdtcsr_save>
    45be:	9b e0       	ldi	r25, 0x0B	; 11
    45c0:	88 e1       	ldi	r24, 0x18	; 24
    45c2:	0f b6       	in	r0, 0x3f	; 63
    45c4:	f8 94       	cli
    45c6:	a8 95       	wdr
    45c8:	80 93 60 00 	sts	0x0060, r24	; 0x800060 <__TEXT_REGION_LENGTH__+0x7f8060>
    45cc:	0f be       	out	0x3f, r0	; 63
    45ce:	90 93 60 00 	sts	0x0060, r25	; 0x800060 <__TEXT_REGION_LENGTH__+0x7f8060>
    45d2:	81 e0       	ldi	r24, 0x01	; 1
    45d4:	08 95       	ret
    45d6:	80 e0       	ldi	r24, 0x00	; 0
    45d8:	08 95       	ret
    45da:	80 81       	ld	r24, Z
    45dc:	91 81       	ldd	r25, Z+1	; 0x01
    45de:	87 37       	cpi	r24, 0x77	; 119
    45e0:	97 47       	sbci	r25, 0x77	; 119
    45e2:	b9 f7       	brne	.-18     	; 0x45d2 <_Z9CDC_SetupR8USBSetup+0xd6>
    45e4:	a8 95       	wdr
    45e6:	80 91 60 00 	lds	r24, 0x0060	; 0x800060 <__TEXT_REGION_LENGTH__+0x7f8060>
    45ea:	88 61       	ori	r24, 0x18	; 24
    45ec:	80 93 60 00 	sts	0x0060, r24	; 0x800060 <__TEXT_REGION_LENGTH__+0x7f8060>
    45f0:	80 91 e7 01 	lds	r24, 0x01E7	; 0x8001e7 <_ZL11wdtcsr_save>
    45f4:	80 93 60 00 	sts	0x0060, r24	; 0x800060 <__TEXT_REGION_LENGTH__+0x7f8060>
    45f8:	ee 3f       	cpi	r30, 0xFE	; 254
    45fa:	8a e0       	ldi	r24, 0x0A	; 10
    45fc:	f8 07       	cpc	r31, r24
    45fe:	39 f0       	breq	.+14     	; 0x460e <_Z9CDC_SetupR8USBSetup+0x112>
    4600:	80 91 fe 0a 	lds	r24, 0x0AFE	; 0x800afe <__bss_end+0x829>
    4604:	90 91 ff 0a 	lds	r25, 0x0AFF	; 0x800aff <__bss_end+0x82a>
    4608:	91 83       	std	Z+1, r25	; 0x01
    460a:	80 83       	st	Z, r24
    460c:	e2 cf       	rjmp	.-60     	; 0x45d2 <_Z9CDC_SetupR8USBSetup+0xd6>
    460e:	10 92 ff 0a 	sts	0x0AFF, r1	; 0x800aff <__bss_end+0x82a>
    4612:	10 92 fe 0a 	sts	0x0AFE, r1	; 0x800afe <__bss_end+0x829>
    4616:	dd cf       	rjmp	.-70     	; 0x45d2 <_Z9CDC_SetupR8USBSetup+0xd6>

00004618 <_ZN7Serial_5beginEm>:
    4618:	2f ef       	ldi	r18, 0xFF	; 255
    461a:	3f ef       	ldi	r19, 0xFF	; 255
    461c:	fc 01       	movw	r30, r24
    461e:	35 87       	std	Z+13, r19	; 0x0d
    4620:	24 87       	std	Z+12, r18	; 0x0c
    4622:	08 95       	ret

00004624 <_GLOBAL__sub_I__cdcInterface>:
    size_t printNumber(unsigned long, uint8_t);
    size_t printFloat(double, uint8_t);
  protected:
    void setWriteError(int err = 1) { write_error = err; }
  public:
    Print() : write_error(0) {}
    4624:	e7 e9       	ldi	r30, 0x97	; 151
    4626:	f1 e0       	ldi	r31, 0x01	; 1
    4628:	13 82       	std	Z+3, r1	; 0x03
    462a:	12 82       	std	Z+2, r1	; 0x02
  public:
    virtual int available() = 0;
    virtual int read() = 0;
    virtual int peek() = 0;

    Stream() {_timeout=1000;}
    462c:	88 ee       	ldi	r24, 0xE8	; 232
    462e:	93 e0       	ldi	r25, 0x03	; 3
    4630:	a0 e0       	ldi	r26, 0x00	; 0
    4632:	b0 e0       	ldi	r27, 0x00	; 0
    4634:	84 83       	std	Z+4, r24	; 0x04
    4636:	95 83       	std	Z+5, r25	; 0x05
    4638:	a6 83       	std	Z+6, r26	; 0x06
    463a:	b7 83       	std	Z+7, r27	; 0x07
class Serial_ : public Stream
{
private:
	int peek_buffer;
public:
	Serial_() { peek_buffer = -1; };
    463c:	85 e6       	ldi	r24, 0x65	; 101
    463e:	91 e0       	ldi	r25, 0x01	; 1
    4640:	91 83       	std	Z+1, r25	; 0x01
    4642:	80 83       	st	Z, r24
    4644:	8f ef       	ldi	r24, 0xFF	; 255
    4646:	9f ef       	ldi	r25, 0xFF	; 255
    4648:	95 87       	std	Z+13, r25	; 0x0d
    464a:	84 87       	std	Z+12, r24	; 0x0c
    464c:	08 95       	ret

0000464e <initVariant>:
    464e:	08 95       	ret

00004650 <main>:
void setupUSB() __attribute__((weak));
void setupUSB() { }

int main(void)
{
	init();
    4650:	0e 94 47 2a 	call	0x548e	; 0x548e <init>

	initVariant();
    4654:	0e 94 27 23 	call	0x464e	; 0x464e <initVariant>

#if defined(USBCON)
	USBDevice.attach();
    4658:	88 ee       	ldi	r24, 0xE8	; 232
    465a:	91 e0       	ldi	r25, 0x01	; 1
    465c:	0e 94 7e 29 	call	0x52fc	; 0x52fc <_ZN10USBDevice_6attachEv>
#endif
	
	setup();
    4660:	0e 94 dc 1b 	call	0x37b8	; 0x37b8 <setup>
    
	for (;;) {
		loop();
		if (serialEventRun) serialEventRun();
    4664:	c0 e0       	ldi	r28, 0x00	; 0
    4666:	d0 e0       	ldi	r29, 0x00	; 0
#endif
	
	setup();
    
	for (;;) {
		loop();
    4668:	0e 94 9b 1c 	call	0x3936	; 0x3936 <loop>
		if (serialEventRun) serialEventRun();
    466c:	20 97       	sbiw	r28, 0x00	; 0
    466e:	e1 f3       	breq	.-8      	; 0x4668 <main+0x18>
    4670:	0e 94 00 00 	call	0	; 0x0 <__vectors>
    4674:	f9 cf       	rjmp	.-14     	; 0x4668 <main+0x18>

00004676 <_Znwj>:
    4676:	0c 94 b4 31 	jmp	0x6368	; 0x6368 <malloc>

0000467a <_ZN5Print5writeEPKc>:
  else return printNumber(n, base);
}

size_t Print::print(double n, int digits)
{
  return printFloat(n, digits);
    467a:	61 15       	cp	r22, r1
    467c:	71 05       	cpc	r23, r1
    467e:	79 f0       	breq	.+30     	; 0x469e <_ZN5Print5writeEPKc+0x24>
    4680:	fb 01       	movw	r30, r22
    4682:	01 90       	ld	r0, Z+
    4684:	00 20       	and	r0, r0
    4686:	e9 f7       	brne	.-6      	; 0x4682 <_ZN5Print5writeEPKc+0x8>
    4688:	31 97       	sbiw	r30, 0x01	; 1
    468a:	af 01       	movw	r20, r30
    468c:	46 1b       	sub	r20, r22
    468e:	57 0b       	sbc	r21, r23
    4690:	dc 01       	movw	r26, r24
    4692:	ed 91       	ld	r30, X+
    4694:	fc 91       	ld	r31, X
    4696:	02 80       	ldd	r0, Z+2	; 0x02
    4698:	f3 81       	ldd	r31, Z+3	; 0x03
    469a:	e0 2d       	mov	r30, r0
    469c:	09 94       	ijmp
    469e:	80 e0       	ldi	r24, 0x00	; 0
    46a0:	90 e0       	ldi	r25, 0x00	; 0
    46a2:	08 95       	ret

000046a4 <_ZN5Print5printEPK19__FlashStringHelper>:
    46a4:	ef 92       	push	r14
    46a6:	ff 92       	push	r15
    46a8:	0f 93       	push	r16
    46aa:	1f 93       	push	r17
    46ac:	cf 93       	push	r28
    46ae:	df 93       	push	r29
    46b0:	8c 01       	movw	r16, r24
    46b2:	7b 01       	movw	r14, r22
    46b4:	c0 e0       	ldi	r28, 0x00	; 0
    46b6:	d0 e0       	ldi	r29, 0x00	; 0
    46b8:	f7 01       	movw	r30, r14
    46ba:	ec 0f       	add	r30, r28
    46bc:	fd 1f       	adc	r31, r29
    46be:	64 91       	lpm	r22, Z
    46c0:	66 23       	and	r22, r22
    46c2:	61 f0       	breq	.+24     	; 0x46dc <_ZN5Print5printEPK19__FlashStringHelper+0x38>
    46c4:	d8 01       	movw	r26, r16
    46c6:	ed 91       	ld	r30, X+
    46c8:	fc 91       	ld	r31, X
    46ca:	01 90       	ld	r0, Z+
    46cc:	f0 81       	ld	r31, Z
    46ce:	e0 2d       	mov	r30, r0
    46d0:	c8 01       	movw	r24, r16
    46d2:	09 95       	icall
    46d4:	89 2b       	or	r24, r25
    46d6:	11 f0       	breq	.+4      	; 0x46dc <_ZN5Print5printEPK19__FlashStringHelper+0x38>
    46d8:	21 96       	adiw	r28, 0x01	; 1
    46da:	ee cf       	rjmp	.-36     	; 0x46b8 <_ZN5Print5printEPK19__FlashStringHelper+0x14>
    46dc:	ce 01       	movw	r24, r28
    46de:	df 91       	pop	r29
    46e0:	cf 91       	pop	r28
    46e2:	1f 91       	pop	r17
    46e4:	0f 91       	pop	r16
    46e6:	ff 90       	pop	r15
    46e8:	ef 90       	pop	r14
    46ea:	08 95       	ret

000046ec <_ZN5Print5printEPKc>:
    46ec:	0c 94 3d 23 	jmp	0x467a	; 0x467a <_ZN5Print5writeEPKc>

000046f0 <_ZN5Print5printEc>:
    46f0:	dc 01       	movw	r26, r24
    46f2:	ed 91       	ld	r30, X+
    46f4:	fc 91       	ld	r31, X
    46f6:	01 90       	ld	r0, Z+
    46f8:	f0 81       	ld	r31, Z
    46fa:	e0 2d       	mov	r30, r0
    46fc:	09 94       	ijmp

000046fe <_ZN5Print7printlnEv>:
    46fe:	63 e7       	ldi	r22, 0x73	; 115
    4700:	71 e0       	ldi	r23, 0x01	; 1
    4702:	0c 94 3d 23 	jmp	0x467a	; 0x467a <_ZN5Print5writeEPKc>

00004706 <_ZN5Print7printlnEPK19__FlashStringHelper>:
    4706:	0f 93       	push	r16
    4708:	1f 93       	push	r17
    470a:	cf 93       	push	r28
    470c:	df 93       	push	r29
    470e:	ec 01       	movw	r28, r24
    4710:	0e 94 52 23 	call	0x46a4	; 0x46a4 <_ZN5Print5printEPK19__FlashStringHelper>
    4714:	8c 01       	movw	r16, r24
    4716:	ce 01       	movw	r24, r28
    4718:	0e 94 7f 23 	call	0x46fe	; 0x46fe <_ZN5Print7printlnEv>
    471c:	80 0f       	add	r24, r16
    471e:	91 1f       	adc	r25, r17
    4720:	df 91       	pop	r29
    4722:	cf 91       	pop	r28
    4724:	1f 91       	pop	r17
    4726:	0f 91       	pop	r16
    4728:	08 95       	ret

0000472a <_ZN5Print7printlnEPKc>:
    472a:	0f 93       	push	r16
    472c:	1f 93       	push	r17
    472e:	cf 93       	push	r28
    4730:	df 93       	push	r29
    4732:	ec 01       	movw	r28, r24
    4734:	0e 94 3d 23 	call	0x467a	; 0x467a <_ZN5Print5writeEPKc>
    4738:	8c 01       	movw	r16, r24
    473a:	ce 01       	movw	r24, r28
    473c:	0e 94 7f 23 	call	0x46fe	; 0x46fe <_ZN5Print7printlnEv>
    4740:	80 0f       	add	r24, r16
    4742:	91 1f       	adc	r25, r17
    4744:	df 91       	pop	r29
    4746:	cf 91       	pop	r28
    4748:	1f 91       	pop	r17
    474a:	0f 91       	pop	r16
    474c:	08 95       	ret

0000474e <_ZN5Print11printNumberEmh>:
    474e:	8f 92       	push	r8
    4750:	9f 92       	push	r9
    4752:	af 92       	push	r10
    4754:	bf 92       	push	r11
    4756:	ef 92       	push	r14
    4758:	ff 92       	push	r15
    475a:	0f 93       	push	r16
    475c:	1f 93       	push	r17
    475e:	cf 93       	push	r28
    4760:	df 93       	push	r29
    4762:	cd b7       	in	r28, 0x3d	; 61
    4764:	de b7       	in	r29, 0x3e	; 62
    4766:	a1 97       	sbiw	r28, 0x21	; 33
    4768:	0f b6       	in	r0, 0x3f	; 63
    476a:	f8 94       	cli
    476c:	de bf       	out	0x3e, r29	; 62
    476e:	0f be       	out	0x3f, r0	; 63
    4770:	cd bf       	out	0x3d, r28	; 61
    4772:	7c 01       	movw	r14, r24
    4774:	fa 01       	movw	r30, r20
    4776:	cb 01       	movw	r24, r22
    4778:	19 a2       	std	Y+33, r1	; 0x21
    477a:	22 30       	cpi	r18, 0x02	; 2
    477c:	08 f4       	brcc	.+2      	; 0x4780 <_ZN5Print11printNumberEmh+0x32>
    477e:	2a e0       	ldi	r18, 0x0A	; 10
    4780:	8e 01       	movw	r16, r28
    4782:	0f 5d       	subi	r16, 0xDF	; 223
    4784:	1f 4f       	sbci	r17, 0xFF	; 255
    4786:	82 2e       	mov	r8, r18
    4788:	91 2c       	mov	r9, r1
    478a:	a1 2c       	mov	r10, r1
    478c:	b1 2c       	mov	r11, r1
    478e:	bf 01       	movw	r22, r30
    4790:	a5 01       	movw	r20, r10
    4792:	94 01       	movw	r18, r8
    4794:	0e 94 62 31 	call	0x62c4	; 0x62c4 <__udivmodsi4>
    4798:	f9 01       	movw	r30, r18
    479a:	ca 01       	movw	r24, r20
    479c:	01 50       	subi	r16, 0x01	; 1
    479e:	11 09       	sbc	r17, r1
    47a0:	6a 30       	cpi	r22, 0x0A	; 10
    47a2:	10 f4       	brcc	.+4      	; 0x47a8 <_ZN5Print11printNumberEmh+0x5a>
    47a4:	60 5d       	subi	r22, 0xD0	; 208
    47a6:	01 c0       	rjmp	.+2      	; 0x47aa <_ZN5Print11printNumberEmh+0x5c>
    47a8:	69 5c       	subi	r22, 0xC9	; 201
    47aa:	d8 01       	movw	r26, r16
    47ac:	6c 93       	st	X, r22
    47ae:	23 2b       	or	r18, r19
    47b0:	24 2b       	or	r18, r20
    47b2:	25 2b       	or	r18, r21
    47b4:	61 f7       	brne	.-40     	; 0x478e <_ZN5Print11printNumberEmh+0x40>
    47b6:	b8 01       	movw	r22, r16
    47b8:	c7 01       	movw	r24, r14
    47ba:	0e 94 3d 23 	call	0x467a	; 0x467a <_ZN5Print5writeEPKc>
    47be:	a1 96       	adiw	r28, 0x21	; 33
    47c0:	0f b6       	in	r0, 0x3f	; 63
    47c2:	f8 94       	cli
    47c4:	de bf       	out	0x3e, r29	; 62
    47c6:	0f be       	out	0x3f, r0	; 63
    47c8:	cd bf       	out	0x3d, r28	; 61
    47ca:	df 91       	pop	r29
    47cc:	cf 91       	pop	r28
    47ce:	1f 91       	pop	r17
    47d0:	0f 91       	pop	r16
    47d2:	ff 90       	pop	r15
    47d4:	ef 90       	pop	r14
    47d6:	bf 90       	pop	r11
    47d8:	af 90       	pop	r10
    47da:	9f 90       	pop	r9
    47dc:	8f 90       	pop	r8
    47de:	08 95       	ret

000047e0 <_ZN5Print5printEmi>:
    47e0:	21 15       	cp	r18, r1
    47e2:	31 05       	cpc	r19, r1
    47e4:	41 f4       	brne	.+16     	; 0x47f6 <_ZN5Print5printEmi+0x16>
    47e6:	dc 01       	movw	r26, r24
    47e8:	ed 91       	ld	r30, X+
    47ea:	fc 91       	ld	r31, X
    47ec:	01 90       	ld	r0, Z+
    47ee:	f0 81       	ld	r31, Z
    47f0:	e0 2d       	mov	r30, r0
    47f2:	64 2f       	mov	r22, r20
    47f4:	09 94       	ijmp
    47f6:	0c 94 a7 23 	jmp	0x474e	; 0x474e <_ZN5Print11printNumberEmh>

000047fa <_ZN5Print5printEhi>:
    47fa:	9a 01       	movw	r18, r20
    47fc:	46 2f       	mov	r20, r22
    47fe:	50 e0       	ldi	r21, 0x00	; 0
    4800:	60 e0       	ldi	r22, 0x00	; 0
    4802:	70 e0       	ldi	r23, 0x00	; 0
    4804:	0c 94 f0 23 	jmp	0x47e0	; 0x47e0 <_ZN5Print5printEmi>

00004808 <_ZN5Print5printEji>:
    4808:	9a 01       	movw	r18, r20
    480a:	ab 01       	movw	r20, r22
    480c:	60 e0       	ldi	r22, 0x00	; 0
    480e:	70 e0       	ldi	r23, 0x00	; 0
    4810:	0c 94 f0 23 	jmp	0x47e0	; 0x47e0 <_ZN5Print5printEmi>

00004814 <_ZN5Print5printEli>:
    4814:	cf 92       	push	r12
    4816:	df 92       	push	r13
    4818:	ef 92       	push	r14
    481a:	ff 92       	push	r15
    481c:	0f 93       	push	r16
    481e:	1f 93       	push	r17
    4820:	cf 93       	push	r28
    4822:	df 93       	push	r29
    4824:	21 15       	cp	r18, r1
    4826:	31 05       	cpc	r19, r1
    4828:	81 f4       	brne	.+32     	; 0x484a <_ZN5Print5printEli+0x36>
    482a:	dc 01       	movw	r26, r24
    482c:	ed 91       	ld	r30, X+
    482e:	fc 91       	ld	r31, X
    4830:	01 90       	ld	r0, Z+
    4832:	f0 81       	ld	r31, Z
    4834:	e0 2d       	mov	r30, r0
    4836:	64 2f       	mov	r22, r20
    4838:	df 91       	pop	r29
    483a:	cf 91       	pop	r28
    483c:	1f 91       	pop	r17
    483e:	0f 91       	pop	r16
    4840:	ff 90       	pop	r15
    4842:	ef 90       	pop	r14
    4844:	df 90       	pop	r13
    4846:	cf 90       	pop	r12
    4848:	09 94       	ijmp
    484a:	2a 30       	cpi	r18, 0x0A	; 10
    484c:	31 05       	cpc	r19, r1
    484e:	01 f5       	brne	.+64     	; 0x4890 <_ZN5Print5printEli+0x7c>
    4850:	77 ff       	sbrs	r23, 7
    4852:	1d c0       	rjmp	.+58     	; 0x488e <_ZN5Print5printEli+0x7a>
    4854:	6a 01       	movw	r12, r20
    4856:	7b 01       	movw	r14, r22
    4858:	ec 01       	movw	r28, r24
    485a:	6d e2       	ldi	r22, 0x2D	; 45
    485c:	0e 94 78 23 	call	0x46f0	; 0x46f0 <_ZN5Print5printEc>
    4860:	8c 01       	movw	r16, r24
    4862:	44 27       	eor	r20, r20
    4864:	55 27       	eor	r21, r21
    4866:	ba 01       	movw	r22, r20
    4868:	4c 19       	sub	r20, r12
    486a:	5d 09       	sbc	r21, r13
    486c:	6e 09       	sbc	r22, r14
    486e:	7f 09       	sbc	r23, r15
    4870:	2a e0       	ldi	r18, 0x0A	; 10
    4872:	ce 01       	movw	r24, r28
    4874:	0e 94 a7 23 	call	0x474e	; 0x474e <_ZN5Print11printNumberEmh>
    4878:	80 0f       	add	r24, r16
    487a:	91 1f       	adc	r25, r17
    487c:	df 91       	pop	r29
    487e:	cf 91       	pop	r28
    4880:	1f 91       	pop	r17
    4882:	0f 91       	pop	r16
    4884:	ff 90       	pop	r15
    4886:	ef 90       	pop	r14
    4888:	df 90       	pop	r13
    488a:	cf 90       	pop	r12
    488c:	08 95       	ret
    488e:	2a e0       	ldi	r18, 0x0A	; 10
    4890:	df 91       	pop	r29
    4892:	cf 91       	pop	r28
    4894:	1f 91       	pop	r17
    4896:	0f 91       	pop	r16
    4898:	ff 90       	pop	r15
    489a:	ef 90       	pop	r14
    489c:	df 90       	pop	r13
    489e:	cf 90       	pop	r12
    48a0:	0c 94 a7 23 	jmp	0x474e	; 0x474e <_ZN5Print11printNumberEmh>

000048a4 <_ZN5Print5printEii>:
    48a4:	9a 01       	movw	r18, r20
    48a6:	ab 01       	movw	r20, r22
    48a8:	77 0f       	add	r23, r23
    48aa:	66 0b       	sbc	r22, r22
    48ac:	77 0b       	sbc	r23, r23
    48ae:	0c 94 0a 24 	jmp	0x4814	; 0x4814 <_ZN5Print5printEli>

000048b2 <_ZN5Print7printlnEii>:
    48b2:	0f 93       	push	r16
    48b4:	1f 93       	push	r17
    48b6:	cf 93       	push	r28
    48b8:	df 93       	push	r29
    48ba:	ec 01       	movw	r28, r24
    48bc:	0e 94 52 24 	call	0x48a4	; 0x48a4 <_ZN5Print5printEii>
    48c0:	8c 01       	movw	r16, r24
    48c2:	ce 01       	movw	r24, r28
    48c4:	0e 94 7f 23 	call	0x46fe	; 0x46fe <_ZN5Print7printlnEv>
    48c8:	80 0f       	add	r24, r16
    48ca:	91 1f       	adc	r25, r17
    48cc:	df 91       	pop	r29
    48ce:	cf 91       	pop	r28
    48d0:	1f 91       	pop	r17
    48d2:	0f 91       	pop	r16
    48d4:	08 95       	ret

000048d6 <_ZN5Print10printFloatEdh>:
    48d6:	7f 92       	push	r7
    48d8:	8f 92       	push	r8
    48da:	9f 92       	push	r9
    48dc:	af 92       	push	r10
    48de:	bf 92       	push	r11
    48e0:	cf 92       	push	r12
    48e2:	df 92       	push	r13
    48e4:	ef 92       	push	r14
    48e6:	ff 92       	push	r15
    48e8:	0f 93       	push	r16
    48ea:	1f 93       	push	r17
    48ec:	cf 93       	push	r28
    48ee:	df 93       	push	r29
    48f0:	8c 01       	movw	r16, r24
    48f2:	6a 01       	movw	r12, r20
    48f4:	7b 01       	movw	r14, r22
    48f6:	72 2e       	mov	r7, r18
    48f8:	9a 01       	movw	r18, r20
    48fa:	ab 01       	movw	r20, r22
    48fc:	c7 01       	movw	r24, r14
    48fe:	b6 01       	movw	r22, r12
    4900:	0e 94 49 31 	call	0x6292	; 0x6292 <__unordsf2>
    4904:	88 23       	and	r24, r24
    4906:	19 f0       	breq	.+6      	; 0x490e <_ZN5Print10printFloatEdh+0x38>
    4908:	66 e7       	ldi	r22, 0x76	; 118
    490a:	71 e0       	ldi	r23, 0x01	; 1
    490c:	27 c0       	rjmp	.+78     	; 0x495c <_ZN5Print10printFloatEdh+0x86>
    490e:	46 01       	movw	r8, r12
    4910:	57 01       	movw	r10, r14
    4912:	e8 94       	clt
    4914:	b7 f8       	bld	r11, 7
    4916:	2f ef       	ldi	r18, 0xFF	; 255
    4918:	3f ef       	ldi	r19, 0xFF	; 255
    491a:	4f e7       	ldi	r20, 0x7F	; 127
    491c:	5f e7       	ldi	r21, 0x7F	; 127
    491e:	c5 01       	movw	r24, r10
    4920:	b4 01       	movw	r22, r8
    4922:	0e 94 49 31 	call	0x6292	; 0x6292 <__unordsf2>
    4926:	81 11       	cpse	r24, r1
    4928:	0d c0       	rjmp	.+26     	; 0x4944 <_ZN5Print10printFloatEdh+0x6e>
    492a:	2f ef       	ldi	r18, 0xFF	; 255
    492c:	3f ef       	ldi	r19, 0xFF	; 255
    492e:	4f e7       	ldi	r20, 0x7F	; 127
    4930:	5f e7       	ldi	r21, 0x7F	; 127
    4932:	c5 01       	movw	r24, r10
    4934:	b4 01       	movw	r22, r8
    4936:	0e 94 dd 1f 	call	0x3fba	; 0x3fba <__cmpsf2>
    493a:	18 16       	cp	r1, r24
    493c:	1c f4       	brge	.+6      	; 0x4944 <_ZN5Print10printFloatEdh+0x6e>
    493e:	6a e7       	ldi	r22, 0x7A	; 122
    4940:	71 e0       	ldi	r23, 0x01	; 1
    4942:	0c c0       	rjmp	.+24     	; 0x495c <_ZN5Print10printFloatEdh+0x86>
    4944:	2f ef       	ldi	r18, 0xFF	; 255
    4946:	3f ef       	ldi	r19, 0xFF	; 255
    4948:	4f e7       	ldi	r20, 0x7F	; 127
    494a:	5f e4       	ldi	r21, 0x4F	; 79
    494c:	c7 01       	movw	r24, r14
    494e:	b6 01       	movw	r22, r12
    4950:	0e 94 44 31 	call	0x6288	; 0x6288 <__gesf2>
    4954:	18 16       	cp	r1, r24
    4956:	94 f4       	brge	.+36     	; 0x497c <_ZN5Print10printFloatEdh+0xa6>
    4958:	6e e7       	ldi	r22, 0x7E	; 126
    495a:	71 e0       	ldi	r23, 0x01	; 1
    495c:	c8 01       	movw	r24, r16
    495e:	df 91       	pop	r29
    4960:	cf 91       	pop	r28
    4962:	1f 91       	pop	r17
    4964:	0f 91       	pop	r16
    4966:	ff 90       	pop	r15
    4968:	ef 90       	pop	r14
    496a:	df 90       	pop	r13
    496c:	cf 90       	pop	r12
    496e:	bf 90       	pop	r11
    4970:	af 90       	pop	r10
    4972:	9f 90       	pop	r9
    4974:	8f 90       	pop	r8
    4976:	7f 90       	pop	r7
    4978:	0c 94 3d 23 	jmp	0x467a	; 0x467a <_ZN5Print5writeEPKc>
    497c:	2f ef       	ldi	r18, 0xFF	; 255
    497e:	3f ef       	ldi	r19, 0xFF	; 255
    4980:	4f e7       	ldi	r20, 0x7F	; 127
    4982:	5f ec       	ldi	r21, 0xCF	; 207
    4984:	c7 01       	movw	r24, r14
    4986:	b6 01       	movw	r22, r12
    4988:	0e 94 dd 1f 	call	0x3fba	; 0x3fba <__cmpsf2>
    498c:	87 fd       	sbrc	r24, 7
    498e:	e4 cf       	rjmp	.-56     	; 0x4958 <_ZN5Print10printFloatEdh+0x82>
    4990:	20 e0       	ldi	r18, 0x00	; 0
    4992:	30 e0       	ldi	r19, 0x00	; 0
    4994:	a9 01       	movw	r20, r18
    4996:	c7 01       	movw	r24, r14
    4998:	b6 01       	movw	r22, r12
    499a:	0e 94 dd 1f 	call	0x3fba	; 0x3fba <__cmpsf2>
    499e:	87 ff       	sbrs	r24, 7
    49a0:	0a c0       	rjmp	.+20     	; 0x49b6 <_ZN5Print10printFloatEdh+0xe0>
    49a2:	6d e2       	ldi	r22, 0x2D	; 45
    49a4:	c8 01       	movw	r24, r16
    49a6:	0e 94 78 23 	call	0x46f0	; 0x46f0 <_ZN5Print5printEc>
    49aa:	ec 01       	movw	r28, r24
    49ac:	f7 fa       	bst	r15, 7
    49ae:	f0 94       	com	r15
    49b0:	f7 f8       	bld	r15, 7
    49b2:	f0 94       	com	r15
    49b4:	02 c0       	rjmp	.+4      	; 0x49ba <_ZN5Print10printFloatEdh+0xe4>
    49b6:	c0 e0       	ldi	r28, 0x00	; 0
    49b8:	d0 e0       	ldi	r29, 0x00	; 0
    49ba:	b1 2c       	mov	r11, r1
    49bc:	60 e0       	ldi	r22, 0x00	; 0
    49be:	70 e0       	ldi	r23, 0x00	; 0
    49c0:	80 e0       	ldi	r24, 0x00	; 0
    49c2:	9f e3       	ldi	r25, 0x3F	; 63
    49c4:	7b 14       	cp	r7, r11
    49c6:	41 f0       	breq	.+16     	; 0x49d8 <_ZN5Print10printFloatEdh+0x102>
    49c8:	20 e0       	ldi	r18, 0x00	; 0
    49ca:	30 e0       	ldi	r19, 0x00	; 0
    49cc:	40 e2       	ldi	r20, 0x20	; 32
    49ce:	51 e4       	ldi	r21, 0x41	; 65
    49d0:	0e 94 e2 1f 	call	0x3fc4	; 0x3fc4 <__divsf3>
    49d4:	b3 94       	inc	r11
    49d6:	f6 cf       	rjmp	.-20     	; 0x49c4 <_ZN5Print10printFloatEdh+0xee>
    49d8:	a7 01       	movw	r20, r14
    49da:	96 01       	movw	r18, r12
    49dc:	0e 94 71 1f 	call	0x3ee2	; 0x3ee2 <__addsf3>
    49e0:	6b 01       	movw	r12, r22
    49e2:	7c 01       	movw	r14, r24
    49e4:	0e 94 5b 20 	call	0x40b6	; 0x40b6 <__fixunssfsi>
    49e8:	4b 01       	movw	r8, r22
    49ea:	5c 01       	movw	r10, r24
    49ec:	2a e0       	ldi	r18, 0x0A	; 10
    49ee:	ab 01       	movw	r20, r22
    49f0:	bc 01       	movw	r22, r24
    49f2:	c8 01       	movw	r24, r16
    49f4:	0e 94 a7 23 	call	0x474e	; 0x474e <_ZN5Print11printNumberEmh>
    49f8:	c8 0f       	add	r28, r24
    49fa:	d9 1f       	adc	r29, r25
    49fc:	77 20       	and	r7, r7
    49fe:	b9 f1       	breq	.+110    	; 0x4a6e <_ZN5Print10printFloatEdh+0x198>
    4a00:	c5 01       	movw	r24, r10
    4a02:	b4 01       	movw	r22, r8
    4a04:	0e 94 8a 20 	call	0x4114	; 0x4114 <__floatunsisf>
    4a08:	9b 01       	movw	r18, r22
    4a0a:	ac 01       	movw	r20, r24
    4a0c:	c7 01       	movw	r24, r14
    4a0e:	b6 01       	movw	r22, r12
    4a10:	0e 94 70 1f 	call	0x3ee0	; 0x3ee0 <__subsf3>
    4a14:	6b 01       	movw	r12, r22
    4a16:	7c 01       	movw	r14, r24
    4a18:	6e e2       	ldi	r22, 0x2E	; 46
    4a1a:	c8 01       	movw	r24, r16
    4a1c:	0e 94 78 23 	call	0x46f0	; 0x46f0 <_ZN5Print5printEc>
    4a20:	c8 0f       	add	r28, r24
    4a22:	d9 1f       	adc	r29, r25
    4a24:	20 e0       	ldi	r18, 0x00	; 0
    4a26:	30 e0       	ldi	r19, 0x00	; 0
    4a28:	40 e2       	ldi	r20, 0x20	; 32
    4a2a:	51 e4       	ldi	r21, 0x41	; 65
    4a2c:	c7 01       	movw	r24, r14
    4a2e:	b6 01       	movw	r22, r12
    4a30:	0e 94 3c 21 	call	0x4278	; 0x4278 <__mulsf3>
    4a34:	4b 01       	movw	r8, r22
    4a36:	5c 01       	movw	r10, r24
    4a38:	0e 94 5b 20 	call	0x40b6	; 0x40b6 <__fixunssfsi>
    4a3c:	6b 01       	movw	r12, r22
    4a3e:	7c 01       	movw	r14, r24
    4a40:	4a e0       	ldi	r20, 0x0A	; 10
    4a42:	50 e0       	ldi	r21, 0x00	; 0
    4a44:	c8 01       	movw	r24, r16
    4a46:	0e 94 04 24 	call	0x4808	; 0x4808 <_ZN5Print5printEji>
    4a4a:	c8 0f       	add	r28, r24
    4a4c:	d9 1f       	adc	r29, r25
    4a4e:	b6 01       	movw	r22, r12
    4a50:	80 e0       	ldi	r24, 0x00	; 0
    4a52:	90 e0       	ldi	r25, 0x00	; 0
    4a54:	0e 94 8a 20 	call	0x4114	; 0x4114 <__floatunsisf>
    4a58:	9b 01       	movw	r18, r22
    4a5a:	ac 01       	movw	r20, r24
    4a5c:	c5 01       	movw	r24, r10
    4a5e:	b4 01       	movw	r22, r8
    4a60:	0e 94 70 1f 	call	0x3ee0	; 0x3ee0 <__subsf3>
    4a64:	6b 01       	movw	r12, r22
    4a66:	7c 01       	movw	r14, r24
    4a68:	7a 94       	dec	r7
    4a6a:	71 10       	cpse	r7, r1
    4a6c:	db cf       	rjmp	.-74     	; 0x4a24 <_ZN5Print10printFloatEdh+0x14e>
    4a6e:	ce 01       	movw	r24, r28
    4a70:	df 91       	pop	r29
    4a72:	cf 91       	pop	r28
    4a74:	1f 91       	pop	r17
    4a76:	0f 91       	pop	r16
    4a78:	ff 90       	pop	r15
    4a7a:	ef 90       	pop	r14
    4a7c:	df 90       	pop	r13
    4a7e:	cf 90       	pop	r12
    4a80:	bf 90       	pop	r11
    4a82:	af 90       	pop	r10
    4a84:	9f 90       	pop	r9
    4a86:	8f 90       	pop	r8
    4a88:	7f 90       	pop	r7
    4a8a:	08 95       	ret

00004a8c <_ZN5Print7printlnEdi>:
  n += println();
  return n;
}

size_t Print::println(double num, int digits)
{
    4a8c:	0f 93       	push	r16
    4a8e:	1f 93       	push	r17
    4a90:	cf 93       	push	r28
    4a92:	df 93       	push	r29
    4a94:	ec 01       	movw	r28, r24
  else return printNumber(n, base);
}

size_t Print::print(double n, int digits)
{
  return printFloat(n, digits);
    4a96:	0e 94 6b 24 	call	0x48d6	; 0x48d6 <_ZN5Print10printFloatEdh>
    4a9a:	8c 01       	movw	r16, r24
}

size_t Print::println(double num, int digits)
{
  size_t n = print(num, digits);
  n += println();
    4a9c:	ce 01       	movw	r24, r28
    4a9e:	0e 94 7f 23 	call	0x46fe	; 0x46fe <_ZN5Print7printlnEv>
  return n;
}
    4aa2:	80 0f       	add	r24, r16
    4aa4:	91 1f       	adc	r25, r17
    4aa6:	df 91       	pop	r29
    4aa8:	cf 91       	pop	r28
    4aaa:	1f 91       	pop	r17
    4aac:	0f 91       	pop	r16
    4aae:	08 95       	ret

00004ab0 <_ZL4RecvPVhh>:
//=======================================================================
//=======================================================================

USBDevice_ USBDevice;

USBDevice_::USBDevice_()
    4ab0:	61 50       	subi	r22, 0x01	; 1
    4ab2:	30 f0       	brcs	.+12     	; 0x4ac0 <_ZL4RecvPVhh+0x10>
    4ab4:	20 91 f1 00 	lds	r18, 0x00F1	; 0x8000f1 <__TEXT_REGION_LENGTH__+0x7f80f1>
    4ab8:	fc 01       	movw	r30, r24
    4aba:	20 83       	st	Z, r18
    4abc:	01 96       	adiw	r24, 0x01	; 1
    4abe:	f8 cf       	rjmp	.-16     	; 0x4ab0 <_ZL4RecvPVhh>
    4ac0:	28 98       	cbi	0x05, 0	; 5
    4ac2:	84 e6       	ldi	r24, 0x64	; 100
    4ac4:	80 93 f0 01 	sts	0x01F0, r24	; 0x8001f0 <RxLEDPulse>
    4ac8:	08 95       	ret

00004aca <_ZL11SendControlh>:
    4aca:	40 91 eb 01 	lds	r20, 0x01EB	; 0x8001eb <_ZL6_cmark>
    4ace:	50 91 ec 01 	lds	r21, 0x01EC	; 0x8001ec <_ZL6_cmark+0x1>
    4ad2:	20 91 e9 01 	lds	r18, 0x01E9	; 0x8001e9 <_ZL5_cend>
    4ad6:	30 91 ea 01 	lds	r19, 0x01EA	; 0x8001ea <_ZL5_cend+0x1>
    4ada:	42 17       	cp	r20, r18
    4adc:	53 07       	cpc	r21, r19
    4ade:	b4 f4       	brge	.+44     	; 0x4b0c <_ZL11SendControlh+0x42>
    4ae0:	90 91 e8 00 	lds	r25, 0x00E8	; 0x8000e8 <__TEXT_REGION_LENGTH__+0x7f80e8>
    4ae4:	95 70       	andi	r25, 0x05	; 5
    4ae6:	e1 f3       	breq	.-8      	; 0x4ae0 <_ZL11SendControlh+0x16>
    4ae8:	90 91 e8 00 	lds	r25, 0x00E8	; 0x8000e8 <__TEXT_REGION_LENGTH__+0x7f80e8>
    4aec:	92 fd       	sbrc	r25, 2
    4aee:	19 c0       	rjmp	.+50     	; 0x4b22 <_ZL11SendControlh+0x58>
    4af0:	80 93 f1 00 	sts	0x00F1, r24	; 0x8000f1 <__TEXT_REGION_LENGTH__+0x7f80f1>
    4af4:	80 91 eb 01 	lds	r24, 0x01EB	; 0x8001eb <_ZL6_cmark>
    4af8:	90 91 ec 01 	lds	r25, 0x01EC	; 0x8001ec <_ZL6_cmark+0x1>
    4afc:	01 96       	adiw	r24, 0x01	; 1
    4afe:	8f 73       	andi	r24, 0x3F	; 63
    4b00:	99 27       	eor	r25, r25
    4b02:	89 2b       	or	r24, r25
    4b04:	19 f4       	brne	.+6      	; 0x4b0c <_ZL11SendControlh+0x42>
    4b06:	8e ef       	ldi	r24, 0xFE	; 254
    4b08:	80 93 e8 00 	sts	0x00E8, r24	; 0x8000e8 <__TEXT_REGION_LENGTH__+0x7f80e8>
    4b0c:	80 91 eb 01 	lds	r24, 0x01EB	; 0x8001eb <_ZL6_cmark>
    4b10:	90 91 ec 01 	lds	r25, 0x01EC	; 0x8001ec <_ZL6_cmark+0x1>
    4b14:	01 96       	adiw	r24, 0x01	; 1
    4b16:	90 93 ec 01 	sts	0x01EC, r25	; 0x8001ec <_ZL6_cmark+0x1>
    4b1a:	80 93 eb 01 	sts	0x01EB, r24	; 0x8001eb <_ZL6_cmark>
    4b1e:	81 e0       	ldi	r24, 0x01	; 1
    4b20:	08 95       	ret
    4b22:	80 e0       	ldi	r24, 0x00	; 0
    4b24:	08 95       	ret

00004b26 <_ZL24USB_SendStringDescriptorPKhhh>:
    4b26:	df 92       	push	r13
    4b28:	ef 92       	push	r14
    4b2a:	ff 92       	push	r15
    4b2c:	0f 93       	push	r16
    4b2e:	1f 93       	push	r17
    4b30:	cf 93       	push	r28
    4b32:	df 93       	push	r29
    4b34:	d8 2e       	mov	r13, r24
    4b36:	f9 2e       	mov	r15, r25
    4b38:	e4 2e       	mov	r14, r20
    4b3a:	06 2f       	mov	r16, r22
    4b3c:	10 e0       	ldi	r17, 0x00	; 0
    4b3e:	c8 01       	movw	r24, r16
    4b40:	01 96       	adiw	r24, 0x01	; 1
    4b42:	88 0f       	add	r24, r24
    4b44:	0e 94 65 25 	call	0x4aca	; 0x4aca <_ZL11SendControlh>
    4b48:	83 e0       	ldi	r24, 0x03	; 3
    4b4a:	0e 94 65 25 	call	0x4aca	; 0x4aca <_ZL11SendControlh>
    4b4e:	cd 2d       	mov	r28, r13
    4b50:	df 2d       	mov	r29, r15
    4b52:	0c 0f       	add	r16, r28
    4b54:	1d 1f       	adc	r17, r29
    4b56:	c0 17       	cp	r28, r16
    4b58:	d1 07       	cpc	r29, r17
    4b5a:	89 f0       	breq	.+34     	; 0x4b7e <_ZL24USB_SendStringDescriptorPKhhh+0x58>
    4b5c:	e7 fe       	sbrs	r14, 7
    4b5e:	03 c0       	rjmp	.+6      	; 0x4b66 <_ZL24USB_SendStringDescriptorPKhhh+0x40>
    4b60:	fe 01       	movw	r30, r28
    4b62:	84 91       	lpm	r24, Z
    4b64:	01 c0       	rjmp	.+2      	; 0x4b68 <_ZL24USB_SendStringDescriptorPKhhh+0x42>
    4b66:	88 81       	ld	r24, Y
    4b68:	0e 94 65 25 	call	0x4aca	; 0x4aca <_ZL11SendControlh>
    4b6c:	f8 2e       	mov	r15, r24
    4b6e:	80 e0       	ldi	r24, 0x00	; 0
    4b70:	0e 94 65 25 	call	0x4aca	; 0x4aca <_ZL11SendControlh>
    4b74:	8f 21       	and	r24, r15
    4b76:	21 96       	adiw	r28, 0x01	; 1
    4b78:	81 11       	cpse	r24, r1
    4b7a:	ed cf       	rjmp	.-38     	; 0x4b56 <_ZL24USB_SendStringDescriptorPKhhh+0x30>
    4b7c:	01 c0       	rjmp	.+2      	; 0x4b80 <_ZL24USB_SendStringDescriptorPKhhh+0x5a>
    4b7e:	81 e0       	ldi	r24, 0x01	; 1
    4b80:	df 91       	pop	r29
    4b82:	cf 91       	pop	r28
    4b84:	1f 91       	pop	r17
    4b86:	0f 91       	pop	r16
    4b88:	ff 90       	pop	r15
    4b8a:	ef 90       	pop	r14
    4b8c:	df 90       	pop	r13
    4b8e:	08 95       	ret

00004b90 <_ZL15USB_ClockEnablev>:
    4b90:	80 91 d7 00 	lds	r24, 0x00D7	; 0x8000d7 <__TEXT_REGION_LENGTH__+0x7f80d7>
    4b94:	81 60       	ori	r24, 0x01	; 1
    4b96:	80 93 d7 00 	sts	0x00D7, r24	; 0x8000d7 <__TEXT_REGION_LENGTH__+0x7f80d7>
    4b9a:	80 ea       	ldi	r24, 0xA0	; 160
    4b9c:	80 93 d8 00 	sts	0x00D8, r24	; 0x8000d8 <__TEXT_REGION_LENGTH__+0x7f80d8>
    4ba0:	89 b5       	in	r24, 0x29	; 41
    4ba2:	80 61       	ori	r24, 0x10	; 16
    4ba4:	89 bd       	out	0x29, r24	; 41
    4ba6:	89 b5       	in	r24, 0x29	; 41
    4ba8:	82 60       	ori	r24, 0x02	; 2
    4baa:	89 bd       	out	0x29, r24	; 41
    4bac:	09 b4       	in	r0, 0x29	; 41
    4bae:	00 fe       	sbrs	r0, 0
    4bb0:	fd cf       	rjmp	.-6      	; 0x4bac <_ZL15USB_ClockEnablev+0x1c>
    4bb2:	61 e0       	ldi	r22, 0x01	; 1
    4bb4:	70 e0       	ldi	r23, 0x00	; 0
    4bb6:	80 e0       	ldi	r24, 0x00	; 0
    4bb8:	90 e0       	ldi	r25, 0x00	; 0
    4bba:	0e 94 00 2a 	call	0x5400	; 0x5400 <delay>
    4bbe:	80 91 d8 00 	lds	r24, 0x00D8	; 0x8000d8 <__TEXT_REGION_LENGTH__+0x7f80d8>
    4bc2:	8f 7c       	andi	r24, 0xCF	; 207
    4bc4:	80 61       	ori	r24, 0x10	; 16
    4bc6:	80 93 d8 00 	sts	0x00D8, r24	; 0x8000d8 <__TEXT_REGION_LENGTH__+0x7f80d8>
    4bca:	80 91 e0 00 	lds	r24, 0x00E0	; 0x8000e0 <__TEXT_REGION_LENGTH__+0x7f80e0>
    4bce:	80 7f       	andi	r24, 0xF0	; 240
    4bd0:	80 93 e0 00 	sts	0x00E0, r24	; 0x8000e0 <__TEXT_REGION_LENGTH__+0x7f80e0>
    4bd4:	08 95       	ret

00004bd6 <_ZL14SendInterfacesv>:
    4bd6:	cf 93       	push	r28
    4bd8:	df 93       	push	r29
    4bda:	1f 92       	push	r1
    4bdc:	cd b7       	in	r28, 0x3d	; 61
    4bde:	de b7       	in	r29, 0x3e	; 62
    4be0:	19 82       	std	Y+1, r1	; 0x01
    4be2:	ce 01       	movw	r24, r28
    4be4:	01 96       	adiw	r24, 0x01	; 1
    4be6:	0e 94 73 22 	call	0x44e6	; 0x44e6 <_Z16CDC_GetInterfacePh>
    4bea:	0e 94 65 2d 	call	0x5aca	; 0x5aca <_Z12PluggableUSBv>
    4bee:	be 01       	movw	r22, r28
    4bf0:	6f 5f       	subi	r22, 0xFF	; 255
    4bf2:	7f 4f       	sbci	r23, 0xFF	; 255
    4bf4:	0e 94 e0 2c 	call	0x59c0	; 0x59c0 <_ZN13PluggableUSB_12getInterfaceEPh>
    4bf8:	89 81       	ldd	r24, Y+1	; 0x01
    4bfa:	0f 90       	pop	r0
    4bfc:	df 91       	pop	r29
    4bfe:	cf 91       	pop	r28
    4c00:	08 95       	ret

00004c02 <_ZN6LockEPC1Eh>:
    4c02:	2f b7       	in	r18, 0x3f	; 63
    4c04:	fc 01       	movw	r30, r24
    4c06:	20 83       	st	Z, r18
    4c08:	f8 94       	cli
    4c0a:	67 70       	andi	r22, 0x07	; 7
    4c0c:	60 93 e9 00 	sts	0x00E9, r22	; 0x8000e9 <__TEXT_REGION_LENGTH__+0x7f80e9>
    4c10:	08 95       	ret

00004c12 <_Z13USB_Availableh>:
    4c12:	cf 93       	push	r28
    4c14:	df 93       	push	r29
    4c16:	1f 92       	push	r1
    4c18:	cd b7       	in	r28, 0x3d	; 61
    4c1a:	de b7       	in	r29, 0x3e	; 62
    4c1c:	68 2f       	mov	r22, r24
    4c1e:	ce 01       	movw	r24, r28
    4c20:	01 96       	adiw	r24, 0x01	; 1
    4c22:	0e 94 01 26 	call	0x4c02	; 0x4c02 <_ZN6LockEPC1Eh>
    4c26:	80 91 f2 00 	lds	r24, 0x00F2	; 0x8000f2 <__TEXT_REGION_LENGTH__+0x7f80f2>
    4c2a:	99 81       	ldd	r25, Y+1	; 0x01
    4c2c:	9f bf       	out	0x3f, r25	; 63
    4c2e:	0f 90       	pop	r0
    4c30:	df 91       	pop	r29
    4c32:	cf 91       	pop	r28
    4c34:	08 95       	ret

00004c36 <_Z8USB_RecvhPvi>:
    4c36:	ef 92       	push	r14
    4c38:	ff 92       	push	r15
    4c3a:	0f 93       	push	r16
    4c3c:	1f 93       	push	r17
    4c3e:	cf 93       	push	r28
    4c40:	df 93       	push	r29
    4c42:	1f 92       	push	r1
    4c44:	cd b7       	in	r28, 0x3d	; 61
    4c46:	de b7       	in	r29, 0x3e	; 62
    4c48:	90 91 ef 01 	lds	r25, 0x01EF	; 0x8001ef <_usbConfiguration>
    4c4c:	99 23       	and	r25, r25
    4c4e:	11 f0       	breq	.+4      	; 0x4c54 <_Z8USB_RecvhPvi+0x1e>
    4c50:	57 ff       	sbrs	r21, 7
    4c52:	03 c0       	rjmp	.+6      	; 0x4c5a <_Z8USB_RecvhPvi+0x24>
    4c54:	8f ef       	ldi	r24, 0xFF	; 255
    4c56:	9f ef       	ldi	r25, 0xFF	; 255
    4c58:	29 c0       	rjmp	.+82     	; 0x4cac <_Z8USB_RecvhPvi+0x76>
    4c5a:	8a 01       	movw	r16, r20
    4c5c:	7b 01       	movw	r14, r22
    4c5e:	68 2f       	mov	r22, r24
    4c60:	ce 01       	movw	r24, r28
    4c62:	01 96       	adiw	r24, 0x01	; 1
    4c64:	0e 94 01 26 	call	0x4c02	; 0x4c02 <_ZN6LockEPC1Eh>
    4c68:	20 91 f2 00 	lds	r18, 0x00F2	; 0x8000f2 <__TEXT_REGION_LENGTH__+0x7f80f2>
    4c6c:	30 e0       	ldi	r19, 0x00	; 0
    4c6e:	02 17       	cp	r16, r18
    4c70:	13 07       	cpc	r17, r19
    4c72:	0c f4       	brge	.+2      	; 0x4c76 <_Z8USB_RecvhPvi+0x40>
    4c74:	98 01       	movw	r18, r16
    4c76:	82 2f       	mov	r24, r18
    4c78:	f7 01       	movw	r30, r14
    4c7a:	94 e6       	ldi	r25, 0x64	; 100
    4c7c:	81 50       	subi	r24, 0x01	; 1
    4c7e:	38 f0       	brcs	.+14     	; 0x4c8e <_Z8USB_RecvhPvi+0x58>
    4c80:	28 98       	cbi	0x05, 0	; 5
    4c82:	90 93 f0 01 	sts	0x01F0, r25	; 0x8001f0 <RxLEDPulse>
    4c86:	40 91 f1 00 	lds	r20, 0x00F1	; 0x8000f1 <__TEXT_REGION_LENGTH__+0x7f80f1>
    4c8a:	41 93       	st	Z+, r20
    4c8c:	f7 cf       	rjmp	.-18     	; 0x4c7c <_Z8USB_RecvhPvi+0x46>
    4c8e:	21 15       	cp	r18, r1
    4c90:	31 05       	cpc	r19, r1
    4c92:	21 f0       	breq	.+8      	; 0x4c9c <_Z8USB_RecvhPvi+0x66>
    4c94:	80 91 f2 00 	lds	r24, 0x00F2	; 0x8000f2 <__TEXT_REGION_LENGTH__+0x7f80f2>
    4c98:	88 23       	and	r24, r24
    4c9a:	21 f0       	breq	.+8      	; 0x4ca4 <_Z8USB_RecvhPvi+0x6e>
    4c9c:	89 81       	ldd	r24, Y+1	; 0x01
    4c9e:	8f bf       	out	0x3f, r24	; 63
    4ca0:	c9 01       	movw	r24, r18
    4ca2:	04 c0       	rjmp	.+8      	; 0x4cac <_Z8USB_RecvhPvi+0x76>
    4ca4:	8b e6       	ldi	r24, 0x6B	; 107
    4ca6:	80 93 e8 00 	sts	0x00E8, r24	; 0x8000e8 <__TEXT_REGION_LENGTH__+0x7f80e8>
    4caa:	f8 cf       	rjmp	.-16     	; 0x4c9c <_Z8USB_RecvhPvi+0x66>
    4cac:	0f 90       	pop	r0
    4cae:	df 91       	pop	r29
    4cb0:	cf 91       	pop	r28
    4cb2:	1f 91       	pop	r17
    4cb4:	0f 91       	pop	r16
    4cb6:	ff 90       	pop	r15
    4cb8:	ef 90       	pop	r14
    4cba:	08 95       	ret

00004cbc <_Z8USB_Recvh>:
    4cbc:	cf 93       	push	r28
    4cbe:	df 93       	push	r29
    4cc0:	1f 92       	push	r1
    4cc2:	cd b7       	in	r28, 0x3d	; 61
    4cc4:	de b7       	in	r29, 0x3e	; 62
    4cc6:	41 e0       	ldi	r20, 0x01	; 1
    4cc8:	50 e0       	ldi	r21, 0x00	; 0
    4cca:	be 01       	movw	r22, r28
    4ccc:	6f 5f       	subi	r22, 0xFF	; 255
    4cce:	7f 4f       	sbci	r23, 0xFF	; 255
    4cd0:	0e 94 1b 26 	call	0x4c36	; 0x4c36 <_Z8USB_RecvhPvi>
    4cd4:	01 97       	sbiw	r24, 0x01	; 1
    4cd6:	19 f4       	brne	.+6      	; 0x4cde <_Z8USB_Recvh+0x22>
    4cd8:	89 81       	ldd	r24, Y+1	; 0x01
    4cda:	90 e0       	ldi	r25, 0x00	; 0
    4cdc:	02 c0       	rjmp	.+4      	; 0x4ce2 <_Z8USB_Recvh+0x26>
    4cde:	8f ef       	ldi	r24, 0xFF	; 255
    4ce0:	9f ef       	ldi	r25, 0xFF	; 255
    4ce2:	0f 90       	pop	r0
    4ce4:	df 91       	pop	r29
    4ce6:	cf 91       	pop	r28
    4ce8:	08 95       	ret

00004cea <_Z13USB_SendSpaceh>:
    4cea:	cf 93       	push	r28
    4cec:	df 93       	push	r29
    4cee:	1f 92       	push	r1
    4cf0:	cd b7       	in	r28, 0x3d	; 61
    4cf2:	de b7       	in	r29, 0x3e	; 62
    4cf4:	68 2f       	mov	r22, r24
    4cf6:	ce 01       	movw	r24, r28
    4cf8:	01 96       	adiw	r24, 0x01	; 1
    4cfa:	0e 94 01 26 	call	0x4c02	; 0x4c02 <_ZN6LockEPC1Eh>
    4cfe:	90 91 e8 00 	lds	r25, 0x00E8	; 0x8000e8 <__TEXT_REGION_LENGTH__+0x7f80e8>
    4d02:	89 2f       	mov	r24, r25
    4d04:	80 72       	andi	r24, 0x20	; 32
    4d06:	95 ff       	sbrs	r25, 5
    4d08:	04 c0       	rjmp	.+8      	; 0x4d12 <_Z13USB_SendSpaceh+0x28>
    4d0a:	90 91 f2 00 	lds	r25, 0x00F2	; 0x8000f2 <__TEXT_REGION_LENGTH__+0x7f80f2>
    4d0e:	80 e4       	ldi	r24, 0x40	; 64
    4d10:	89 1b       	sub	r24, r25
    4d12:	99 81       	ldd	r25, Y+1	; 0x01
    4d14:	9f bf       	out	0x3f, r25	; 63
    4d16:	0f 90       	pop	r0
    4d18:	df 91       	pop	r29
    4d1a:	cf 91       	pop	r28
    4d1c:	08 95       	ret

00004d1e <_Z8USB_SendhPKvi>:
    4d1e:	5f 92       	push	r5
    4d20:	6f 92       	push	r6
    4d22:	7f 92       	push	r7
    4d24:	8f 92       	push	r8
    4d26:	9f 92       	push	r9
    4d28:	af 92       	push	r10
    4d2a:	bf 92       	push	r11
    4d2c:	cf 92       	push	r12
    4d2e:	df 92       	push	r13
    4d30:	ef 92       	push	r14
    4d32:	ff 92       	push	r15
    4d34:	0f 93       	push	r16
    4d36:	1f 93       	push	r17
    4d38:	cf 93       	push	r28
    4d3a:	df 93       	push	r29
    4d3c:	1f 92       	push	r1
    4d3e:	cd b7       	in	r28, 0x3d	; 61
    4d40:	de b7       	in	r29, 0x3e	; 62
    4d42:	98 2e       	mov	r9, r24
    4d44:	6b 01       	movw	r12, r22
    4d46:	b4 2e       	mov	r11, r20
    4d48:	05 2f       	mov	r16, r21
    4d4a:	80 91 ef 01 	lds	r24, 0x01EF	; 0x8001ef <_usbConfiguration>
    4d4e:	81 11       	cpse	r24, r1
    4d50:	03 c0       	rjmp	.+6      	; 0x4d58 <_Z8USB_SendhPKvi+0x3a>
    4d52:	8f ef       	ldi	r24, 0xFF	; 255
    4d54:	9f ef       	ldi	r25, 0xFF	; 255
    4d56:	77 c0       	rjmp	.+238    	; 0x4e46 <_Z8USB_SendhPKvi+0x128>
    4d58:	80 91 ed 01 	lds	r24, 0x01ED	; 0x8001ed <_usbSuspendState>
    4d5c:	80 ff       	sbrs	r24, 0
    4d5e:	05 c0       	rjmp	.+10     	; 0x4d6a <_Z8USB_SendhPKvi+0x4c>
    4d60:	80 91 e0 00 	lds	r24, 0x00E0	; 0x8000e0 <__TEXT_REGION_LENGTH__+0x7f80e0>
    4d64:	82 60       	ori	r24, 0x02	; 2
    4d66:	80 93 e0 00 	sts	0x00E0, r24	; 0x8000e0 <__TEXT_REGION_LENGTH__+0x7f80e0>
    4d6a:	eb 2c       	mov	r14, r11
    4d6c:	f0 2e       	mov	r15, r16
    4d6e:	a1 2c       	mov	r10, r1
    4d70:	8a ef       	ldi	r24, 0xFA	; 250
    4d72:	88 2e       	mov	r8, r24
    4d74:	89 2d       	mov	r24, r9
    4d76:	80 72       	andi	r24, 0x20	; 32
    4d78:	68 2e       	mov	r6, r24
    4d7a:	89 2d       	mov	r24, r9
    4d7c:	80 74       	andi	r24, 0x40	; 64
    4d7e:	58 2e       	mov	r5, r24
    4d80:	9a e3       	ldi	r25, 0x3A	; 58
    4d82:	79 2e       	mov	r7, r25
    4d84:	e1 14       	cp	r14, r1
    4d86:	f1 04       	cpc	r15, r1
    4d88:	19 f4       	brne	.+6      	; 0x4d90 <_Z8USB_SendhPKvi+0x72>
    4d8a:	aa 20       	and	r10, r10
    4d8c:	09 f4       	brne	.+2      	; 0x4d90 <_Z8USB_SendhPKvi+0x72>
    4d8e:	55 c0       	rjmp	.+170    	; 0x4e3a <_Z8USB_SendhPKvi+0x11c>
    4d90:	89 2d       	mov	r24, r9
    4d92:	0e 94 75 26 	call	0x4cea	; 0x4cea <_Z13USB_SendSpaceh>
    4d96:	18 2f       	mov	r17, r24
    4d98:	81 11       	cpse	r24, r1
    4d9a:	0a c0       	rjmp	.+20     	; 0x4db0 <_Z8USB_SendhPKvi+0x92>
    4d9c:	8a 94       	dec	r8
    4d9e:	88 20       	and	r8, r8
    4da0:	c1 f2       	breq	.-80     	; 0x4d52 <_Z8USB_SendhPKvi+0x34>
    4da2:	61 e0       	ldi	r22, 0x01	; 1
    4da4:	70 e0       	ldi	r23, 0x00	; 0
    4da6:	80 e0       	ldi	r24, 0x00	; 0
    4da8:	90 e0       	ldi	r25, 0x00	; 0
    4daa:	0e 94 00 2a 	call	0x5400	; 0x5400 <delay>
    4dae:	ea cf       	rjmp	.-44     	; 0x4d84 <_Z8USB_SendhPKvi+0x66>
    4db0:	90 e0       	ldi	r25, 0x00	; 0
    4db2:	e8 16       	cp	r14, r24
    4db4:	f9 06       	cpc	r15, r25
    4db6:	0c f4       	brge	.+2      	; 0x4dba <_Z8USB_SendhPKvi+0x9c>
    4db8:	1e 2d       	mov	r17, r14
    4dba:	69 2d       	mov	r22, r9
    4dbc:	ce 01       	movw	r24, r28
    4dbe:	01 96       	adiw	r24, 0x01	; 1
    4dc0:	0e 94 01 26 	call	0x4c02	; 0x4c02 <_ZN6LockEPC1Eh>
    4dc4:	80 91 e8 00 	lds	r24, 0x00E8	; 0x8000e8 <__TEXT_REGION_LENGTH__+0x7f80e8>
    4dc8:	85 ff       	sbrs	r24, 5
    4dca:	34 c0       	rjmp	.+104    	; 0x4e34 <_Z8USB_SendhPKvi+0x116>
    4dcc:	81 2f       	mov	r24, r17
    4dce:	90 e0       	ldi	r25, 0x00	; 0
    4dd0:	e8 1a       	sub	r14, r24
    4dd2:	f9 0a       	sbc	r15, r25
    4dd4:	66 20       	and	r6, r6
    4dd6:	29 f0       	breq	.+10     	; 0x4de2 <_Z8USB_SendhPKvi+0xc4>
    4dd8:	11 50       	subi	r17, 0x01	; 1
    4dda:	a0 f0       	brcs	.+40     	; 0x4e04 <_Z8USB_SendhPKvi+0xe6>
    4ddc:	10 92 f1 00 	sts	0x00F1, r1	; 0x8000f1 <__TEXT_REGION_LENGTH__+0x7f80f1>
    4de0:	fb cf       	rjmp	.-10     	; 0x4dd8 <_Z8USB_SendhPKvi+0xba>
    4de2:	f6 01       	movw	r30, r12
    4de4:	97 fe       	sbrs	r9, 7
    4de6:	0a c0       	rjmp	.+20     	; 0x4dfc <_Z8USB_SendhPKvi+0xde>
    4de8:	11 50       	subi	r17, 0x01	; 1
    4dea:	50 f0       	brcs	.+20     	; 0x4e00 <_Z8USB_SendhPKvi+0xe2>
    4dec:	24 91       	lpm	r18, Z
    4dee:	20 93 f1 00 	sts	0x00F1, r18	; 0x8000f1 <__TEXT_REGION_LENGTH__+0x7f80f1>
    4df2:	31 96       	adiw	r30, 0x01	; 1
    4df4:	f9 cf       	rjmp	.-14     	; 0x4de8 <_Z8USB_SendhPKvi+0xca>
    4df6:	21 91       	ld	r18, Z+
    4df8:	20 93 f1 00 	sts	0x00F1, r18	; 0x8000f1 <__TEXT_REGION_LENGTH__+0x7f80f1>
    4dfc:	11 50       	subi	r17, 0x01	; 1
    4dfe:	d8 f7       	brcc	.-10     	; 0x4df6 <_Z8USB_SendhPKvi+0xd8>
    4e00:	c8 0e       	add	r12, r24
    4e02:	d9 1e       	adc	r13, r25
    4e04:	aa 20       	and	r10, r10
    4e06:	19 f0       	breq	.+6      	; 0x4e0e <_Z8USB_SendhPKvi+0xf0>
    4e08:	70 92 e8 00 	sts	0x00E8, r7	; 0x8000e8 <__TEXT_REGION_LENGTH__+0x7f80e8>
    4e0c:	0b c0       	rjmp	.+22     	; 0x4e24 <_Z8USB_SendhPKvi+0x106>
    4e0e:	80 91 e8 00 	lds	r24, 0x00E8	; 0x8000e8 <__TEXT_REGION_LENGTH__+0x7f80e8>
    4e12:	85 fd       	sbrc	r24, 5
    4e14:	09 c0       	rjmp	.+18     	; 0x4e28 <_Z8USB_SendhPKvi+0x10a>
    4e16:	70 92 e8 00 	sts	0x00E8, r7	; 0x8000e8 <__TEXT_REGION_LENGTH__+0x7f80e8>
    4e1a:	aa 24       	eor	r10, r10
    4e1c:	a3 94       	inc	r10
    4e1e:	e1 14       	cp	r14, r1
    4e20:	f1 04       	cpc	r15, r1
    4e22:	41 f0       	breq	.+16     	; 0x4e34 <_Z8USB_SendhPKvi+0x116>
    4e24:	a1 2c       	mov	r10, r1
    4e26:	06 c0       	rjmp	.+12     	; 0x4e34 <_Z8USB_SendhPKvi+0x116>
    4e28:	e1 14       	cp	r14, r1
    4e2a:	f1 04       	cpc	r15, r1
    4e2c:	19 f4       	brne	.+6      	; 0x4e34 <_Z8USB_SendhPKvi+0x116>
    4e2e:	51 10       	cpse	r5, r1
    4e30:	70 92 e8 00 	sts	0x00E8, r7	; 0x8000e8 <__TEXT_REGION_LENGTH__+0x7f80e8>
    4e34:	89 81       	ldd	r24, Y+1	; 0x01
    4e36:	8f bf       	out	0x3f, r24	; 63
    4e38:	a5 cf       	rjmp	.-182    	; 0x4d84 <_Z8USB_SendhPKvi+0x66>
    4e3a:	5d 98       	cbi	0x0b, 5	; 11
    4e3c:	84 e6       	ldi	r24, 0x64	; 100
    4e3e:	80 93 f1 01 	sts	0x01F1, r24	; 0x8001f1 <TxLEDPulse>
    4e42:	8b 2d       	mov	r24, r11
    4e44:	90 2f       	mov	r25, r16
    4e46:	0f 90       	pop	r0
    4e48:	df 91       	pop	r29
    4e4a:	cf 91       	pop	r28
    4e4c:	1f 91       	pop	r17
    4e4e:	0f 91       	pop	r16
    4e50:	ff 90       	pop	r15
    4e52:	ef 90       	pop	r14
    4e54:	df 90       	pop	r13
    4e56:	cf 90       	pop	r12
    4e58:	bf 90       	pop	r11
    4e5a:	af 90       	pop	r10
    4e5c:	9f 90       	pop	r9
    4e5e:	8f 90       	pop	r8
    4e60:	7f 90       	pop	r7
    4e62:	6f 90       	pop	r6
    4e64:	5f 90       	pop	r5
    4e66:	08 95       	ret

00004e68 <_Z11InitControli>:
    4e68:	10 92 e9 00 	sts	0x00E9, r1	; 0x8000e9 <__TEXT_REGION_LENGTH__+0x7f80e9>
    4e6c:	10 92 ec 01 	sts	0x01EC, r1	; 0x8001ec <_ZL6_cmark+0x1>
    4e70:	10 92 eb 01 	sts	0x01EB, r1	; 0x8001eb <_ZL6_cmark>
    4e74:	90 93 ea 01 	sts	0x01EA, r25	; 0x8001ea <_ZL5_cend+0x1>
    4e78:	80 93 e9 01 	sts	0x01E9, r24	; 0x8001e9 <_ZL5_cend>
    4e7c:	08 95       	ret

00004e7e <_Z15USB_SendControlhPKvi>:
    4e7e:	df 92       	push	r13
    4e80:	ef 92       	push	r14
    4e82:	ff 92       	push	r15
    4e84:	0f 93       	push	r16
    4e86:	1f 93       	push	r17
    4e88:	cf 93       	push	r28
    4e8a:	df 93       	push	r29
    4e8c:	d8 2e       	mov	r13, r24
    4e8e:	8a 01       	movw	r16, r20
    4e90:	7b 01       	movw	r14, r22
    4e92:	e4 0e       	add	r14, r20
    4e94:	f5 1e       	adc	r15, r21
    4e96:	eb 01       	movw	r28, r22
    4e98:	ce 15       	cp	r28, r14
    4e9a:	df 05       	cpc	r29, r15
    4e9c:	71 f0       	breq	.+28     	; 0x4eba <_Z15USB_SendControlhPKvi+0x3c>
    4e9e:	d7 fe       	sbrs	r13, 7
    4ea0:	03 c0       	rjmp	.+6      	; 0x4ea8 <_Z15USB_SendControlhPKvi+0x2a>
    4ea2:	fe 01       	movw	r30, r28
    4ea4:	84 91       	lpm	r24, Z
    4ea6:	01 c0       	rjmp	.+2      	; 0x4eaa <_Z15USB_SendControlhPKvi+0x2c>
    4ea8:	88 81       	ld	r24, Y
    4eaa:	0e 94 65 25 	call	0x4aca	; 0x4aca <_ZL11SendControlh>
    4eae:	21 96       	adiw	r28, 0x01	; 1
    4eb0:	81 11       	cpse	r24, r1
    4eb2:	f2 cf       	rjmp	.-28     	; 0x4e98 <_Z15USB_SendControlhPKvi+0x1a>
    4eb4:	8f ef       	ldi	r24, 0xFF	; 255
    4eb6:	9f ef       	ldi	r25, 0xFF	; 255
    4eb8:	01 c0       	rjmp	.+2      	; 0x4ebc <_Z15USB_SendControlhPKvi+0x3e>
    4eba:	c8 01       	movw	r24, r16
    4ebc:	df 91       	pop	r29
    4ebe:	cf 91       	pop	r28
    4ec0:	1f 91       	pop	r17
    4ec2:	0f 91       	pop	r16
    4ec4:	ff 90       	pop	r15
    4ec6:	ef 90       	pop	r14
    4ec8:	df 90       	pop	r13
    4eca:	08 95       	ret

00004ecc <_Z15USB_RecvControlPvi>:
    4ecc:	af 92       	push	r10
    4ece:	bf 92       	push	r11
    4ed0:	df 92       	push	r13
    4ed2:	ef 92       	push	r14
    4ed4:	ff 92       	push	r15
    4ed6:	0f 93       	push	r16
    4ed8:	1f 93       	push	r17
    4eda:	cf 93       	push	r28
    4edc:	df 93       	push	r29
    4ede:	5c 01       	movw	r10, r24
    4ee0:	8b 01       	movw	r16, r22
    4ee2:	eb 01       	movw	r28, r22
    4ee4:	9b ef       	ldi	r25, 0xFB	; 251
    4ee6:	d9 2e       	mov	r13, r25
    4ee8:	20 97       	sbiw	r28, 0x00	; 0
    4eea:	c1 f0       	breq	.+48     	; 0x4f1c <_Z15USB_RecvControlPvi+0x50>
    4eec:	7e 01       	movw	r14, r28
    4eee:	c1 34       	cpi	r28, 0x41	; 65
    4ef0:	d1 05       	cpc	r29, r1
    4ef2:	1c f0       	brlt	.+6      	; 0x4efa <_Z15USB_RecvControlPvi+0x2e>
    4ef4:	80 e4       	ldi	r24, 0x40	; 64
    4ef6:	e8 2e       	mov	r14, r24
    4ef8:	f1 2c       	mov	r15, r1
    4efa:	80 91 e8 00 	lds	r24, 0x00E8	; 0x8000e8 <__TEXT_REGION_LENGTH__+0x7f80e8>
    4efe:	82 ff       	sbrs	r24, 2
    4f00:	fc cf       	rjmp	.-8      	; 0x4efa <_Z15USB_RecvControlPvi+0x2e>
    4f02:	c8 01       	movw	r24, r16
    4f04:	8c 1b       	sub	r24, r28
    4f06:	9d 0b       	sbc	r25, r29
    4f08:	6e 2d       	mov	r22, r14
    4f0a:	8a 0d       	add	r24, r10
    4f0c:	9b 1d       	adc	r25, r11
    4f0e:	0e 94 58 25 	call	0x4ab0	; 0x4ab0 <_ZL4RecvPVhh>
    4f12:	d0 92 e8 00 	sts	0x00E8, r13	; 0x8000e8 <__TEXT_REGION_LENGTH__+0x7f80e8>
    4f16:	ce 19       	sub	r28, r14
    4f18:	df 09       	sbc	r29, r15
    4f1a:	e6 cf       	rjmp	.-52     	; 0x4ee8 <_Z15USB_RecvControlPvi+0x1c>
    4f1c:	c8 01       	movw	r24, r16
    4f1e:	df 91       	pop	r29
    4f20:	cf 91       	pop	r28
    4f22:	1f 91       	pop	r17
    4f24:	0f 91       	pop	r16
    4f26:	ff 90       	pop	r15
    4f28:	ef 90       	pop	r14
    4f2a:	df 90       	pop	r13
    4f2c:	bf 90       	pop	r11
    4f2e:	af 90       	pop	r10
    4f30:	08 95       	ret

00004f32 <__vector_11>:
    4f32:	1f 92       	push	r1
    4f34:	0f 92       	push	r0
    4f36:	0f b6       	in	r0, 0x3f	; 63
    4f38:	0f 92       	push	r0
    4f3a:	11 24       	eor	r1, r1
    4f3c:	cf 92       	push	r12
    4f3e:	df 92       	push	r13
    4f40:	ef 92       	push	r14
    4f42:	ff 92       	push	r15
    4f44:	0f 93       	push	r16
    4f46:	1f 93       	push	r17
    4f48:	2f 93       	push	r18
    4f4a:	3f 93       	push	r19
    4f4c:	4f 93       	push	r20
    4f4e:	5f 93       	push	r21
    4f50:	6f 93       	push	r22
    4f52:	7f 93       	push	r23
    4f54:	8f 93       	push	r24
    4f56:	9f 93       	push	r25
    4f58:	af 93       	push	r26
    4f5a:	bf 93       	push	r27
    4f5c:	ef 93       	push	r30
    4f5e:	ff 93       	push	r31
    4f60:	cf 93       	push	r28
    4f62:	df 93       	push	r29
    4f64:	cd b7       	in	r28, 0x3d	; 61
    4f66:	de b7       	in	r29, 0x3e	; 62
    4f68:	6c 97       	sbiw	r28, 0x1c	; 28
    4f6a:	de bf       	out	0x3e, r29	; 62
    4f6c:	cd bf       	out	0x3d, r28	; 61
    4f6e:	10 92 e9 00 	sts	0x00E9, r1	; 0x8000e9 <__TEXT_REGION_LENGTH__+0x7f80e9>
    4f72:	80 91 e8 00 	lds	r24, 0x00E8	; 0x8000e8 <__TEXT_REGION_LENGTH__+0x7f80e8>
    4f76:	83 ff       	sbrs	r24, 3
    4f78:	17 c1       	rjmp	.+558    	; 0x51a8 <__vector_11+0x276>
    4f7a:	68 e0       	ldi	r22, 0x08	; 8
    4f7c:	ce 01       	movw	r24, r28
    4f7e:	45 96       	adiw	r24, 0x15	; 21
    4f80:	0e 94 58 25 	call	0x4ab0	; 0x4ab0 <_ZL4RecvPVhh>
    4f84:	82 ef       	ldi	r24, 0xF2	; 242
    4f86:	80 93 e8 00 	sts	0x00E8, r24	; 0x8000e8 <__TEXT_REGION_LENGTH__+0x7f80e8>
    4f8a:	8d 89       	ldd	r24, Y+21	; 0x15
    4f8c:	87 ff       	sbrs	r24, 7
    4f8e:	05 c0       	rjmp	.+10     	; 0x4f9a <__vector_11+0x68>
    4f90:	90 91 e8 00 	lds	r25, 0x00E8	; 0x8000e8 <__TEXT_REGION_LENGTH__+0x7f80e8>
    4f94:	90 ff       	sbrs	r25, 0
    4f96:	fc cf       	rjmp	.-8      	; 0x4f90 <__vector_11+0x5e>
    4f98:	03 c0       	rjmp	.+6      	; 0x4fa0 <__vector_11+0x6e>
    4f9a:	9e ef       	ldi	r25, 0xFE	; 254
    4f9c:	90 93 e8 00 	sts	0x00E8, r25	; 0x8000e8 <__TEXT_REGION_LENGTH__+0x7f80e8>
    4fa0:	98 2f       	mov	r25, r24
    4fa2:	90 76       	andi	r25, 0x60	; 96
    4fa4:	09 f0       	breq	.+2      	; 0x4fa8 <__vector_11+0x76>
    4fa6:	d8 c0       	rjmp	.+432    	; 0x5158 <__vector_11+0x226>
    4fa8:	9e 89       	ldd	r25, Y+22	; 0x16
    4faa:	4f 89       	ldd	r20, Y+23	; 0x17
    4fac:	58 8d       	ldd	r21, Y+24	; 0x18
    4fae:	2f 89       	ldd	r18, Y+23	; 0x17
    4fb0:	18 8d       	ldd	r17, Y+24	; 0x18
    4fb2:	91 11       	cpse	r25, r1
    4fb4:	0c c0       	rjmp	.+24     	; 0x4fce <__vector_11+0x9c>
    4fb6:	80 38       	cpi	r24, 0x80	; 128
    4fb8:	29 f4       	brne	.+10     	; 0x4fc4 <__vector_11+0x92>
    4fba:	80 91 ee 01 	lds	r24, 0x01EE	; 0x8001ee <_usbCurrentStatus>
    4fbe:	80 93 f1 00 	sts	0x00F1, r24	; 0x8000f1 <__TEXT_REGION_LENGTH__+0x7f80f1>
    4fc2:	02 c0       	rjmp	.+4      	; 0x4fc8 <__vector_11+0x96>
    4fc4:	10 92 f1 00 	sts	0x00F1, r1	; 0x8000f1 <__TEXT_REGION_LENGTH__+0x7f80f1>
    4fc8:	10 92 f1 00 	sts	0x00F1, r1	; 0x8000f1 <__TEXT_REGION_LENGTH__+0x7f80f1>
    4fcc:	e6 c0       	rjmp	.+460    	; 0x519a <__vector_11+0x268>
    4fce:	91 30       	cpi	r25, 0x01	; 1
    4fd0:	51 f4       	brne	.+20     	; 0x4fe6 <__vector_11+0xb4>
    4fd2:	81 11       	cpse	r24, r1
    4fd4:	e2 c0       	rjmp	.+452    	; 0x519a <__vector_11+0x268>
    4fd6:	41 30       	cpi	r20, 0x01	; 1
    4fd8:	51 05       	cpc	r21, r1
    4fda:	09 f0       	breq	.+2      	; 0x4fde <__vector_11+0xac>
    4fdc:	de c0       	rjmp	.+444    	; 0x519a <__vector_11+0x268>
    4fde:	80 91 ee 01 	lds	r24, 0x01EE	; 0x8001ee <_usbCurrentStatus>
    4fe2:	8d 7f       	andi	r24, 0xFD	; 253
    4fe4:	0b c0       	rjmp	.+22     	; 0x4ffc <__vector_11+0xca>
    4fe6:	93 30       	cpi	r25, 0x03	; 3
    4fe8:	61 f4       	brne	.+24     	; 0x5002 <__vector_11+0xd0>
    4fea:	81 11       	cpse	r24, r1
    4fec:	d6 c0       	rjmp	.+428    	; 0x519a <__vector_11+0x268>
    4fee:	41 30       	cpi	r20, 0x01	; 1
    4ff0:	51 05       	cpc	r21, r1
    4ff2:	09 f0       	breq	.+2      	; 0x4ff6 <__vector_11+0xc4>
    4ff4:	d2 c0       	rjmp	.+420    	; 0x519a <__vector_11+0x268>
    4ff6:	80 91 ee 01 	lds	r24, 0x01EE	; 0x8001ee <_usbCurrentStatus>
    4ffa:	82 60       	ori	r24, 0x02	; 2
    4ffc:	80 93 ee 01 	sts	0x01EE, r24	; 0x8001ee <_usbCurrentStatus>
    5000:	cc c0       	rjmp	.+408    	; 0x519a <__vector_11+0x268>
    5002:	95 30       	cpi	r25, 0x05	; 5
    5004:	49 f4       	brne	.+18     	; 0x5018 <__vector_11+0xe6>
    5006:	80 91 e8 00 	lds	r24, 0x00E8	; 0x8000e8 <__TEXT_REGION_LENGTH__+0x7f80e8>
    500a:	80 ff       	sbrs	r24, 0
    500c:	fc cf       	rjmp	.-8      	; 0x5006 <__vector_11+0xd4>
    500e:	82 2f       	mov	r24, r18
    5010:	80 68       	ori	r24, 0x80	; 128
    5012:	80 93 e3 00 	sts	0x00E3, r24	; 0x8000e3 <__TEXT_REGION_LENGTH__+0x7f80e3>
    5016:	c1 c0       	rjmp	.+386    	; 0x519a <__vector_11+0x268>
    5018:	96 30       	cpi	r25, 0x06	; 6
    501a:	09 f0       	breq	.+2      	; 0x501e <__vector_11+0xec>
    501c:	70 c0       	rjmp	.+224    	; 0x50fe <__vector_11+0x1cc>
    501e:	eb 8c       	ldd	r14, Y+27	; 0x1b
    5020:	fc 8c       	ldd	r15, Y+28	; 0x1c
    5022:	12 30       	cpi	r17, 0x02	; 2
    5024:	69 f5       	brne	.+90     	; 0x5080 <__vector_11+0x14e>
    5026:	80 e0       	ldi	r24, 0x00	; 0
    5028:	90 e0       	ldi	r25, 0x00	; 0
    502a:	0e 94 34 27 	call	0x4e68	; 0x4e68 <_Z11InitControli>
    502e:	0e 94 eb 25 	call	0x4bd6	; 0x4bd6 <_ZL14SendInterfacesv>
    5032:	99 e0       	ldi	r25, 0x09	; 9
    5034:	9e 01       	movw	r18, r28
    5036:	2f 5f       	subi	r18, 0xFF	; 255
    5038:	3f 4f       	sbci	r19, 0xFF	; 255
    503a:	69 01       	movw	r12, r18
    503c:	f9 01       	movw	r30, r18
    503e:	29 2f       	mov	r18, r25
    5040:	11 92       	st	Z+, r1
    5042:	2a 95       	dec	r18
    5044:	e9 f7       	brne	.-6      	; 0x5040 <__vector_11+0x10e>
    5046:	99 83       	std	Y+1, r25	; 0x01
    5048:	1a 83       	std	Y+2, r17	; 0x02
    504a:	91 e0       	ldi	r25, 0x01	; 1
    504c:	9e 83       	std	Y+6, r25	; 0x06
    504e:	90 ea       	ldi	r25, 0xA0	; 160
    5050:	98 87       	std	Y+8, r25	; 0x08
    5052:	9a ef       	ldi	r25, 0xFA	; 250
    5054:	99 87       	std	Y+9, r25	; 0x09
    5056:	20 91 eb 01 	lds	r18, 0x01EB	; 0x8001eb <_ZL6_cmark>
    505a:	30 91 ec 01 	lds	r19, 0x01EC	; 0x8001ec <_ZL6_cmark+0x1>
    505e:	27 5f       	subi	r18, 0xF7	; 247
    5060:	3f 4f       	sbci	r19, 0xFF	; 255
    5062:	3c 83       	std	Y+4, r19	; 0x04
    5064:	2b 83       	std	Y+3, r18	; 0x03
    5066:	8d 83       	std	Y+5, r24	; 0x05
    5068:	c7 01       	movw	r24, r14
    506a:	0e 94 34 27 	call	0x4e68	; 0x4e68 <_Z11InitControli>
    506e:	49 e0       	ldi	r20, 0x09	; 9
    5070:	50 e0       	ldi	r21, 0x00	; 0
    5072:	b6 01       	movw	r22, r12
    5074:	80 e0       	ldi	r24, 0x00	; 0
    5076:	0e 94 3f 27 	call	0x4e7e	; 0x4e7e <_Z15USB_SendControlhPKvi>
    507a:	0e 94 eb 25 	call	0x4bd6	; 0x4bd6 <_ZL14SendInterfacesv>
    507e:	8d c0       	rjmp	.+282    	; 0x519a <__vector_11+0x268>
    5080:	c7 01       	movw	r24, r14
    5082:	0e 94 34 27 	call	0x4e68	; 0x4e68 <_Z11InitControli>
    5086:	0e 94 65 2d 	call	0x5aca	; 0x5aca <_Z12PluggableUSBv>
    508a:	be 01       	movw	r22, r28
    508c:	6b 5e       	subi	r22, 0xEB	; 235
    508e:	7f 4f       	sbci	r23, 0xFF	; 255
    5090:	0e 94 09 2d 	call	0x5a12	; 0x5a12 <_ZN13PluggableUSB_13getDescriptorER8USBSetup>
    5094:	00 97       	sbiw	r24, 0x00	; 0
    5096:	19 f0       	breq	.+6      	; 0x509e <__vector_11+0x16c>
    5098:	0c f0       	brlt	.+2      	; 0x509c <__vector_11+0x16a>
    509a:	7f c0       	rjmp	.+254    	; 0x519a <__vector_11+0x268>
    509c:	82 c0       	rjmp	.+260    	; 0x51a2 <__vector_11+0x270>
    509e:	11 30       	cpi	r17, 0x01	; 1
    50a0:	09 f4       	brne	.+2      	; 0x50a4 <__vector_11+0x172>
    50a2:	70 c0       	rjmp	.+224    	; 0x5184 <__vector_11+0x252>
    50a4:	13 30       	cpi	r17, 0x03	; 3
    50a6:	09 f0       	breq	.+2      	; 0x50aa <__vector_11+0x178>
    50a8:	7c c0       	rjmp	.+248    	; 0x51a2 <__vector_11+0x270>
    50aa:	8f 89       	ldd	r24, Y+23	; 0x17
    50ac:	88 23       	and	r24, r24
    50ae:	09 f4       	brne	.+2      	; 0x50b2 <__vector_11+0x180>
    50b0:	6c c0       	rjmp	.+216    	; 0x518a <__vector_11+0x258>
    50b2:	82 30       	cpi	r24, 0x02	; 2
    50b4:	29 f4       	brne	.+10     	; 0x50c0 <__vector_11+0x18e>
    50b6:	40 e8       	ldi	r20, 0x80	; 128
    50b8:	60 e1       	ldi	r22, 0x10	; 16
    50ba:	83 ed       	ldi	r24, 0xD3	; 211
    50bc:	92 e0       	ldi	r25, 0x02	; 2
    50be:	06 c0       	rjmp	.+12     	; 0x50cc <__vector_11+0x19a>
    50c0:	81 30       	cpi	r24, 0x01	; 1
    50c2:	39 f4       	brne	.+14     	; 0x50d2 <__vector_11+0x1a0>
    50c4:	40 e8       	ldi	r20, 0x80	; 128
    50c6:	6b e0       	ldi	r22, 0x0B	; 11
    50c8:	87 ec       	ldi	r24, 0xC7	; 199
    50ca:	92 e0       	ldi	r25, 0x02	; 2
    50cc:	0e 94 93 25 	call	0x4b26	; 0x4b26 <_ZL24USB_SendStringDescriptorPKhhh>
    50d0:	56 c0       	rjmp	.+172    	; 0x517e <__vector_11+0x24c>
    50d2:	83 30       	cpi	r24, 0x03	; 3
    50d4:	09 f0       	breq	.+2      	; 0x50d8 <__vector_11+0x1a6>
    50d6:	65 c0       	rjmp	.+202    	; 0x51a2 <__vector_11+0x270>
    50d8:	0e 94 65 2d 	call	0x5aca	; 0x5aca <_Z12PluggableUSBv>
    50dc:	8e 01       	movw	r16, r28
    50de:	0f 5f       	subi	r16, 0xFF	; 255
    50e0:	1f 4f       	sbci	r17, 0xFF	; 255
    50e2:	b8 01       	movw	r22, r16
    50e4:	0e 94 28 2d 	call	0x5a50	; 0x5a50 <_ZN13PluggableUSB_12getShortNameEPc>
    50e8:	f8 01       	movw	r30, r16
    50ea:	01 90       	ld	r0, Z+
    50ec:	00 20       	and	r0, r0
    50ee:	e9 f7       	brne	.-6      	; 0x50ea <__vector_11+0x1b8>
    50f0:	31 97       	sbiw	r30, 0x01	; 1
    50f2:	bf 01       	movw	r22, r30
    50f4:	60 1b       	sub	r22, r16
    50f6:	71 0b       	sbc	r23, r17
    50f8:	40 e0       	ldi	r20, 0x00	; 0
    50fa:	c8 01       	movw	r24, r16
    50fc:	e7 cf       	rjmp	.-50     	; 0x50cc <__vector_11+0x19a>
    50fe:	97 30       	cpi	r25, 0x07	; 7
    5100:	09 f4       	brne	.+2      	; 0x5104 <__vector_11+0x1d2>
    5102:	4f c0       	rjmp	.+158    	; 0x51a2 <__vector_11+0x270>
    5104:	98 30       	cpi	r25, 0x08	; 8
    5106:	21 f4       	brne	.+8      	; 0x5110 <__vector_11+0x1de>
    5108:	81 e0       	ldi	r24, 0x01	; 1
    510a:	80 93 f1 00 	sts	0x00F1, r24	; 0x8000f1 <__TEXT_REGION_LENGTH__+0x7f80f1>
    510e:	45 c0       	rjmp	.+138    	; 0x519a <__vector_11+0x268>
    5110:	99 30       	cpi	r25, 0x09	; 9
    5112:	09 f0       	breq	.+2      	; 0x5116 <__vector_11+0x1e4>
    5114:	42 c0       	rjmp	.+132    	; 0x519a <__vector_11+0x268>
    5116:	83 70       	andi	r24, 0x03	; 3
    5118:	09 f0       	breq	.+2      	; 0x511c <__vector_11+0x1ea>
    511a:	43 c0       	rjmp	.+134    	; 0x51a2 <__vector_11+0x270>
    511c:	e4 e1       	ldi	r30, 0x14	; 20
    511e:	f1 e0       	ldi	r31, 0x01	; 1
    5120:	81 e0       	ldi	r24, 0x01	; 1
    5122:	31 e0       	ldi	r19, 0x01	; 1
    5124:	96 e3       	ldi	r25, 0x36	; 54
    5126:	20 81       	ld	r18, Z
    5128:	21 11       	cpse	r18, r1
    512a:	09 c0       	rjmp	.+18     	; 0x513e <__vector_11+0x20c>
    512c:	8e e7       	ldi	r24, 0x7E	; 126
    512e:	80 93 ea 00 	sts	0x00EA, r24	; 0x8000ea <__TEXT_REGION_LENGTH__+0x7f80ea>
    5132:	10 92 ea 00 	sts	0x00EA, r1	; 0x8000ea <__TEXT_REGION_LENGTH__+0x7f80ea>
    5136:	8f 89       	ldd	r24, Y+23	; 0x17
    5138:	80 93 ef 01 	sts	0x01EF, r24	; 0x8001ef <_usbConfiguration>
    513c:	2e c0       	rjmp	.+92     	; 0x519a <__vector_11+0x268>
    513e:	80 93 e9 00 	sts	0x00E9, r24	; 0x8000e9 <__TEXT_REGION_LENGTH__+0x7f80e9>
    5142:	30 93 eb 00 	sts	0x00EB, r19	; 0x8000eb <__TEXT_REGION_LENGTH__+0x7f80eb>
    5146:	21 91       	ld	r18, Z+
    5148:	20 93 ec 00 	sts	0x00EC, r18	; 0x8000ec <__TEXT_REGION_LENGTH__+0x7f80ec>
    514c:	90 93 ed 00 	sts	0x00ED, r25	; 0x8000ed <__TEXT_REGION_LENGTH__+0x7f80ed>
    5150:	8f 5f       	subi	r24, 0xFF	; 255
    5152:	87 30       	cpi	r24, 0x07	; 7
    5154:	41 f7       	brne	.-48     	; 0x5126 <__vector_11+0x1f4>
    5156:	ea cf       	rjmp	.-44     	; 0x512c <__vector_11+0x1fa>
    5158:	8b 8d       	ldd	r24, Y+27	; 0x1b
    515a:	9c 8d       	ldd	r25, Y+28	; 0x1c
    515c:	0e 94 34 27 	call	0x4e68	; 0x4e68 <_Z11InitControli>
    5160:	89 8d       	ldd	r24, Y+25	; 0x19
    5162:	81 11       	cpse	r24, r1
    5164:	05 c0       	rjmp	.+10     	; 0x5170 <__vector_11+0x23e>
    5166:	ce 01       	movw	r24, r28
    5168:	45 96       	adiw	r24, 0x15	; 21
    516a:	0e 94 7e 22 	call	0x44fc	; 0x44fc <_Z9CDC_SetupR8USBSetup>
    516e:	07 c0       	rjmp	.+14     	; 0x517e <__vector_11+0x24c>
    5170:	0e 94 65 2d 	call	0x5aca	; 0x5aca <_Z12PluggableUSBv>
    5174:	be 01       	movw	r22, r28
    5176:	6b 5e       	subi	r22, 0xEB	; 235
    5178:	7f 4f       	sbci	r23, 0xFF	; 255
    517a:	0e 94 47 2d 	call	0x5a8e	; 0x5a8e <_ZN13PluggableUSB_5setupER8USBSetup>
    517e:	88 23       	and	r24, r24
    5180:	81 f0       	breq	.+32     	; 0x51a2 <__vector_11+0x270>
    5182:	0b c0       	rjmp	.+22     	; 0x519a <__vector_11+0x268>
    5184:	65 eb       	ldi	r22, 0xB5	; 181
    5186:	72 e0       	ldi	r23, 0x02	; 2
    5188:	02 c0       	rjmp	.+4      	; 0x518e <__vector_11+0x25c>
    518a:	64 ee       	ldi	r22, 0xE4	; 228
    518c:	72 e0       	ldi	r23, 0x02	; 2
    518e:	fb 01       	movw	r30, r22
    5190:	44 91       	lpm	r20, Z
    5192:	50 e0       	ldi	r21, 0x00	; 0
    5194:	80 e8       	ldi	r24, 0x80	; 128
    5196:	0e 94 3f 27 	call	0x4e7e	; 0x4e7e <_Z15USB_SendControlhPKvi>
    519a:	8e ef       	ldi	r24, 0xFE	; 254
    519c:	80 93 e8 00 	sts	0x00E8, r24	; 0x8000e8 <__TEXT_REGION_LENGTH__+0x7f80e8>
    51a0:	03 c0       	rjmp	.+6      	; 0x51a8 <__vector_11+0x276>
    51a2:	81 e2       	ldi	r24, 0x21	; 33
    51a4:	80 93 eb 00 	sts	0x00EB, r24	; 0x8000eb <__TEXT_REGION_LENGTH__+0x7f80eb>
    51a8:	6c 96       	adiw	r28, 0x1c	; 28
    51aa:	0f b6       	in	r0, 0x3f	; 63
    51ac:	f8 94       	cli
    51ae:	de bf       	out	0x3e, r29	; 62
    51b0:	0f be       	out	0x3f, r0	; 63
    51b2:	cd bf       	out	0x3d, r28	; 61
    51b4:	df 91       	pop	r29
    51b6:	cf 91       	pop	r28
    51b8:	ff 91       	pop	r31
    51ba:	ef 91       	pop	r30
    51bc:	bf 91       	pop	r27
    51be:	af 91       	pop	r26
    51c0:	9f 91       	pop	r25
    51c2:	8f 91       	pop	r24
    51c4:	7f 91       	pop	r23
    51c6:	6f 91       	pop	r22
    51c8:	5f 91       	pop	r21
    51ca:	4f 91       	pop	r20
    51cc:	3f 91       	pop	r19
    51ce:	2f 91       	pop	r18
    51d0:	1f 91       	pop	r17
    51d2:	0f 91       	pop	r16
    51d4:	ff 90       	pop	r15
    51d6:	ef 90       	pop	r14
    51d8:	df 90       	pop	r13
    51da:	cf 90       	pop	r12
    51dc:	0f 90       	pop	r0
    51de:	0f be       	out	0x3f, r0	; 63
    51e0:	0f 90       	pop	r0
    51e2:	1f 90       	pop	r1
    51e4:	18 95       	reti

000051e6 <_Z9USB_Flushh>:
    51e6:	80 93 e9 00 	sts	0x00E9, r24	; 0x8000e9 <__TEXT_REGION_LENGTH__+0x7f80e9>
    51ea:	80 91 f2 00 	lds	r24, 0x00F2	; 0x8000f2 <__TEXT_REGION_LENGTH__+0x7f80f2>
    51ee:	88 23       	and	r24, r24
    51f0:	19 f0       	breq	.+6      	; 0x51f8 <_Z9USB_Flushh+0x12>
    51f2:	8a e3       	ldi	r24, 0x3A	; 58
    51f4:	80 93 e8 00 	sts	0x00E8, r24	; 0x8000e8 <__TEXT_REGION_LENGTH__+0x7f80e8>
    51f8:	08 95       	ret

000051fa <__vector_10>:
    51fa:	1f 92       	push	r1
    51fc:	0f 92       	push	r0
    51fe:	0f b6       	in	r0, 0x3f	; 63
    5200:	0f 92       	push	r0
    5202:	11 24       	eor	r1, r1
    5204:	2f 93       	push	r18
    5206:	3f 93       	push	r19
    5208:	4f 93       	push	r20
    520a:	5f 93       	push	r21
    520c:	6f 93       	push	r22
    520e:	7f 93       	push	r23
    5210:	8f 93       	push	r24
    5212:	9f 93       	push	r25
    5214:	af 93       	push	r26
    5216:	bf 93       	push	r27
    5218:	cf 93       	push	r28
    521a:	ef 93       	push	r30
    521c:	ff 93       	push	r31
    521e:	c0 91 e1 00 	lds	r28, 0x00E1	; 0x8000e1 <__TEXT_REGION_LENGTH__+0x7f80e1>
    5222:	80 91 e1 00 	lds	r24, 0x00E1	; 0x8000e1 <__TEXT_REGION_LENGTH__+0x7f80e1>
    5226:	83 7f       	andi	r24, 0xF3	; 243
    5228:	80 93 e1 00 	sts	0x00E1, r24	; 0x8000e1 <__TEXT_REGION_LENGTH__+0x7f80e1>
    522c:	c3 ff       	sbrs	r28, 3
    522e:	0f c0       	rjmp	.+30     	; 0x524e <__vector_10+0x54>
    5230:	10 92 e9 00 	sts	0x00E9, r1	; 0x8000e9 <__TEXT_REGION_LENGTH__+0x7f80e9>
    5234:	81 e0       	ldi	r24, 0x01	; 1
    5236:	80 93 eb 00 	sts	0x00EB, r24	; 0x8000eb <__TEXT_REGION_LENGTH__+0x7f80eb>
    523a:	10 92 ec 00 	sts	0x00EC, r1	; 0x8000ec <__TEXT_REGION_LENGTH__+0x7f80ec>
    523e:	82 e3       	ldi	r24, 0x32	; 50
    5240:	80 93 ed 00 	sts	0x00ED, r24	; 0x8000ed <__TEXT_REGION_LENGTH__+0x7f80ed>
    5244:	10 92 ef 01 	sts	0x01EF, r1	; 0x8001ef <_usbConfiguration>
    5248:	88 e0       	ldi	r24, 0x08	; 8
    524a:	80 93 f0 00 	sts	0x00F0, r24	; 0x8000f0 <__TEXT_REGION_LENGTH__+0x7f80f0>
    524e:	c2 ff       	sbrs	r28, 2
    5250:	19 c0       	rjmp	.+50     	; 0x5284 <__vector_10+0x8a>
    5252:	83 e0       	ldi	r24, 0x03	; 3
    5254:	0e 94 f3 28 	call	0x51e6	; 0x51e6 <_Z9USB_Flushh>
    5258:	80 91 f1 01 	lds	r24, 0x01F1	; 0x8001f1 <TxLEDPulse>
    525c:	88 23       	and	r24, r24
    525e:	39 f0       	breq	.+14     	; 0x526e <__vector_10+0x74>
    5260:	80 91 f1 01 	lds	r24, 0x01F1	; 0x8001f1 <TxLEDPulse>
    5264:	81 50       	subi	r24, 0x01	; 1
    5266:	80 93 f1 01 	sts	0x01F1, r24	; 0x8001f1 <TxLEDPulse>
    526a:	88 23       	and	r24, r24
    526c:	89 f1       	breq	.+98     	; 0x52d0 <__vector_10+0xd6>
    526e:	80 91 f0 01 	lds	r24, 0x01F0	; 0x8001f0 <RxLEDPulse>
    5272:	88 23       	and	r24, r24
    5274:	39 f0       	breq	.+14     	; 0x5284 <__vector_10+0x8a>
    5276:	80 91 f0 01 	lds	r24, 0x01F0	; 0x8001f0 <RxLEDPulse>
    527a:	81 50       	subi	r24, 0x01	; 1
    527c:	80 93 f0 01 	sts	0x01F0, r24	; 0x8001f0 <RxLEDPulse>
    5280:	88 23       	and	r24, r24
    5282:	41 f1       	breq	.+80     	; 0x52d4 <__vector_10+0xda>
    5284:	c4 ff       	sbrs	r28, 4
    5286:	10 c0       	rjmp	.+32     	; 0x52a8 <__vector_10+0xae>
    5288:	80 91 e2 00 	lds	r24, 0x00E2	; 0x8000e2 <__TEXT_REGION_LENGTH__+0x7f80e2>
    528c:	8e 7e       	andi	r24, 0xEE	; 238
    528e:	81 60       	ori	r24, 0x01	; 1
    5290:	80 93 e2 00 	sts	0x00E2, r24	; 0x8000e2 <__TEXT_REGION_LENGTH__+0x7f80e2>
    5294:	80 91 e1 00 	lds	r24, 0x00E1	; 0x8000e1 <__TEXT_REGION_LENGTH__+0x7f80e1>
    5298:	8f 7e       	andi	r24, 0xEF	; 239
    529a:	80 93 e1 00 	sts	0x00E1, r24	; 0x8000e1 <__TEXT_REGION_LENGTH__+0x7f80e1>
    529e:	80 91 ed 01 	lds	r24, 0x01ED	; 0x8001ed <_usbSuspendState>
    52a2:	8e 7e       	andi	r24, 0xEE	; 238
    52a4:	80 61       	ori	r24, 0x10	; 16
    52a6:	11 c0       	rjmp	.+34     	; 0x52ca <__vector_10+0xd0>
    52a8:	c0 ff       	sbrs	r28, 0
    52aa:	16 c0       	rjmp	.+44     	; 0x52d8 <__vector_10+0xde>
    52ac:	80 91 e2 00 	lds	r24, 0x00E2	; 0x8000e2 <__TEXT_REGION_LENGTH__+0x7f80e2>
    52b0:	8e 7e       	andi	r24, 0xEE	; 238
    52b2:	80 61       	ori	r24, 0x10	; 16
    52b4:	80 93 e2 00 	sts	0x00E2, r24	; 0x8000e2 <__TEXT_REGION_LENGTH__+0x7f80e2>
    52b8:	80 91 e1 00 	lds	r24, 0x00E1	; 0x8000e1 <__TEXT_REGION_LENGTH__+0x7f80e1>
    52bc:	8e 7e       	andi	r24, 0xEE	; 238
    52be:	80 93 e1 00 	sts	0x00E1, r24	; 0x8000e1 <__TEXT_REGION_LENGTH__+0x7f80e1>
    52c2:	80 91 ed 01 	lds	r24, 0x01ED	; 0x8001ed <_usbSuspendState>
    52c6:	8e 7e       	andi	r24, 0xEE	; 238
    52c8:	81 60       	ori	r24, 0x01	; 1
    52ca:	80 93 ed 01 	sts	0x01ED, r24	; 0x8001ed <_usbSuspendState>
    52ce:	04 c0       	rjmp	.+8      	; 0x52d8 <__vector_10+0xde>
    52d0:	5d 9a       	sbi	0x0b, 5	; 11
    52d2:	cd cf       	rjmp	.-102    	; 0x526e <__vector_10+0x74>
    52d4:	28 9a       	sbi	0x05, 0	; 5
    52d6:	d6 cf       	rjmp	.-84     	; 0x5284 <__vector_10+0x8a>
    52d8:	ff 91       	pop	r31
    52da:	ef 91       	pop	r30
    52dc:	cf 91       	pop	r28
    52de:	bf 91       	pop	r27
    52e0:	af 91       	pop	r26
    52e2:	9f 91       	pop	r25
    52e4:	8f 91       	pop	r24
    52e6:	7f 91       	pop	r23
    52e8:	6f 91       	pop	r22
    52ea:	5f 91       	pop	r21
    52ec:	4f 91       	pop	r20
    52ee:	3f 91       	pop	r19
    52f0:	2f 91       	pop	r18
    52f2:	0f 90       	pop	r0
    52f4:	0f be       	out	0x3f, r0	; 63
    52f6:	0f 90       	pop	r0
    52f8:	1f 90       	pop	r1
    52fa:	18 95       	reti

000052fc <_ZN10USBDevice_6attachEv>:
{
}

void USBDevice_::attach()
{
	_usbConfiguration = 0;
    52fc:	10 92 ef 01 	sts	0x01EF, r1	; 0x8001ef <_usbConfiguration>
	_usbCurrentStatus = 0;
    5300:	10 92 ee 01 	sts	0x01EE, r1	; 0x8001ee <_usbCurrentStatus>
	_usbSuspendState = 0;
    5304:	10 92 ed 01 	sts	0x01ED, r1	; 0x8001ed <_usbSuspendState>
	USB_ClockEnable();
    5308:	0e 94 c8 25 	call	0x4b90	; 0x4b90 <_ZL15USB_ClockEnablev>

	UDINT &= ~((1<<WAKEUPI) | (1<<SUSPI)); // clear already pending WAKEUP / SUSPEND requests
    530c:	e1 ee       	ldi	r30, 0xE1	; 225
    530e:	f0 e0       	ldi	r31, 0x00	; 0
    5310:	80 81       	ld	r24, Z
    5312:	8e 7e       	andi	r24, 0xEE	; 238
    5314:	80 83       	st	Z, r24
	UDIEN = (1<<EORSTE) | (1<<SOFE) | (1<<SUSPE);	// Enable interrupts for EOR (End of Reset), SOF (start of frame) and SUSPEND
    5316:	8d e0       	ldi	r24, 0x0D	; 13
    5318:	80 93 e2 00 	sts	0x00E2, r24	; 0x8000e2 <__TEXT_REGION_LENGTH__+0x7f80e2>
	
	TX_RX_LED_INIT;
    531c:	55 9a       	sbi	0x0a, 5	; 10
    531e:	20 9a       	sbi	0x04, 0	; 4
    5320:	08 95       	ret

00005322 <__vector_23>:
	cli();
	m = timer0_millis;
	SREG = oldSREG;

	return m;
}
    5322:	1f 92       	push	r1
    5324:	0f 92       	push	r0
    5326:	0f b6       	in	r0, 0x3f	; 63
    5328:	0f 92       	push	r0
    532a:	11 24       	eor	r1, r1
    532c:	2f 93       	push	r18
    532e:	3f 93       	push	r19
    5330:	8f 93       	push	r24
    5332:	9f 93       	push	r25
    5334:	af 93       	push	r26
    5336:	bf 93       	push	r27
    5338:	80 91 f3 01 	lds	r24, 0x01F3	; 0x8001f3 <timer0_millis>
    533c:	90 91 f4 01 	lds	r25, 0x01F4	; 0x8001f4 <timer0_millis+0x1>
    5340:	a0 91 f5 01 	lds	r26, 0x01F5	; 0x8001f5 <timer0_millis+0x2>
    5344:	b0 91 f6 01 	lds	r27, 0x01F6	; 0x8001f6 <timer0_millis+0x3>
    5348:	30 91 f2 01 	lds	r19, 0x01F2	; 0x8001f2 <timer0_fract>
    534c:	23 e0       	ldi	r18, 0x03	; 3
    534e:	23 0f       	add	r18, r19
    5350:	2d 37       	cpi	r18, 0x7D	; 125
    5352:	20 f4       	brcc	.+8      	; 0x535c <__vector_23+0x3a>
    5354:	01 96       	adiw	r24, 0x01	; 1
    5356:	a1 1d       	adc	r26, r1
    5358:	b1 1d       	adc	r27, r1
    535a:	05 c0       	rjmp	.+10     	; 0x5366 <__vector_23+0x44>
    535c:	26 e8       	ldi	r18, 0x86	; 134
    535e:	23 0f       	add	r18, r19
    5360:	02 96       	adiw	r24, 0x02	; 2
    5362:	a1 1d       	adc	r26, r1
    5364:	b1 1d       	adc	r27, r1
    5366:	20 93 f2 01 	sts	0x01F2, r18	; 0x8001f2 <timer0_fract>
    536a:	80 93 f3 01 	sts	0x01F3, r24	; 0x8001f3 <timer0_millis>
    536e:	90 93 f4 01 	sts	0x01F4, r25	; 0x8001f4 <timer0_millis+0x1>
    5372:	a0 93 f5 01 	sts	0x01F5, r26	; 0x8001f5 <timer0_millis+0x2>
    5376:	b0 93 f6 01 	sts	0x01F6, r27	; 0x8001f6 <timer0_millis+0x3>
    537a:	80 91 f7 01 	lds	r24, 0x01F7	; 0x8001f7 <timer0_overflow_count>
    537e:	90 91 f8 01 	lds	r25, 0x01F8	; 0x8001f8 <timer0_overflow_count+0x1>
    5382:	a0 91 f9 01 	lds	r26, 0x01F9	; 0x8001f9 <timer0_overflow_count+0x2>
    5386:	b0 91 fa 01 	lds	r27, 0x01FA	; 0x8001fa <timer0_overflow_count+0x3>
    538a:	01 96       	adiw	r24, 0x01	; 1
    538c:	a1 1d       	adc	r26, r1
    538e:	b1 1d       	adc	r27, r1
    5390:	80 93 f7 01 	sts	0x01F7, r24	; 0x8001f7 <timer0_overflow_count>
    5394:	90 93 f8 01 	sts	0x01F8, r25	; 0x8001f8 <timer0_overflow_count+0x1>
    5398:	a0 93 f9 01 	sts	0x01F9, r26	; 0x8001f9 <timer0_overflow_count+0x2>
    539c:	b0 93 fa 01 	sts	0x01FA, r27	; 0x8001fa <timer0_overflow_count+0x3>
    53a0:	bf 91       	pop	r27
    53a2:	af 91       	pop	r26
    53a4:	9f 91       	pop	r25
    53a6:	8f 91       	pop	r24
    53a8:	3f 91       	pop	r19
    53aa:	2f 91       	pop	r18
    53ac:	0f 90       	pop	r0
    53ae:	0f be       	out	0x3f, r0	; 63
    53b0:	0f 90       	pop	r0
    53b2:	1f 90       	pop	r1
    53b4:	18 95       	reti

000053b6 <micros>:

unsigned long micros() {
	unsigned long m;
	uint8_t oldSREG = SREG, t;
    53b6:	3f b7       	in	r19, 0x3f	; 63
	
	cli();
    53b8:	f8 94       	cli
	m = timer0_overflow_count;
    53ba:	80 91 f7 01 	lds	r24, 0x01F7	; 0x8001f7 <timer0_overflow_count>
    53be:	90 91 f8 01 	lds	r25, 0x01F8	; 0x8001f8 <timer0_overflow_count+0x1>
    53c2:	a0 91 f9 01 	lds	r26, 0x01F9	; 0x8001f9 <timer0_overflow_count+0x2>
    53c6:	b0 91 fa 01 	lds	r27, 0x01FA	; 0x8001fa <timer0_overflow_count+0x3>
#if defined(TCNT0)
	t = TCNT0;
    53ca:	26 b5       	in	r18, 0x26	; 38
#else
	#error TIMER 0 not defined
#endif

#ifdef TIFR0
	if ((TIFR0 & _BV(TOV0)) && (t < 255))
    53cc:	a8 9b       	sbis	0x15, 0	; 21
    53ce:	05 c0       	rjmp	.+10     	; 0x53da <micros+0x24>
    53d0:	2f 3f       	cpi	r18, 0xFF	; 255
    53d2:	19 f0       	breq	.+6      	; 0x53da <micros+0x24>
		m++;
    53d4:	01 96       	adiw	r24, 0x01	; 1
    53d6:	a1 1d       	adc	r26, r1
    53d8:	b1 1d       	adc	r27, r1
#else
	if ((TIFR & _BV(TOV0)) && (t < 255))
		m++;
#endif

	SREG = oldSREG;
    53da:	3f bf       	out	0x3f, r19	; 63
	
	return ((m << 8) + t) * (64 / clockCyclesPerMicrosecond());
    53dc:	ba 2f       	mov	r27, r26
    53de:	a9 2f       	mov	r26, r25
    53e0:	98 2f       	mov	r25, r24
    53e2:	88 27       	eor	r24, r24
    53e4:	82 0f       	add	r24, r18
    53e6:	91 1d       	adc	r25, r1
    53e8:	a1 1d       	adc	r26, r1
    53ea:	b1 1d       	adc	r27, r1
    53ec:	bc 01       	movw	r22, r24
    53ee:	cd 01       	movw	r24, r26
    53f0:	42 e0       	ldi	r20, 0x02	; 2
    53f2:	66 0f       	add	r22, r22
    53f4:	77 1f       	adc	r23, r23
    53f6:	88 1f       	adc	r24, r24
    53f8:	99 1f       	adc	r25, r25
    53fa:	4a 95       	dec	r20
    53fc:	d1 f7       	brne	.-12     	; 0x53f2 <micros+0x3c>
}
    53fe:	08 95       	ret

00005400 <delay>:

void delay(unsigned long ms)
{
    5400:	8f 92       	push	r8
    5402:	9f 92       	push	r9
    5404:	af 92       	push	r10
    5406:	bf 92       	push	r11
    5408:	cf 92       	push	r12
    540a:	df 92       	push	r13
    540c:	ef 92       	push	r14
    540e:	ff 92       	push	r15
    5410:	6b 01       	movw	r12, r22
    5412:	7c 01       	movw	r14, r24
	uint32_t start = micros();
    5414:	0e 94 db 29 	call	0x53b6	; 0x53b6 <micros>
    5418:	4b 01       	movw	r8, r22
    541a:	5c 01       	movw	r10, r24

	while (ms > 0) {
    541c:	c1 14       	cp	r12, r1
    541e:	d1 04       	cpc	r13, r1
    5420:	e1 04       	cpc	r14, r1
    5422:	f1 04       	cpc	r15, r1
    5424:	01 f1       	breq	.+64     	; 0x5466 <delay+0x66>
		yield();
    5426:	0e 94 df 2c 	call	0x59be	; 0x59be <yield>
		while ( ms > 0 && (micros() - start) >= 1000) {
    542a:	0e 94 db 29 	call	0x53b6	; 0x53b6 <micros>
    542e:	dc 01       	movw	r26, r24
    5430:	cb 01       	movw	r24, r22
    5432:	88 19       	sub	r24, r8
    5434:	99 09       	sbc	r25, r9
    5436:	aa 09       	sbc	r26, r10
    5438:	bb 09       	sbc	r27, r11
    543a:	88 3e       	cpi	r24, 0xE8	; 232
    543c:	93 40       	sbci	r25, 0x03	; 3
    543e:	a1 05       	cpc	r26, r1
    5440:	b1 05       	cpc	r27, r1
    5442:	60 f3       	brcs	.-40     	; 0x541c <delay+0x1c>
			ms--;
    5444:	21 e0       	ldi	r18, 0x01	; 1
    5446:	c2 1a       	sub	r12, r18
    5448:	d1 08       	sbc	r13, r1
    544a:	e1 08       	sbc	r14, r1
    544c:	f1 08       	sbc	r15, r1
			start += 1000;
    544e:	88 ee       	ldi	r24, 0xE8	; 232
    5450:	88 0e       	add	r8, r24
    5452:	83 e0       	ldi	r24, 0x03	; 3
    5454:	98 1e       	adc	r9, r24
    5456:	a1 1c       	adc	r10, r1
    5458:	b1 1c       	adc	r11, r1
{
	uint32_t start = micros();

	while (ms > 0) {
		yield();
		while ( ms > 0 && (micros() - start) >= 1000) {
    545a:	c1 14       	cp	r12, r1
    545c:	d1 04       	cpc	r13, r1
    545e:	e1 04       	cpc	r14, r1
    5460:	f1 04       	cpc	r15, r1
    5462:	19 f7       	brne	.-58     	; 0x542a <delay+0x2a>
    5464:	db cf       	rjmp	.-74     	; 0x541c <delay+0x1c>
			ms--;
			start += 1000;
		}
	}
}
    5466:	ff 90       	pop	r15
    5468:	ef 90       	pop	r14
    546a:	df 90       	pop	r13
    546c:	cf 90       	pop	r12
    546e:	bf 90       	pop	r11
    5470:	af 90       	pop	r10
    5472:	9f 90       	pop	r9
    5474:	8f 90       	pop	r8
    5476:	08 95       	ret

00005478 <delayMicroseconds>:
#elif F_CPU >= 16000000L
	// for the 16 MHz clock on most Arduino boards

	// for a one-microsecond delay, simply return.  the overhead
	// of the function call takes 14 (16) cycles, which is 1us
	if (us <= 1) return; //  = 3 cycles, (4 when true)
    5478:	82 30       	cpi	r24, 0x02	; 2
    547a:	91 05       	cpc	r25, r1
    547c:	38 f0       	brcs	.+14     	; 0x548c <delayMicroseconds+0x14>

	// the following loop takes 1/4 of a microsecond (4 cycles)
	// per iteration, so execute it four times for each microsecond of
	// delay requested.
	us <<= 2; // x4 us, = 4 cycles
    547e:	88 0f       	add	r24, r24
    5480:	99 1f       	adc	r25, r25
    5482:	88 0f       	add	r24, r24
    5484:	99 1f       	adc	r25, r25

	// account for the time taken in the preceeding commands.
	// we just burned 19 (21) cycles above, remove 5, (5*4=20)
	// us is at least 8 so we can substract 5
	us -= 5; // = 2 cycles,
    5486:	05 97       	sbiw	r24, 0x05	; 5
	

#endif

	// busy wait
	__asm__ __volatile__ (
    5488:	01 97       	sbiw	r24, 0x01	; 1
    548a:	f1 f7       	brne	.-4      	; 0x5488 <delayMicroseconds+0x10>
    548c:	08 95       	ret

0000548e <init>:

void init()
{
	// this needs to be called before setup() or some functions won't
	// work there
	sei();
    548e:	78 94       	sei
	
	// on the ATmega168, timer 0 is also used for fast hardware pwm
	// (using phase-correct PWM would mean that timer 0 overflowed half as often
	// resulting in different millis() behavior on the ATmega8 and ATmega168)
#if defined(TCCR0A) && defined(WGM01)
	sbi(TCCR0A, WGM01);
    5490:	84 b5       	in	r24, 0x24	; 36
    5492:	82 60       	ori	r24, 0x02	; 2
    5494:	84 bd       	out	0x24, r24	; 36
	sbi(TCCR0A, WGM00);
    5496:	84 b5       	in	r24, 0x24	; 36
    5498:	81 60       	ori	r24, 0x01	; 1
    549a:	84 bd       	out	0x24, r24	; 36
	// this combination is for the standard atmega8
	sbi(TCCR0, CS01);
	sbi(TCCR0, CS00);
#elif defined(TCCR0B) && defined(CS01) && defined(CS00)
	// this combination is for the standard 168/328/1280/2560
	sbi(TCCR0B, CS01);
    549c:	85 b5       	in	r24, 0x25	; 37
    549e:	82 60       	ori	r24, 0x02	; 2
    54a0:	85 bd       	out	0x25, r24	; 37
	sbi(TCCR0B, CS00);
    54a2:	85 b5       	in	r24, 0x25	; 37
    54a4:	81 60       	ori	r24, 0x01	; 1
    54a6:	85 bd       	out	0x25, r24	; 37

	// enable timer 0 overflow interrupt
#if defined(TIMSK) && defined(TOIE0)
	sbi(TIMSK, TOIE0);
#elif defined(TIMSK0) && defined(TOIE0)
	sbi(TIMSK0, TOIE0);
    54a8:	ee e6       	ldi	r30, 0x6E	; 110
    54aa:	f0 e0       	ldi	r31, 0x00	; 0
    54ac:	80 81       	ld	r24, Z
    54ae:	81 60       	ori	r24, 0x01	; 1
    54b0:	80 83       	st	Z, r24
	// this is better for motors as it ensures an even waveform
	// note, however, that fast pwm mode can achieve a frequency of up
	// 8 MHz (with a 16 MHz clock) at 50% duty cycle

#if defined(TCCR1B) && defined(CS11) && defined(CS10)
	TCCR1B = 0;
    54b2:	e1 e8       	ldi	r30, 0x81	; 129
    54b4:	f0 e0       	ldi	r31, 0x00	; 0
    54b6:	10 82       	st	Z, r1

	// set timer 1 prescale factor to 64
	sbi(TCCR1B, CS11);
    54b8:	80 81       	ld	r24, Z
    54ba:	82 60       	ori	r24, 0x02	; 2
    54bc:	80 83       	st	Z, r24
#if F_CPU >= 8000000L
	sbi(TCCR1B, CS10);
    54be:	80 81       	ld	r24, Z
    54c0:	81 60       	ori	r24, 0x01	; 1
    54c2:	80 83       	st	Z, r24
	sbi(TCCR1, CS10);
#endif
#endif
	// put timer 1 in 8-bit phase correct pwm mode
#if defined(TCCR1A) && defined(WGM10)
	sbi(TCCR1A, WGM10);
    54c4:	e0 e8       	ldi	r30, 0x80	; 128
    54c6:	f0 e0       	ldi	r31, 0x00	; 0
    54c8:	80 81       	ld	r24, Z
    54ca:	81 60       	ori	r24, 0x01	; 1
    54cc:	80 83       	st	Z, r24
//#else
	// Timer 2 not finished (may not be present on this CPU)
#endif

#if defined(TCCR3B) && defined(CS31) && defined(WGM30)
	sbi(TCCR3B, CS31);		// set timer 3 prescale factor to 64
    54ce:	e1 e9       	ldi	r30, 0x91	; 145
    54d0:	f0 e0       	ldi	r31, 0x00	; 0
    54d2:	80 81       	ld	r24, Z
    54d4:	82 60       	ori	r24, 0x02	; 2
    54d6:	80 83       	st	Z, r24
	sbi(TCCR3B, CS30);
    54d8:	80 81       	ld	r24, Z
    54da:	81 60       	ori	r24, 0x01	; 1
    54dc:	80 83       	st	Z, r24
	sbi(TCCR3A, WGM30);		// put timer 3 in 8-bit phase correct pwm mode
    54de:	e0 e9       	ldi	r30, 0x90	; 144
    54e0:	f0 e0       	ldi	r31, 0x00	; 0
    54e2:	80 81       	ld	r24, Z
    54e4:	81 60       	ori	r24, 0x01	; 1
    54e6:	80 83       	st	Z, r24
#endif

#if defined(TCCR4A) && defined(TCCR4B) && defined(TCCR4D) /* beginning of timer4 block for 32U4 and similar */
	sbi(TCCR4B, CS42);		// set timer4 prescale factor to 64
    54e8:	e1 ec       	ldi	r30, 0xC1	; 193
    54ea:	f0 e0       	ldi	r31, 0x00	; 0
    54ec:	80 81       	ld	r24, Z
    54ee:	84 60       	ori	r24, 0x04	; 4
    54f0:	80 83       	st	Z, r24
	sbi(TCCR4B, CS41);
    54f2:	80 81       	ld	r24, Z
    54f4:	82 60       	ori	r24, 0x02	; 2
    54f6:	80 83       	st	Z, r24
	sbi(TCCR4B, CS40);
    54f8:	80 81       	ld	r24, Z
    54fa:	81 60       	ori	r24, 0x01	; 1
    54fc:	80 83       	st	Z, r24
	sbi(TCCR4D, WGM40);		// put timer 4 in phase- and frequency-correct PWM mode	
    54fe:	e3 ec       	ldi	r30, 0xC3	; 195
    5500:	f0 e0       	ldi	r31, 0x00	; 0
    5502:	80 81       	ld	r24, Z
    5504:	81 60       	ori	r24, 0x01	; 1
    5506:	80 83       	st	Z, r24
	sbi(TCCR4A, PWM4A);		// enable PWM mode for comparator OCR4A
    5508:	e0 ec       	ldi	r30, 0xC0	; 192
    550a:	f0 e0       	ldi	r31, 0x00	; 0
    550c:	80 81       	ld	r24, Z
    550e:	82 60       	ori	r24, 0x02	; 2
    5510:	80 83       	st	Z, r24
	sbi(TCCR4C, PWM4D);		// enable PWM mode for comparator OCR4D
    5512:	e2 ec       	ldi	r30, 0xC2	; 194
    5514:	f0 e0       	ldi	r31, 0x00	; 0
    5516:	80 81       	ld	r24, Z
    5518:	81 60       	ori	r24, 0x01	; 1
    551a:	80 83       	st	Z, r24
#endif

#if defined(ADCSRA)
	// set a2d prescaler so we are inside the desired 50-200 KHz range.
	#if F_CPU >= 16000000 // 16 MHz / 128 = 125 KHz
		sbi(ADCSRA, ADPS2);
    551c:	ea e7       	ldi	r30, 0x7A	; 122
    551e:	f0 e0       	ldi	r31, 0x00	; 0
    5520:	80 81       	ld	r24, Z
    5522:	84 60       	ori	r24, 0x04	; 4
    5524:	80 83       	st	Z, r24
		sbi(ADCSRA, ADPS1);
    5526:	80 81       	ld	r24, Z
    5528:	82 60       	ori	r24, 0x02	; 2
    552a:	80 83       	st	Z, r24
		sbi(ADCSRA, ADPS0);
    552c:	80 81       	ld	r24, Z
    552e:	81 60       	ori	r24, 0x01	; 1
    5530:	80 83       	st	Z, r24
		cbi(ADCSRA, ADPS2);
		cbi(ADCSRA, ADPS1);
		sbi(ADCSRA, ADPS0);
	#endif
	// enable a2d conversions
	sbi(ADCSRA, ADEN);
    5532:	80 81       	ld	r24, Z
    5534:	80 68       	ori	r24, 0x80	; 128
    5536:	80 83       	st	Z, r24
    5538:	08 95       	ret

0000553a <turnOffPWM>:
//
//static inline void turnOffPWM(uint8_t timer) __attribute__ ((always_inline));
//static inline void turnOffPWM(uint8_t timer)
static void turnOffPWM(uint8_t timer)
{
	switch (timer)
    553a:	90 e0       	ldi	r25, 0x00	; 0
    553c:	fc 01       	movw	r30, r24
    553e:	31 97       	sbiw	r30, 0x01	; 1
    5540:	ef 30       	cpi	r30, 0x0F	; 15
    5542:	f1 05       	cpc	r31, r1
    5544:	b0 f5       	brcc	.+108    	; 0x55b2 <turnOffPWM+0x78>
    5546:	ea 5a       	subi	r30, 0xAA	; 170
    5548:	ff 4f       	sbci	r31, 0xFF	; 255
    554a:	0c 94 84 31 	jmp	0x6308	; 0x6308 <__tablejump2__>
	{
		#if defined(TCCR1A) && defined(COM1A1)
		case TIMER1A:   cbi(TCCR1A, COM1A1);    break;
    554e:	80 91 80 00 	lds	r24, 0x0080	; 0x800080 <__TEXT_REGION_LENGTH__+0x7f8080>
    5552:	8f 77       	andi	r24, 0x7F	; 127
    5554:	03 c0       	rjmp	.+6      	; 0x555c <turnOffPWM+0x22>
		#endif
		#if defined(TCCR1A) && defined(COM1B1)
		case TIMER1B:   cbi(TCCR1A, COM1B1);    break;
    5556:	80 91 80 00 	lds	r24, 0x0080	; 0x800080 <__TEXT_REGION_LENGTH__+0x7f8080>
    555a:	8f 7d       	andi	r24, 0xDF	; 223
    555c:	80 93 80 00 	sts	0x0080, r24	; 0x800080 <__TEXT_REGION_LENGTH__+0x7f8080>
    5560:	08 95       	ret
		#endif
		#if defined(TCCR1A) && defined(COM1C1)
		case TIMER1C:   cbi(TCCR1A, COM1C1);    break;
    5562:	80 91 80 00 	lds	r24, 0x0080	; 0x800080 <__TEXT_REGION_LENGTH__+0x7f8080>
    5566:	87 7f       	andi	r24, 0xF7	; 247
    5568:	f9 cf       	rjmp	.-14     	; 0x555c <turnOffPWM+0x22>
		#if defined(TCCR2) && defined(COM21)
		case  TIMER2:   cbi(TCCR2, COM21);      break;
		#endif
		
		#if defined(TCCR0A) && defined(COM0A1)
		case  TIMER0A:  cbi(TCCR0A, COM0A1);    break;
    556a:	84 b5       	in	r24, 0x24	; 36
    556c:	8f 77       	andi	r24, 0x7F	; 127
    556e:	02 c0       	rjmp	.+4      	; 0x5574 <turnOffPWM+0x3a>
		#endif
		
		#if defined(TCCR0A) && defined(COM0B1)
		case  TIMER0B:  cbi(TCCR0A, COM0B1);    break;
    5570:	84 b5       	in	r24, 0x24	; 36
    5572:	8f 7d       	andi	r24, 0xDF	; 223
    5574:	84 bd       	out	0x24, r24	; 36
    5576:	08 95       	ret
		#if defined(TCCR2A) && defined(COM2B1)
		case  TIMER2B:  cbi(TCCR2A, COM2B1);    break;
		#endif
		
		#if defined(TCCR3A) && defined(COM3A1)
		case  TIMER3A:  cbi(TCCR3A, COM3A1);    break;
    5578:	80 91 90 00 	lds	r24, 0x0090	; 0x800090 <__TEXT_REGION_LENGTH__+0x7f8090>
    557c:	8f 77       	andi	r24, 0x7F	; 127
    557e:	07 c0       	rjmp	.+14     	; 0x558e <turnOffPWM+0x54>
		#endif
		#if defined(TCCR3A) && defined(COM3B1)
		case  TIMER3B:  cbi(TCCR3A, COM3B1);    break;
    5580:	80 91 90 00 	lds	r24, 0x0090	; 0x800090 <__TEXT_REGION_LENGTH__+0x7f8090>
    5584:	8f 7d       	andi	r24, 0xDF	; 223
    5586:	03 c0       	rjmp	.+6      	; 0x558e <turnOffPWM+0x54>
		#endif
		#if defined(TCCR3A) && defined(COM3C1)
		case  TIMER3C:  cbi(TCCR3A, COM3C1);    break;
    5588:	80 91 90 00 	lds	r24, 0x0090	; 0x800090 <__TEXT_REGION_LENGTH__+0x7f8090>
    558c:	87 7f       	andi	r24, 0xF7	; 247
    558e:	80 93 90 00 	sts	0x0090, r24	; 0x800090 <__TEXT_REGION_LENGTH__+0x7f8090>
    5592:	08 95       	ret
		#endif

		#if defined(TCCR4A) && defined(COM4A1)
		case  TIMER4A:  cbi(TCCR4A, COM4A1);    break;
    5594:	80 91 c0 00 	lds	r24, 0x00C0	; 0x8000c0 <__TEXT_REGION_LENGTH__+0x7f80c0>
    5598:	8f 77       	andi	r24, 0x7F	; 127
    559a:	03 c0       	rjmp	.+6      	; 0x55a2 <turnOffPWM+0x68>
		#endif					
		#if defined(TCCR4A) && defined(COM4B1)
		case  TIMER4B:  cbi(TCCR4A, COM4B1);    break;
    559c:	80 91 c0 00 	lds	r24, 0x00C0	; 0x8000c0 <__TEXT_REGION_LENGTH__+0x7f80c0>
    55a0:	8f 7d       	andi	r24, 0xDF	; 223
    55a2:	80 93 c0 00 	sts	0x00C0, r24	; 0x8000c0 <__TEXT_REGION_LENGTH__+0x7f80c0>
    55a6:	08 95       	ret
		#endif
		#if defined(TCCR4A) && defined(COM4C1)
		case  TIMER4C:  cbi(TCCR4A, COM4C1);    break;
		#endif			
		#if defined(TCCR4C) && defined(COM4D1)
		case TIMER4D:	cbi(TCCR4C, COM4D1);	break;
    55a8:	80 91 c2 00 	lds	r24, 0x00C2	; 0x8000c2 <__TEXT_REGION_LENGTH__+0x7f80c2>
    55ac:	87 7f       	andi	r24, 0xF7	; 247
    55ae:	80 93 c2 00 	sts	0x00C2, r24	; 0x8000c2 <__TEXT_REGION_LENGTH__+0x7f80c2>
    55b2:	08 95       	ret

000055b4 <pinMode>:
#define ARDUINO_MAIN
#include "wiring_private.h"
#include "pins_arduino.h"

void pinMode(uint8_t pin, uint8_t mode)
{
    55b4:	cf 93       	push	r28
    55b6:	df 93       	push	r29
	uint8_t bit = digitalPinToBitMask(pin);
    55b8:	90 e0       	ldi	r25, 0x00	; 0
    55ba:	fc 01       	movw	r30, r24
    55bc:	e9 5f       	subi	r30, 0xF9	; 249
    55be:	fc 4f       	sbci	r31, 0xFC	; 252
    55c0:	24 91       	lpm	r18, Z
	uint8_t port = digitalPinToPort(pin);
    55c2:	fc 01       	movw	r30, r24
    55c4:	ea 5d       	subi	r30, 0xDA	; 218
    55c6:	fc 4f       	sbci	r31, 0xFC	; 252
    55c8:	84 91       	lpm	r24, Z
	volatile uint8_t *reg, *out;

	if (port == NOT_A_PIN) return;
    55ca:	88 23       	and	r24, r24
    55cc:	61 f1       	breq	.+88     	; 0x5626 <pinMode+0x72>

	// JWS: can I let the optimizer do this?
	reg = portModeRegister(port);
    55ce:	90 e0       	ldi	r25, 0x00	; 0
    55d0:	88 0f       	add	r24, r24
    55d2:	99 1f       	adc	r25, r25
    55d4:	fc 01       	movw	r30, r24
    55d6:	ef 59       	subi	r30, 0x9F	; 159
    55d8:	fc 4f       	sbci	r31, 0xFC	; 252
    55da:	c5 91       	lpm	r28, Z+
    55dc:	d4 91       	lpm	r29, Z
	out = portOutputRegister(port);
    55de:	fc 01       	movw	r30, r24
    55e0:	ed 5a       	subi	r30, 0xAD	; 173
    55e2:	fc 4f       	sbci	r31, 0xFC	; 252
    55e4:	a5 91       	lpm	r26, Z+
    55e6:	b4 91       	lpm	r27, Z

	if (mode == INPUT) { 
    55e8:	61 11       	cpse	r22, r1
    55ea:	09 c0       	rjmp	.+18     	; 0x55fe <pinMode+0x4a>
		uint8_t oldSREG = SREG;
    55ec:	9f b7       	in	r25, 0x3f	; 63
                cli();
    55ee:	f8 94       	cli
		*reg &= ~bit;
    55f0:	88 81       	ld	r24, Y
    55f2:	20 95       	com	r18
    55f4:	82 23       	and	r24, r18
    55f6:	88 83       	st	Y, r24
		*out &= ~bit;
    55f8:	ec 91       	ld	r30, X
    55fa:	2e 23       	and	r18, r30
    55fc:	0b c0       	rjmp	.+22     	; 0x5614 <pinMode+0x60>
		SREG = oldSREG;
	} else if (mode == INPUT_PULLUP) {
    55fe:	62 30       	cpi	r22, 0x02	; 2
    5600:	61 f4       	brne	.+24     	; 0x561a <pinMode+0x66>
		uint8_t oldSREG = SREG;
    5602:	9f b7       	in	r25, 0x3f	; 63
                cli();
    5604:	f8 94       	cli
		*reg &= ~bit;
    5606:	88 81       	ld	r24, Y
    5608:	32 2f       	mov	r19, r18
    560a:	30 95       	com	r19
    560c:	83 23       	and	r24, r19
    560e:	88 83       	st	Y, r24
		*out |= bit;
    5610:	ec 91       	ld	r30, X
    5612:	2e 2b       	or	r18, r30
    5614:	2c 93       	st	X, r18
		SREG = oldSREG;
    5616:	9f bf       	out	0x3f, r25	; 63
    5618:	06 c0       	rjmp	.+12     	; 0x5626 <pinMode+0x72>
	} else {
		uint8_t oldSREG = SREG;
    561a:	8f b7       	in	r24, 0x3f	; 63
                cli();
    561c:	f8 94       	cli
		*reg |= bit;
    561e:	e8 81       	ld	r30, Y
    5620:	2e 2b       	or	r18, r30
    5622:	28 83       	st	Y, r18
		SREG = oldSREG;
    5624:	8f bf       	out	0x3f, r24	; 63
	}
}
    5626:	df 91       	pop	r29
    5628:	cf 91       	pop	r28
    562a:	08 95       	ret

0000562c <digitalWrite>:
		#endif
	}
}

void digitalWrite(uint8_t pin, uint8_t val)
{
    562c:	1f 93       	push	r17
    562e:	cf 93       	push	r28
    5630:	df 93       	push	r29
	uint8_t timer = digitalPinToTimer(pin);
    5632:	28 2f       	mov	r18, r24
    5634:	30 e0       	ldi	r19, 0x00	; 0
    5636:	f9 01       	movw	r30, r18
    5638:	e8 51       	subi	r30, 0x18	; 24
    563a:	fd 4f       	sbci	r31, 0xFD	; 253
    563c:	84 91       	lpm	r24, Z
	uint8_t bit = digitalPinToBitMask(pin);
    563e:	f9 01       	movw	r30, r18
    5640:	e9 5f       	subi	r30, 0xF9	; 249
    5642:	fc 4f       	sbci	r31, 0xFC	; 252
    5644:	d4 91       	lpm	r29, Z
	uint8_t port = digitalPinToPort(pin);
    5646:	f9 01       	movw	r30, r18
    5648:	ea 5d       	subi	r30, 0xDA	; 218
    564a:	fc 4f       	sbci	r31, 0xFC	; 252
    564c:	c4 91       	lpm	r28, Z
	volatile uint8_t *out;

	if (port == NOT_A_PIN) return;
    564e:	cc 23       	and	r28, r28
    5650:	c1 f0       	breq	.+48     	; 0x5682 <digitalWrite+0x56>
    5652:	16 2f       	mov	r17, r22

	// If the pin that support PWM output, we need to turn it off
	// before doing a digital write.
	if (timer != NOT_ON_TIMER) turnOffPWM(timer);
    5654:	81 11       	cpse	r24, r1
    5656:	0e 94 9d 2a 	call	0x553a	; 0x553a <turnOffPWM>

	out = portOutputRegister(port);
    565a:	ec 2f       	mov	r30, r28
    565c:	f0 e0       	ldi	r31, 0x00	; 0
    565e:	ee 0f       	add	r30, r30
    5660:	ff 1f       	adc	r31, r31
    5662:	ed 5a       	subi	r30, 0xAD	; 173
    5664:	fc 4f       	sbci	r31, 0xFC	; 252
    5666:	a5 91       	lpm	r26, Z+
    5668:	b4 91       	lpm	r27, Z

	uint8_t oldSREG = SREG;
    566a:	9f b7       	in	r25, 0x3f	; 63
	cli();
    566c:	f8 94       	cli

	if (val == LOW) {
    566e:	11 11       	cpse	r17, r1
    5670:	04 c0       	rjmp	.+8      	; 0x567a <digitalWrite+0x4e>
		*out &= ~bit;
    5672:	8c 91       	ld	r24, X
    5674:	d0 95       	com	r29
    5676:	d8 23       	and	r29, r24
    5678:	02 c0       	rjmp	.+4      	; 0x567e <digitalWrite+0x52>
	} else {
		*out |= bit;
    567a:	ec 91       	ld	r30, X
    567c:	de 2b       	or	r29, r30
    567e:	dc 93       	st	X, r29
	}

	SREG = oldSREG;
    5680:	9f bf       	out	0x3f, r25	; 63
}
    5682:	df 91       	pop	r29
    5684:	cf 91       	pop	r28
    5686:	1f 91       	pop	r17
    5688:	08 95       	ret

0000568a <digitalRead>:

int digitalRead(uint8_t pin)
{
    568a:	cf 93       	push	r28
    568c:	df 93       	push	r29
	uint8_t timer = digitalPinToTimer(pin);
    568e:	28 2f       	mov	r18, r24
    5690:	30 e0       	ldi	r19, 0x00	; 0
    5692:	f9 01       	movw	r30, r18
    5694:	e8 51       	subi	r30, 0x18	; 24
    5696:	fd 4f       	sbci	r31, 0xFD	; 253
    5698:	84 91       	lpm	r24, Z
	uint8_t bit = digitalPinToBitMask(pin);
    569a:	f9 01       	movw	r30, r18
    569c:	e9 5f       	subi	r30, 0xF9	; 249
    569e:	fc 4f       	sbci	r31, 0xFC	; 252
    56a0:	d4 91       	lpm	r29, Z
	uint8_t port = digitalPinToPort(pin);
    56a2:	f9 01       	movw	r30, r18
    56a4:	ea 5d       	subi	r30, 0xDA	; 218
    56a6:	fc 4f       	sbci	r31, 0xFC	; 252
    56a8:	c4 91       	lpm	r28, Z

	if (port == NOT_A_PIN) return LOW;
    56aa:	cc 23       	and	r28, r28
    56ac:	91 f0       	breq	.+36     	; 0x56d2 <digitalRead+0x48>

	// If the pin that support PWM output, we need to turn it off
	// before getting a digital reading.
	if (timer != NOT_ON_TIMER) turnOffPWM(timer);
    56ae:	81 11       	cpse	r24, r1
    56b0:	0e 94 9d 2a 	call	0x553a	; 0x553a <turnOffPWM>

	if (*portInputRegister(port) & bit) return HIGH;
    56b4:	ec 2f       	mov	r30, r28
    56b6:	f0 e0       	ldi	r31, 0x00	; 0
    56b8:	ee 0f       	add	r30, r30
    56ba:	ff 1f       	adc	r31, r31
    56bc:	eb 5b       	subi	r30, 0xBB	; 187
    56be:	fc 4f       	sbci	r31, 0xFC	; 252
    56c0:	a5 91       	lpm	r26, Z+
    56c2:	b4 91       	lpm	r27, Z
    56c4:	ec 91       	ld	r30, X
{
	uint8_t timer = digitalPinToTimer(pin);
	uint8_t bit = digitalPinToBitMask(pin);
	uint8_t port = digitalPinToPort(pin);

	if (port == NOT_A_PIN) return LOW;
    56c6:	ed 23       	and	r30, r29
    56c8:	81 e0       	ldi	r24, 0x01	; 1
    56ca:	90 e0       	ldi	r25, 0x00	; 0
    56cc:	21 f4       	brne	.+8      	; 0x56d6 <digitalRead+0x4c>
    56ce:	80 e0       	ldi	r24, 0x00	; 0
    56d0:	02 c0       	rjmp	.+4      	; 0x56d6 <digitalRead+0x4c>
    56d2:	80 e0       	ldi	r24, 0x00	; 0
    56d4:	90 e0       	ldi	r25, 0x00	; 0
	// before getting a digital reading.
	if (timer != NOT_ON_TIMER) turnOffPWM(timer);

	if (*portInputRegister(port) & bit) return HIGH;
	return LOW;
}
    56d6:	df 91       	pop	r29
    56d8:	cf 91       	pop	r28
    56da:	08 95       	ret

000056dc <_ZN7TwoWire9availableEv>:
}

// sets function called on slave read
void TwoWire::onRequest( void (*function)(void) )
{
  user_onRequest = function;
    56dc:	80 91 2f 02 	lds	r24, 0x022F	; 0x80022f <_ZN7TwoWire14rxBufferLengthE>
    56e0:	90 e0       	ldi	r25, 0x00	; 0
    56e2:	20 91 30 02 	lds	r18, 0x0230	; 0x800230 <_ZN7TwoWire13rxBufferIndexE>
    56e6:	82 1b       	sub	r24, r18
    56e8:	91 09       	sbc	r25, r1
    56ea:	08 95       	ret

000056ec <_ZN7TwoWire4readEv>:
    56ec:	90 91 30 02 	lds	r25, 0x0230	; 0x800230 <_ZN7TwoWire13rxBufferIndexE>
    56f0:	80 91 2f 02 	lds	r24, 0x022F	; 0x80022f <_ZN7TwoWire14rxBufferLengthE>
    56f4:	98 17       	cp	r25, r24
    56f6:	50 f4       	brcc	.+20     	; 0x570c <_ZN7TwoWire4readEv+0x20>
    56f8:	e9 2f       	mov	r30, r25
    56fa:	f0 e0       	ldi	r31, 0x00	; 0
    56fc:	ef 5c       	subi	r30, 0xCF	; 207
    56fe:	fd 4f       	sbci	r31, 0xFD	; 253
    5700:	20 81       	ld	r18, Z
    5702:	30 e0       	ldi	r19, 0x00	; 0
    5704:	9f 5f       	subi	r25, 0xFF	; 255
    5706:	90 93 30 02 	sts	0x0230, r25	; 0x800230 <_ZN7TwoWire13rxBufferIndexE>
    570a:	02 c0       	rjmp	.+4      	; 0x5710 <_ZN7TwoWire4readEv+0x24>
    570c:	2f ef       	ldi	r18, 0xFF	; 255
    570e:	3f ef       	ldi	r19, 0xFF	; 255
    5710:	c9 01       	movw	r24, r18
    5712:	08 95       	ret

00005714 <_ZN7TwoWire4peekEv>:
    5714:	e0 91 30 02 	lds	r30, 0x0230	; 0x800230 <_ZN7TwoWire13rxBufferIndexE>
    5718:	80 91 2f 02 	lds	r24, 0x022F	; 0x80022f <_ZN7TwoWire14rxBufferLengthE>
    571c:	e8 17       	cp	r30, r24
    571e:	30 f4       	brcc	.+12     	; 0x572c <_ZN7TwoWire4peekEv+0x18>
    5720:	f0 e0       	ldi	r31, 0x00	; 0
    5722:	ef 5c       	subi	r30, 0xCF	; 207
    5724:	fd 4f       	sbci	r31, 0xFD	; 253
    5726:	80 81       	ld	r24, Z
    5728:	90 e0       	ldi	r25, 0x00	; 0
    572a:	08 95       	ret
    572c:	8f ef       	ldi	r24, 0xFF	; 255
    572e:	9f ef       	ldi	r25, 0xFF	; 255
    5730:	08 95       	ret

00005732 <_ZN7TwoWire5flushEv>:
    5732:	08 95       	ret

00005734 <_ZN7TwoWire16onReceiveServiceEPhi>:
    5734:	cf 93       	push	r28
    5736:	df 93       	push	r29
    5738:	ec 01       	movw	r28, r24
    573a:	e0 91 07 02 	lds	r30, 0x0207	; 0x800207 <_ZN7TwoWire14user_onReceiveE>
    573e:	f0 91 08 02 	lds	r31, 0x0208	; 0x800208 <_ZN7TwoWire14user_onReceiveE+0x1>
    5742:	30 97       	sbiw	r30, 0x00	; 0
    5744:	f1 f0       	breq	.+60     	; 0x5782 <_ZN7TwoWire16onReceiveServiceEPhi+0x4e>
    5746:	90 91 30 02 	lds	r25, 0x0230	; 0x800230 <_ZN7TwoWire13rxBufferIndexE>
    574a:	80 91 2f 02 	lds	r24, 0x022F	; 0x80022f <_ZN7TwoWire14rxBufferLengthE>
    574e:	98 17       	cp	r25, r24
    5750:	c0 f0       	brcs	.+48     	; 0x5782 <_ZN7TwoWire16onReceiveServiceEPhi+0x4e>
    5752:	90 e0       	ldi	r25, 0x00	; 0
    5754:	29 2f       	mov	r18, r25
    5756:	30 e0       	ldi	r19, 0x00	; 0
    5758:	26 17       	cp	r18, r22
    575a:	37 07       	cpc	r19, r23
    575c:	54 f4       	brge	.+20     	; 0x5772 <_ZN7TwoWire16onReceiveServiceEPhi+0x3e>
    575e:	de 01       	movw	r26, r28
    5760:	a2 0f       	add	r26, r18
    5762:	b3 1f       	adc	r27, r19
    5764:	4c 91       	ld	r20, X
    5766:	d9 01       	movw	r26, r18
    5768:	af 5c       	subi	r26, 0xCF	; 207
    576a:	bd 4f       	sbci	r27, 0xFD	; 253
    576c:	4c 93       	st	X, r20
    576e:	9f 5f       	subi	r25, 0xFF	; 255
    5770:	f1 cf       	rjmp	.-30     	; 0x5754 <_ZN7TwoWire16onReceiveServiceEPhi+0x20>
    5772:	10 92 30 02 	sts	0x0230, r1	; 0x800230 <_ZN7TwoWire13rxBufferIndexE>
    5776:	60 93 2f 02 	sts	0x022F, r22	; 0x80022f <_ZN7TwoWire14rxBufferLengthE>
    577a:	cb 01       	movw	r24, r22
    577c:	df 91       	pop	r29
    577e:	cf 91       	pop	r28
    5780:	09 94       	ijmp
    5782:	df 91       	pop	r29
    5784:	cf 91       	pop	r28
    5786:	08 95       	ret

00005788 <_ZN7TwoWire16onRequestServiceEv>:
    5788:	e0 91 09 02 	lds	r30, 0x0209	; 0x800209 <_ZN7TwoWire14user_onRequestE>
    578c:	f0 91 0a 02 	lds	r31, 0x020A	; 0x80020a <_ZN7TwoWire14user_onRequestE+0x1>
    5790:	30 97       	sbiw	r30, 0x00	; 0
    5792:	29 f0       	breq	.+10     	; 0x579e <_ZN7TwoWire16onRequestServiceEv+0x16>
    5794:	10 92 0d 02 	sts	0x020D, r1	; 0x80020d <_ZN7TwoWire13txBufferIndexE>
    5798:	10 92 0c 02 	sts	0x020C, r1	; 0x80020c <_ZN7TwoWire14txBufferLengthE>
    579c:	09 94       	ijmp
    579e:	08 95       	ret

000057a0 <_ZN7TwoWire5writeEPKhj>:
    57a0:	cf 92       	push	r12
    57a2:	df 92       	push	r13
    57a4:	ef 92       	push	r14
    57a6:	ff 92       	push	r15
    57a8:	0f 93       	push	r16
    57aa:	1f 93       	push	r17
    57ac:	cf 93       	push	r28
    57ae:	df 93       	push	r29
    57b0:	7c 01       	movw	r14, r24
    57b2:	cb 01       	movw	r24, r22
    57b4:	8a 01       	movw	r16, r20
    57b6:	20 91 0b 02 	lds	r18, 0x020B	; 0x80020b <_ZN7TwoWire12transmittingE>
    57ba:	22 23       	and	r18, r18
    57bc:	89 f0       	breq	.+34     	; 0x57e0 <_ZN7TwoWire5writeEPKhj+0x40>
    57be:	eb 01       	movw	r28, r22
    57c0:	6b 01       	movw	r12, r22
    57c2:	c4 0e       	add	r12, r20
    57c4:	d5 1e       	adc	r13, r21
    57c6:	cc 15       	cp	r28, r12
    57c8:	dd 05       	cpc	r29, r13
    57ca:	69 f0       	breq	.+26     	; 0x57e6 <_ZN7TwoWire5writeEPKhj+0x46>
    57cc:	69 91       	ld	r22, Y+
    57ce:	d7 01       	movw	r26, r14
    57d0:	ed 91       	ld	r30, X+
    57d2:	fc 91       	ld	r31, X
    57d4:	01 90       	ld	r0, Z+
    57d6:	f0 81       	ld	r31, Z
    57d8:	e0 2d       	mov	r30, r0
    57da:	c7 01       	movw	r24, r14
    57dc:	09 95       	icall
    57de:	f3 cf       	rjmp	.-26     	; 0x57c6 <_ZN7TwoWire5writeEPKhj+0x26>
    57e0:	64 2f       	mov	r22, r20
    57e2:	0e 94 b8 2d 	call	0x5b70	; 0x5b70 <twi_transmit>
    57e6:	c8 01       	movw	r24, r16
    57e8:	df 91       	pop	r29
    57ea:	cf 91       	pop	r28
    57ec:	1f 91       	pop	r17
    57ee:	0f 91       	pop	r16
    57f0:	ff 90       	pop	r15
    57f2:	ef 90       	pop	r14
    57f4:	df 90       	pop	r13
    57f6:	cf 90       	pop	r12
    57f8:	08 95       	ret

000057fa <_ZN7TwoWire5writeEh>:
    57fa:	cf 93       	push	r28
    57fc:	df 93       	push	r29
    57fe:	1f 92       	push	r1
    5800:	cd b7       	in	r28, 0x3d	; 61
    5802:	de b7       	in	r29, 0x3e	; 62
    5804:	69 83       	std	Y+1, r22	; 0x01
    5806:	20 91 0b 02 	lds	r18, 0x020B	; 0x80020b <_ZN7TwoWire12transmittingE>
    580a:	22 23       	and	r18, r18
    580c:	d1 f0       	breq	.+52     	; 0x5842 <_ZN7TwoWire5writeEh+0x48>
    580e:	20 91 0c 02 	lds	r18, 0x020C	; 0x80020c <_ZN7TwoWire14txBufferLengthE>
    5812:	20 32       	cpi	r18, 0x20	; 32
    5814:	40 f0       	brcs	.+16     	; 0x5826 <_ZN7TwoWire5writeEh+0x2c>
    5816:	21 e0       	ldi	r18, 0x01	; 1
    5818:	30 e0       	ldi	r19, 0x00	; 0
    581a:	fc 01       	movw	r30, r24
    581c:	33 83       	std	Z+3, r19	; 0x03
    581e:	22 83       	std	Z+2, r18	; 0x02
    5820:	80 e0       	ldi	r24, 0x00	; 0
    5822:	90 e0       	ldi	r25, 0x00	; 0
    5824:	15 c0       	rjmp	.+42     	; 0x5850 <_ZN7TwoWire5writeEh+0x56>
    5826:	80 91 0d 02 	lds	r24, 0x020D	; 0x80020d <_ZN7TwoWire13txBufferIndexE>
    582a:	e8 2f       	mov	r30, r24
    582c:	f0 e0       	ldi	r31, 0x00	; 0
    582e:	e2 5f       	subi	r30, 0xF2	; 242
    5830:	fd 4f       	sbci	r31, 0xFD	; 253
    5832:	99 81       	ldd	r25, Y+1	; 0x01
    5834:	90 83       	st	Z, r25
    5836:	8f 5f       	subi	r24, 0xFF	; 255
    5838:	80 93 0d 02 	sts	0x020D, r24	; 0x80020d <_ZN7TwoWire13txBufferIndexE>
    583c:	80 93 0c 02 	sts	0x020C, r24	; 0x80020c <_ZN7TwoWire14txBufferLengthE>
    5840:	05 c0       	rjmp	.+10     	; 0x584c <_ZN7TwoWire5writeEh+0x52>
    5842:	61 e0       	ldi	r22, 0x01	; 1
    5844:	ce 01       	movw	r24, r28
    5846:	01 96       	adiw	r24, 0x01	; 1
    5848:	0e 94 b8 2d 	call	0x5b70	; 0x5b70 <twi_transmit>
    584c:	81 e0       	ldi	r24, 0x01	; 1
    584e:	90 e0       	ldi	r25, 0x00	; 0
    5850:	0f 90       	pop	r0
    5852:	df 91       	pop	r29
    5854:	cf 91       	pop	r28
    5856:	08 95       	ret

00005858 <_ZN7TwoWireC1Ev>:
    5858:	fc 01       	movw	r30, r24
    585a:	13 82       	std	Z+3, r1	; 0x03
    585c:	12 82       	std	Z+2, r1	; 0x02
    585e:	88 ee       	ldi	r24, 0xE8	; 232
    5860:	93 e0       	ldi	r25, 0x03	; 3
    5862:	a0 e0       	ldi	r26, 0x00	; 0
    5864:	b0 e0       	ldi	r27, 0x00	; 0
    5866:	84 83       	std	Z+4, r24	; 0x04
    5868:	95 83       	std	Z+5, r25	; 0x05
    586a:	a6 83       	std	Z+6, r26	; 0x06
    586c:	b7 83       	std	Z+7, r27	; 0x07
    586e:	86 e8       	ldi	r24, 0x86	; 134
    5870:	91 e0       	ldi	r25, 0x01	; 1
    5872:	91 83       	std	Z+1, r25	; 0x01
    5874:	80 83       	st	Z, r24
    5876:	08 95       	ret

00005878 <_ZN7TwoWire5beginEv>:
    5878:	10 92 30 02 	sts	0x0230, r1	; 0x800230 <_ZN7TwoWire13rxBufferIndexE>
    587c:	10 92 2f 02 	sts	0x022F, r1	; 0x80022f <_ZN7TwoWire14rxBufferLengthE>
    5880:	10 92 0d 02 	sts	0x020D, r1	; 0x80020d <_ZN7TwoWire13txBufferIndexE>
    5884:	10 92 0c 02 	sts	0x020C, r1	; 0x80020c <_ZN7TwoWire14txBufferLengthE>
    5888:	0e 94 79 2d 	call	0x5af2	; 0x5af2 <twi_init>
    588c:	84 ec       	ldi	r24, 0xC4	; 196
    588e:	9b e2       	ldi	r25, 0x2B	; 43
    5890:	0e 94 e5 2d 	call	0x5bca	; 0x5bca <twi_attachSlaveTxEvent>
    5894:	8a e9       	ldi	r24, 0x9A	; 154
    5896:	9b e2       	ldi	r25, 0x2B	; 43
    5898:	0c 94 e0 2d 	jmp	0x5bc0	; 0x5bc0 <twi_attachSlaveRxEvent>

0000589c <_ZN7TwoWire8setClockEm>:
    589c:	cb 01       	movw	r24, r22
    589e:	ba 01       	movw	r22, r20
    58a0:	0c 94 a4 2d 	jmp	0x5b48	; 0x5b48 <twi_setFrequency>

000058a4 <_ZN7TwoWire17beginTransmissionEh>:
    58a4:	81 e0       	ldi	r24, 0x01	; 1
    58a6:	80 93 0b 02 	sts	0x020B, r24	; 0x80020b <_ZN7TwoWire12transmittingE>
    58aa:	60 93 2e 02 	sts	0x022E, r22	; 0x80022e <_ZN7TwoWire9txAddressE>
    58ae:	10 92 0d 02 	sts	0x020D, r1	; 0x80020d <_ZN7TwoWire13txBufferIndexE>
    58b2:	10 92 0c 02 	sts	0x020C, r1	; 0x80020c <_ZN7TwoWire14txBufferLengthE>
    58b6:	08 95       	ret

000058b8 <_ZN7TwoWire17beginTransmissionEi>:
    58b8:	0c 94 52 2c 	jmp	0x58a4	; 0x58a4 <_ZN7TwoWire17beginTransmissionEh>

000058bc <_ZN7TwoWire15endTransmissionEh>:
    58bc:	0f 93       	push	r16
    58be:	06 2f       	mov	r16, r22
    58c0:	21 e0       	ldi	r18, 0x01	; 1
    58c2:	40 91 0c 02 	lds	r20, 0x020C	; 0x80020c <_ZN7TwoWire14txBufferLengthE>
    58c6:	6e e0       	ldi	r22, 0x0E	; 14
    58c8:	72 e0       	ldi	r23, 0x02	; 2
    58ca:	80 91 2e 02 	lds	r24, 0x022E	; 0x80022e <_ZN7TwoWire9txAddressE>
    58ce:	0e 94 ef 2e 	call	0x5dde	; 0x5dde <twi_writeTo>
    58d2:	10 92 0d 02 	sts	0x020D, r1	; 0x80020d <_ZN7TwoWire13txBufferIndexE>
    58d6:	10 92 0c 02 	sts	0x020C, r1	; 0x80020c <_ZN7TwoWire14txBufferLengthE>
    58da:	10 92 0b 02 	sts	0x020B, r1	; 0x80020b <_ZN7TwoWire12transmittingE>
    58de:	0f 91       	pop	r16
    58e0:	08 95       	ret

000058e2 <_ZN7TwoWire11requestFromEhhmhh>:
    58e2:	4f 92       	push	r4
    58e4:	5f 92       	push	r5
    58e6:	6f 92       	push	r6
    58e8:	7f 92       	push	r7
    58ea:	af 92       	push	r10
    58ec:	bf 92       	push	r11
    58ee:	cf 92       	push	r12
    58f0:	ef 92       	push	r14
    58f2:	ff 92       	push	r15
    58f4:	0f 93       	push	r16
    58f6:	1f 93       	push	r17
    58f8:	cf 93       	push	r28
    58fa:	df 93       	push	r29
    58fc:	5c 01       	movw	r10, r24
    58fe:	f6 2e       	mov	r15, r22
    5900:	d4 2f       	mov	r29, r20
    5902:	28 01       	movw	r4, r16
    5904:	39 01       	movw	r6, r18
    5906:	ee 20       	and	r14, r14
    5908:	21 f1       	breq	.+72     	; 0x5952 <_ZN7TwoWire11requestFromEhhmhh+0x70>
    590a:	0e 94 52 2c 	call	0x58a4	; 0x58a4 <_ZN7TwoWire17beginTransmissionEh>
    590e:	ce 2d       	mov	r28, r14
    5910:	c4 30       	cpi	r28, 0x04	; 4
    5912:	08 f0       	brcs	.+2      	; 0x5916 <_ZN7TwoWire11requestFromEhhmhh+0x34>
    5914:	c3 e0       	ldi	r28, 0x03	; 3
    5916:	c1 50       	subi	r28, 0x01	; 1
    5918:	c0 f0       	brcs	.+48     	; 0x594a <_ZN7TwoWire11requestFromEhhmhh+0x68>
    591a:	28 e0       	ldi	r18, 0x08	; 8
    591c:	c2 9f       	mul	r28, r18
    591e:	c0 01       	movw	r24, r0
    5920:	11 24       	eor	r1, r1
    5922:	a3 01       	movw	r20, r6
    5924:	92 01       	movw	r18, r4
    5926:	04 c0       	rjmp	.+8      	; 0x5930 <_ZN7TwoWire11requestFromEhhmhh+0x4e>
    5928:	56 95       	lsr	r21
    592a:	47 95       	ror	r20
    592c:	37 95       	ror	r19
    592e:	27 95       	ror	r18
    5930:	8a 95       	dec	r24
    5932:	d2 f7       	brpl	.-12     	; 0x5928 <_ZN7TwoWire11requestFromEhhmhh+0x46>
    5934:	ca 01       	movw	r24, r20
    5936:	b9 01       	movw	r22, r18
    5938:	d5 01       	movw	r26, r10
    593a:	ed 91       	ld	r30, X+
    593c:	fc 91       	ld	r31, X
    593e:	01 90       	ld	r0, Z+
    5940:	f0 81       	ld	r31, Z
    5942:	e0 2d       	mov	r30, r0
    5944:	c5 01       	movw	r24, r10
    5946:	09 95       	icall
    5948:	e6 cf       	rjmp	.-52     	; 0x5916 <_ZN7TwoWire11requestFromEhhmhh+0x34>
    594a:	60 e0       	ldi	r22, 0x00	; 0
    594c:	c5 01       	movw	r24, r10
    594e:	0e 94 5e 2c 	call	0x58bc	; 0x58bc <_ZN7TwoWire15endTransmissionEh>
    5952:	4d 2f       	mov	r20, r29
    5954:	d1 32       	cpi	r29, 0x21	; 33
    5956:	08 f0       	brcs	.+2      	; 0x595a <_ZN7TwoWire11requestFromEhhmhh+0x78>
    5958:	40 e2       	ldi	r20, 0x20	; 32
    595a:	2c 2d       	mov	r18, r12
    595c:	61 e3       	ldi	r22, 0x31	; 49
    595e:	72 e0       	ldi	r23, 0x02	; 2
    5960:	8f 2d       	mov	r24, r15
    5962:	0e 94 06 2e 	call	0x5c0c	; 0x5c0c <twi_readFrom>
    5966:	10 92 30 02 	sts	0x0230, r1	; 0x800230 <_ZN7TwoWire13rxBufferIndexE>
    596a:	80 93 2f 02 	sts	0x022F, r24	; 0x80022f <_ZN7TwoWire14rxBufferLengthE>
    596e:	df 91       	pop	r29
    5970:	cf 91       	pop	r28
    5972:	1f 91       	pop	r17
    5974:	0f 91       	pop	r16
    5976:	ff 90       	pop	r15
    5978:	ef 90       	pop	r14
    597a:	cf 90       	pop	r12
    597c:	bf 90       	pop	r11
    597e:	af 90       	pop	r10
    5980:	7f 90       	pop	r7
    5982:	6f 90       	pop	r6
    5984:	5f 90       	pop	r5
    5986:	4f 90       	pop	r4
    5988:	08 95       	ret

0000598a <_ZN7TwoWire11requestFromEhhh>:
    598a:	cf 92       	push	r12
    598c:	ef 92       	push	r14
    598e:	0f 93       	push	r16
    5990:	1f 93       	push	r17
    5992:	c2 2e       	mov	r12, r18
    5994:	e1 2c       	mov	r14, r1
    5996:	00 e0       	ldi	r16, 0x00	; 0
    5998:	10 e0       	ldi	r17, 0x00	; 0
    599a:	98 01       	movw	r18, r16
    599c:	0e 94 71 2c 	call	0x58e2	; 0x58e2 <_ZN7TwoWire11requestFromEhhmhh>
    59a0:	1f 91       	pop	r17
    59a2:	0f 91       	pop	r16
    59a4:	ef 90       	pop	r14
    59a6:	cf 90       	pop	r12
    59a8:	08 95       	ret

000059aa <_ZN7TwoWire11requestFromEii>:
    59aa:	21 e0       	ldi	r18, 0x01	; 1
    59ac:	0c 94 c5 2c 	jmp	0x598a	; 0x598a <_ZN7TwoWire11requestFromEhhh>

000059b0 <_ZN7TwoWire15endTransmissionEv>:
    59b0:	61 e0       	ldi	r22, 0x01	; 1
    59b2:	0c 94 5e 2c 	jmp	0x58bc	; 0x58bc <_ZN7TwoWire15endTransmissionEh>

000059b6 <_GLOBAL__sub_I__ZN7TwoWire8rxBufferE>:
}

// Preinstantiate Objects //////////////////////////////////////////////////////

TwoWire Wire = TwoWire();
    59b6:	8b ef       	ldi	r24, 0xFB	; 251
    59b8:	91 e0       	ldi	r25, 0x01	; 1
    59ba:	0c 94 2c 2c 	jmp	0x5858	; 0x5858 <_ZN7TwoWireC1Ev>

000059be <yield>:
 * libraries or sketches that supports cooperative threads.
 *
 * Its defined as a weak symbol and it can be redefined to implement a
 * real cooperative scheduler.
 */
static void __empty() {
    59be:	08 95       	ret

000059c0 <_ZN13PluggableUSB_12getInterfaceEPh>:
		_initEndpoints[lastEp] = node->endpointType[i];
		lastEp++;
	}
	return true;
	// restart USB layer???
}
    59c0:	ef 92       	push	r14
    59c2:	ff 92       	push	r15
    59c4:	0f 93       	push	r16
    59c6:	1f 93       	push	r17
    59c8:	cf 93       	push	r28
    59ca:	df 93       	push	r29
    59cc:	7b 01       	movw	r14, r22
    59ce:	fc 01       	movw	r30, r24
    59d0:	c2 81       	ldd	r28, Z+2	; 0x02
    59d2:	d3 81       	ldd	r29, Z+3	; 0x03
    59d4:	00 e0       	ldi	r16, 0x00	; 0
    59d6:	10 e0       	ldi	r17, 0x00	; 0
    59d8:	20 97       	sbiw	r28, 0x00	; 0
    59da:	81 f0       	breq	.+32     	; 0x59fc <_ZN13PluggableUSB_12getInterfaceEPh+0x3c>
    59dc:	e8 81       	ld	r30, Y
    59de:	f9 81       	ldd	r31, Y+1	; 0x01
    59e0:	02 80       	ldd	r0, Z+2	; 0x02
    59e2:	f3 81       	ldd	r31, Z+3	; 0x03
    59e4:	e0 2d       	mov	r30, r0
    59e6:	b7 01       	movw	r22, r14
    59e8:	ce 01       	movw	r24, r28
    59ea:	09 95       	icall
    59ec:	97 fd       	sbrc	r25, 7
    59ee:	08 c0       	rjmp	.+16     	; 0x5a00 <_ZN13PluggableUSB_12getInterfaceEPh+0x40>
    59f0:	08 0f       	add	r16, r24
    59f2:	19 1f       	adc	r17, r25
    59f4:	08 84       	ldd	r0, Y+8	; 0x08
    59f6:	d9 85       	ldd	r29, Y+9	; 0x09
    59f8:	c0 2d       	mov	r28, r0
    59fa:	ee cf       	rjmp	.-36     	; 0x59d8 <_ZN13PluggableUSB_12getInterfaceEPh+0x18>
    59fc:	c8 01       	movw	r24, r16
    59fe:	02 c0       	rjmp	.+4      	; 0x5a04 <_ZN13PluggableUSB_12getInterfaceEPh+0x44>
    5a00:	8f ef       	ldi	r24, 0xFF	; 255
    5a02:	9f ef       	ldi	r25, 0xFF	; 255
    5a04:	df 91       	pop	r29
    5a06:	cf 91       	pop	r28
    5a08:	1f 91       	pop	r17
    5a0a:	0f 91       	pop	r16
    5a0c:	ff 90       	pop	r15
    5a0e:	ef 90       	pop	r14
    5a10:	08 95       	ret

00005a12 <_ZN13PluggableUSB_13getDescriptorER8USBSetup>:
    5a12:	0f 93       	push	r16
    5a14:	1f 93       	push	r17
    5a16:	cf 93       	push	r28
    5a18:	df 93       	push	r29
    5a1a:	8b 01       	movw	r16, r22
    5a1c:	fc 01       	movw	r30, r24
    5a1e:	c2 81       	ldd	r28, Z+2	; 0x02
    5a20:	d3 81       	ldd	r29, Z+3	; 0x03
    5a22:	20 97       	sbiw	r28, 0x00	; 0
    5a24:	71 f0       	breq	.+28     	; 0x5a42 <_ZN13PluggableUSB_13getDescriptorER8USBSetup+0x30>
    5a26:	e8 81       	ld	r30, Y
    5a28:	f9 81       	ldd	r31, Y+1	; 0x01
    5a2a:	04 80       	ldd	r0, Z+4	; 0x04
    5a2c:	f5 81       	ldd	r31, Z+5	; 0x05
    5a2e:	e0 2d       	mov	r30, r0
    5a30:	b8 01       	movw	r22, r16
    5a32:	ce 01       	movw	r24, r28
    5a34:	09 95       	icall
    5a36:	00 97       	sbiw	r24, 0x00	; 0
    5a38:	31 f4       	brne	.+12     	; 0x5a46 <_ZN13PluggableUSB_13getDescriptorER8USBSetup+0x34>
    5a3a:	08 84       	ldd	r0, Y+8	; 0x08
    5a3c:	d9 85       	ldd	r29, Y+9	; 0x09
    5a3e:	c0 2d       	mov	r28, r0
    5a40:	f0 cf       	rjmp	.-32     	; 0x5a22 <_ZN13PluggableUSB_13getDescriptorER8USBSetup+0x10>
    5a42:	80 e0       	ldi	r24, 0x00	; 0
    5a44:	90 e0       	ldi	r25, 0x00	; 0
    5a46:	df 91       	pop	r29
    5a48:	cf 91       	pop	r28
    5a4a:	1f 91       	pop	r17
    5a4c:	0f 91       	pop	r16
    5a4e:	08 95       	ret

00005a50 <_ZN13PluggableUSB_12getShortNameEPc>:
    5a50:	0f 93       	push	r16
    5a52:	1f 93       	push	r17
    5a54:	cf 93       	push	r28
    5a56:	df 93       	push	r29
    5a58:	8b 01       	movw	r16, r22
    5a5a:	fc 01       	movw	r30, r24
    5a5c:	c2 81       	ldd	r28, Z+2	; 0x02
    5a5e:	d3 81       	ldd	r29, Z+3	; 0x03
    5a60:	20 97       	sbiw	r28, 0x00	; 0
    5a62:	71 f0       	breq	.+28     	; 0x5a80 <_ZN13PluggableUSB_12getShortNameEPc+0x30>
    5a64:	e8 81       	ld	r30, Y
    5a66:	f9 81       	ldd	r31, Y+1	; 0x01
    5a68:	06 80       	ldd	r0, Z+6	; 0x06
    5a6a:	f7 81       	ldd	r31, Z+7	; 0x07
    5a6c:	e0 2d       	mov	r30, r0
    5a6e:	b8 01       	movw	r22, r16
    5a70:	ce 01       	movw	r24, r28
    5a72:	09 95       	icall
    5a74:	08 0f       	add	r16, r24
    5a76:	11 1d       	adc	r17, r1
    5a78:	08 84       	ldd	r0, Y+8	; 0x08
    5a7a:	d9 85       	ldd	r29, Y+9	; 0x09
    5a7c:	c0 2d       	mov	r28, r0
    5a7e:	f0 cf       	rjmp	.-32     	; 0x5a60 <_ZN13PluggableUSB_12getShortNameEPc+0x10>
    5a80:	f8 01       	movw	r30, r16
    5a82:	10 82       	st	Z, r1
    5a84:	df 91       	pop	r29
    5a86:	cf 91       	pop	r28
    5a88:	1f 91       	pop	r17
    5a8a:	0f 91       	pop	r16
    5a8c:	08 95       	ret

00005a8e <_ZN13PluggableUSB_5setupER8USBSetup>:
    5a8e:	0f 93       	push	r16
    5a90:	1f 93       	push	r17
    5a92:	cf 93       	push	r28
    5a94:	df 93       	push	r29
    5a96:	8b 01       	movw	r16, r22
    5a98:	fc 01       	movw	r30, r24
    5a9a:	c2 81       	ldd	r28, Z+2	; 0x02
    5a9c:	d3 81       	ldd	r29, Z+3	; 0x03
    5a9e:	20 97       	sbiw	r28, 0x00	; 0
    5aa0:	71 f0       	breq	.+28     	; 0x5abe <_ZN13PluggableUSB_5setupER8USBSetup+0x30>
    5aa2:	e8 81       	ld	r30, Y
    5aa4:	f9 81       	ldd	r31, Y+1	; 0x01
    5aa6:	01 90       	ld	r0, Z+
    5aa8:	f0 81       	ld	r31, Z
    5aaa:	e0 2d       	mov	r30, r0
    5aac:	b8 01       	movw	r22, r16
    5aae:	ce 01       	movw	r24, r28
    5ab0:	09 95       	icall
    5ab2:	81 11       	cpse	r24, r1
    5ab4:	05 c0       	rjmp	.+10     	; 0x5ac0 <_ZN13PluggableUSB_5setupER8USBSetup+0x32>
    5ab6:	08 84       	ldd	r0, Y+8	; 0x08
    5ab8:	d9 85       	ldd	r29, Y+9	; 0x09
    5aba:	c0 2d       	mov	r28, r0
    5abc:	f0 cf       	rjmp	.-32     	; 0x5a9e <_ZN13PluggableUSB_5setupER8USBSetup+0x10>
    5abe:	80 e0       	ldi	r24, 0x00	; 0
    5ac0:	df 91       	pop	r29
    5ac2:	cf 91       	pop	r28
    5ac4:	1f 91       	pop	r17
    5ac6:	0f 91       	pop	r16
    5ac8:	08 95       	ret

00005aca <_Z12PluggableUSBv>:

PluggableUSB_& PluggableUSB()
{
	static PluggableUSB_ obj;
    5aca:	80 91 55 02 	lds	r24, 0x0255	; 0x800255 <_ZGVZ12PluggableUSBvE3obj>
    5ace:	81 11       	cpse	r24, r1
    5ad0:	0d c0       	rjmp	.+26     	; 0x5aec <_Z12PluggableUSBv+0x22>
	return obj;
}

PluggableUSB_::PluggableUSB_() : lastIf(CDC_ACM_INTERFACE + CDC_INTERFACE_COUNT),
                                 lastEp(CDC_FIRST_ENDPOINT + CDC_ENPOINT_COUNT),
                                 rootNode(NULL)
    5ad2:	82 e0       	ldi	r24, 0x02	; 2
    5ad4:	80 93 51 02 	sts	0x0251, r24	; 0x800251 <_ZZ12PluggableUSBvE3obj>
    5ad8:	84 e0       	ldi	r24, 0x04	; 4
    5ada:	80 93 52 02 	sts	0x0252, r24	; 0x800252 <_ZZ12PluggableUSBvE3obj+0x1>
    5ade:	10 92 54 02 	sts	0x0254, r1	; 0x800254 <_ZZ12PluggableUSBvE3obj+0x3>
    5ae2:	10 92 53 02 	sts	0x0253, r1	; 0x800253 <_ZZ12PluggableUSBvE3obj+0x2>
	// restart USB layer???
}

PluggableUSB_& PluggableUSB()
{
	static PluggableUSB_ obj;
    5ae6:	81 e0       	ldi	r24, 0x01	; 1
    5ae8:	80 93 55 02 	sts	0x0255, r24	; 0x800255 <_ZGVZ12PluggableUSBvE3obj>
	return obj;
}
    5aec:	81 e5       	ldi	r24, 0x51	; 81
    5aee:	92 e0       	ldi	r25, 0x02	; 2
    5af0:	08 95       	ret

00005af2 <twi_init>:
  bool flag = twi_timed_out_flag;
  if (clear_flag){
    twi_timed_out_flag = false;
  }
  return(flag);
}
    5af2:	10 92 d0 02 	sts	0x02D0, r1	; 0x8002d0 <twi_state>
    5af6:	81 e0       	ldi	r24, 0x01	; 1
    5af8:	80 93 ce 02 	sts	0x02CE, r24	; 0x8002ce <twi_sendStop>
    5afc:	10 92 cd 02 	sts	0x02CD, r1	; 0x8002cd <twi_inRepStart>
    5b00:	61 e0       	ldi	r22, 0x01	; 1
    5b02:	82 e0       	ldi	r24, 0x02	; 2
    5b04:	0e 94 16 2b 	call	0x562c	; 0x562c <digitalWrite>
    5b08:	61 e0       	ldi	r22, 0x01	; 1
    5b0a:	83 e0       	ldi	r24, 0x03	; 3
    5b0c:	0e 94 16 2b 	call	0x562c	; 0x562c <digitalWrite>
    5b10:	e9 eb       	ldi	r30, 0xB9	; 185
    5b12:	f0 e0       	ldi	r31, 0x00	; 0
    5b14:	80 81       	ld	r24, Z
    5b16:	8e 7f       	andi	r24, 0xFE	; 254
    5b18:	80 83       	st	Z, r24
    5b1a:	80 81       	ld	r24, Z
    5b1c:	8d 7f       	andi	r24, 0xFD	; 253
    5b1e:	80 83       	st	Z, r24
    5b20:	88 e4       	ldi	r24, 0x48	; 72
    5b22:	80 93 b8 00 	sts	0x00B8, r24	; 0x8000b8 <__TEXT_REGION_LENGTH__+0x7f80b8>
    5b26:	85 e4       	ldi	r24, 0x45	; 69
    5b28:	80 93 bc 00 	sts	0x00BC, r24	; 0x8000bc <__TEXT_REGION_LENGTH__+0x7f80bc>
    5b2c:	08 95       	ret

00005b2e <twi_disable>:
    5b2e:	ec eb       	ldi	r30, 0xBC	; 188
    5b30:	f0 e0       	ldi	r31, 0x00	; 0
    5b32:	80 81       	ld	r24, Z
    5b34:	8a 7b       	andi	r24, 0xBA	; 186
    5b36:	80 83       	st	Z, r24
    5b38:	60 e0       	ldi	r22, 0x00	; 0
    5b3a:	82 e0       	ldi	r24, 0x02	; 2
    5b3c:	0e 94 16 2b 	call	0x562c	; 0x562c <digitalWrite>
    5b40:	60 e0       	ldi	r22, 0x00	; 0
    5b42:	83 e0       	ldi	r24, 0x03	; 3
    5b44:	0c 94 16 2b 	jmp	0x562c	; 0x562c <digitalWrite>

00005b48 <twi_setFrequency>:
    5b48:	9b 01       	movw	r18, r22
    5b4a:	ac 01       	movw	r20, r24
    5b4c:	60 e0       	ldi	r22, 0x00	; 0
    5b4e:	74 e2       	ldi	r23, 0x24	; 36
    5b50:	84 ef       	ldi	r24, 0xF4	; 244
    5b52:	90 e0       	ldi	r25, 0x00	; 0
    5b54:	0e 94 62 31 	call	0x62c4	; 0x62c4 <__udivmodsi4>
    5b58:	da 01       	movw	r26, r20
    5b5a:	c9 01       	movw	r24, r18
    5b5c:	40 97       	sbiw	r24, 0x10	; 16
    5b5e:	a1 09       	sbc	r26, r1
    5b60:	b1 09       	sbc	r27, r1
    5b62:	b6 95       	lsr	r27
    5b64:	a7 95       	ror	r26
    5b66:	97 95       	ror	r25
    5b68:	87 95       	ror	r24
    5b6a:	80 93 b8 00 	sts	0x00B8, r24	; 0x8000b8 <__TEXT_REGION_LENGTH__+0x7f80b8>
    5b6e:	08 95       	ret

00005b70 <twi_transmit>:
    5b70:	40 91 7f 02 	lds	r20, 0x027F	; 0x80027f <twi_txBufferLength>
    5b74:	26 2f       	mov	r18, r22
    5b76:	30 e0       	ldi	r19, 0x00	; 0
    5b78:	24 0f       	add	r18, r20
    5b7a:	31 1d       	adc	r19, r1
    5b7c:	21 32       	cpi	r18, 0x21	; 33
    5b7e:	31 05       	cpc	r19, r1
    5b80:	dc f4       	brge	.+54     	; 0x5bb8 <twi_transmit+0x48>
    5b82:	20 91 d0 02 	lds	r18, 0x02D0	; 0x8002d0 <twi_state>
    5b86:	24 30       	cpi	r18, 0x04	; 4
    5b88:	c9 f4       	brne	.+50     	; 0x5bbc <twi_transmit+0x4c>
    5b8a:	fc 01       	movw	r30, r24
    5b8c:	80 e0       	ldi	r24, 0x00	; 0
    5b8e:	90 e0       	ldi	r25, 0x00	; 0
    5b90:	86 17       	cp	r24, r22
    5b92:	58 f4       	brcc	.+22     	; 0x5baa <twi_transmit+0x3a>
    5b94:	30 91 7f 02 	lds	r19, 0x027F	; 0x80027f <twi_txBufferLength>
    5b98:	21 91       	ld	r18, Z+
    5b9a:	dc 01       	movw	r26, r24
    5b9c:	af 57       	subi	r26, 0x7F	; 127
    5b9e:	bd 4f       	sbci	r27, 0xFD	; 253
    5ba0:	a3 0f       	add	r26, r19
    5ba2:	b1 1d       	adc	r27, r1
    5ba4:	2c 93       	st	X, r18
    5ba6:	01 96       	adiw	r24, 0x01	; 1
    5ba8:	f3 cf       	rjmp	.-26     	; 0x5b90 <twi_transmit+0x20>
    5baa:	80 91 7f 02 	lds	r24, 0x027F	; 0x80027f <twi_txBufferLength>
    5bae:	68 0f       	add	r22, r24
    5bb0:	60 93 7f 02 	sts	0x027F, r22	; 0x80027f <twi_txBufferLength>
    5bb4:	80 e0       	ldi	r24, 0x00	; 0
    5bb6:	08 95       	ret
    5bb8:	81 e0       	ldi	r24, 0x01	; 1
    5bba:	08 95       	ret
    5bbc:	82 e0       	ldi	r24, 0x02	; 2
    5bbe:	08 95       	ret

00005bc0 <twi_attachSlaveRxEvent>:
    5bc0:	90 93 c4 02 	sts	0x02C4, r25	; 0x8002c4 <twi_onSlaveReceive+0x1>
    5bc4:	80 93 c3 02 	sts	0x02C3, r24	; 0x8002c3 <twi_onSlaveReceive>
    5bc8:	08 95       	ret

00005bca <twi_attachSlaveTxEvent>:
    5bca:	90 93 c6 02 	sts	0x02C6, r25	; 0x8002c6 <twi_onSlaveTransmit+0x1>
    5bce:	80 93 c5 02 	sts	0x02C5, r24	; 0x8002c5 <twi_onSlaveTransmit>
    5bd2:	08 95       	ret

00005bd4 <twi_releaseBus>:
    5bd4:	85 ec       	ldi	r24, 0xC5	; 197
    5bd6:	80 93 bc 00 	sts	0x00BC, r24	; 0x8000bc <__TEXT_REGION_LENGTH__+0x7f80bc>
    5bda:	10 92 d0 02 	sts	0x02D0, r1	; 0x8002d0 <twi_state>
    5bde:	08 95       	ret

00005be0 <twi_handleTimeout>:
    5be0:	cf 93       	push	r28
    5be2:	df 93       	push	r29
    5be4:	91 e0       	ldi	r25, 0x01	; 1
    5be6:	90 93 c8 02 	sts	0x02C8, r25	; 0x8002c8 <twi_timed_out_flag>
    5bea:	88 23       	and	r24, r24
    5bec:	61 f0       	breq	.+24     	; 0x5c06 <twi_handleTimeout+0x26>
    5bee:	c0 91 b8 00 	lds	r28, 0x00B8	; 0x8000b8 <__TEXT_REGION_LENGTH__+0x7f80b8>
    5bf2:	d0 91 ba 00 	lds	r29, 0x00BA	; 0x8000ba <__TEXT_REGION_LENGTH__+0x7f80ba>
    5bf6:	0e 94 97 2d 	call	0x5b2e	; 0x5b2e <twi_disable>
    5bfa:	0e 94 79 2d 	call	0x5af2	; 0x5af2 <twi_init>
    5bfe:	d0 93 ba 00 	sts	0x00BA, r29	; 0x8000ba <__TEXT_REGION_LENGTH__+0x7f80ba>
    5c02:	c0 93 b8 00 	sts	0x00B8, r28	; 0x8000b8 <__TEXT_REGION_LENGTH__+0x7f80b8>
    5c06:	df 91       	pop	r29
    5c08:	cf 91       	pop	r28
    5c0a:	08 95       	ret

00005c0c <twi_readFrom>:
    5c0c:	4f 92       	push	r4
    5c0e:	5f 92       	push	r5
    5c10:	6f 92       	push	r6
    5c12:	7f 92       	push	r7
    5c14:	8f 92       	push	r8
    5c16:	9f 92       	push	r9
    5c18:	af 92       	push	r10
    5c1a:	bf 92       	push	r11
    5c1c:	cf 92       	push	r12
    5c1e:	df 92       	push	r13
    5c20:	ef 92       	push	r14
    5c22:	ff 92       	push	r15
    5c24:	0f 93       	push	r16
    5c26:	1f 93       	push	r17
    5c28:	cf 93       	push	r28
    5c2a:	df 93       	push	r29
    5c2c:	f8 2e       	mov	r15, r24
    5c2e:	16 2f       	mov	r17, r22
    5c30:	07 2f       	mov	r16, r23
    5c32:	c4 2f       	mov	r28, r20
    5c34:	e2 2e       	mov	r14, r18
    5c36:	41 32       	cpi	r20, 0x21	; 33
    5c38:	08 f0       	brcs	.+2      	; 0x5c3c <twi_readFrom+0x30>
    5c3a:	be c0       	rjmp	.+380    	; 0x5db8 <twi_readFrom+0x1ac>
    5c3c:	0e 94 db 29 	call	0x53b6	; 0x53b6 <micros>
    5c40:	4b 01       	movw	r8, r22
    5c42:	5c 01       	movw	r10, r24
    5c44:	d0 91 d0 02 	lds	r29, 0x02D0	; 0x8002d0 <twi_state>
    5c48:	dd 23       	and	r29, r29
    5c4a:	31 f1       	breq	.+76     	; 0x5c98 <twi_readFrom+0x8c>
    5c4c:	80 91 c9 02 	lds	r24, 0x02C9	; 0x8002c9 <twi_timeout_us>
    5c50:	90 91 ca 02 	lds	r25, 0x02CA	; 0x8002ca <twi_timeout_us+0x1>
    5c54:	a0 91 cb 02 	lds	r26, 0x02CB	; 0x8002cb <twi_timeout_us+0x2>
    5c58:	b0 91 cc 02 	lds	r27, 0x02CC	; 0x8002cc <twi_timeout_us+0x3>
    5c5c:	89 2b       	or	r24, r25
    5c5e:	8a 2b       	or	r24, r26
    5c60:	8b 2b       	or	r24, r27
    5c62:	81 f3       	breq	.-32     	; 0x5c44 <twi_readFrom+0x38>
    5c64:	0e 94 db 29 	call	0x53b6	; 0x53b6 <micros>
    5c68:	40 90 c9 02 	lds	r4, 0x02C9	; 0x8002c9 <twi_timeout_us>
    5c6c:	50 90 ca 02 	lds	r5, 0x02CA	; 0x8002ca <twi_timeout_us+0x1>
    5c70:	60 90 cb 02 	lds	r6, 0x02CB	; 0x8002cb <twi_timeout_us+0x2>
    5c74:	70 90 cc 02 	lds	r7, 0x02CC	; 0x8002cc <twi_timeout_us+0x3>
    5c78:	dc 01       	movw	r26, r24
    5c7a:	cb 01       	movw	r24, r22
    5c7c:	88 19       	sub	r24, r8
    5c7e:	99 09       	sbc	r25, r9
    5c80:	aa 09       	sbc	r26, r10
    5c82:	bb 09       	sbc	r27, r11
    5c84:	48 16       	cp	r4, r24
    5c86:	59 06       	cpc	r5, r25
    5c88:	6a 06       	cpc	r6, r26
    5c8a:	7b 06       	cpc	r7, r27
    5c8c:	d8 f6       	brcc	.-74     	; 0x5c44 <twi_readFrom+0x38>
    5c8e:	80 91 c7 02 	lds	r24, 0x02C7	; 0x8002c7 <twi_do_reset_on_timeout>
    5c92:	0e 94 f0 2d 	call	0x5be0	; 0x5be0 <twi_handleTimeout>
    5c96:	90 c0       	rjmp	.+288    	; 0x5db8 <twi_readFrom+0x1ac>
    5c98:	81 e0       	ldi	r24, 0x01	; 1
    5c9a:	80 93 d0 02 	sts	0x02D0, r24	; 0x8002d0 <twi_state>
    5c9e:	e0 92 ce 02 	sts	0x02CE, r14	; 0x8002ce <twi_sendStop>
    5ca2:	9f ef       	ldi	r25, 0xFF	; 255
    5ca4:	90 93 5d 02 	sts	0x025D, r25	; 0x80025d <twi_error>
    5ca8:	10 92 a2 02 	sts	0x02A2, r1	; 0x8002a2 <twi_masterBufferIndex>
    5cac:	9c 0f       	add	r25, r28
    5cae:	90 93 a1 02 	sts	0x02A1, r25	; 0x8002a1 <twi_masterBufferLength>
    5cb2:	80 93 cf 02 	sts	0x02CF, r24	; 0x8002cf <twi_slarw>
    5cb6:	90 91 cf 02 	lds	r25, 0x02CF	; 0x8002cf <twi_slarw>
    5cba:	8f 2d       	mov	r24, r15
    5cbc:	88 0f       	add	r24, r24
    5cbe:	89 2b       	or	r24, r25
    5cc0:	80 93 cf 02 	sts	0x02CF, r24	; 0x8002cf <twi_slarw>
    5cc4:	80 91 cd 02 	lds	r24, 0x02CD	; 0x8002cd <twi_inRepStart>
    5cc8:	81 30       	cpi	r24, 0x01	; 1
    5cca:	89 f5       	brne	.+98     	; 0x5d2e <twi_readFrom+0x122>
    5ccc:	10 92 cd 02 	sts	0x02CD, r1	; 0x8002cd <twi_inRepStart>
    5cd0:	0e 94 db 29 	call	0x53b6	; 0x53b6 <micros>
    5cd4:	6b 01       	movw	r12, r22
    5cd6:	7c 01       	movw	r14, r24
    5cd8:	80 91 cf 02 	lds	r24, 0x02CF	; 0x8002cf <twi_slarw>
    5cdc:	80 93 bb 00 	sts	0x00BB, r24	; 0x8000bb <__TEXT_REGION_LENGTH__+0x7f80bb>
    5ce0:	80 91 c9 02 	lds	r24, 0x02C9	; 0x8002c9 <twi_timeout_us>
    5ce4:	90 91 ca 02 	lds	r25, 0x02CA	; 0x8002ca <twi_timeout_us+0x1>
    5ce8:	a0 91 cb 02 	lds	r26, 0x02CB	; 0x8002cb <twi_timeout_us+0x2>
    5cec:	b0 91 cc 02 	lds	r27, 0x02CC	; 0x8002cc <twi_timeout_us+0x3>
    5cf0:	89 2b       	or	r24, r25
    5cf2:	8a 2b       	or	r24, r26
    5cf4:	8b 2b       	or	r24, r27
    5cf6:	a9 f0       	breq	.+42     	; 0x5d22 <twi_readFrom+0x116>
    5cf8:	0e 94 db 29 	call	0x53b6	; 0x53b6 <micros>
    5cfc:	80 90 c9 02 	lds	r8, 0x02C9	; 0x8002c9 <twi_timeout_us>
    5d00:	90 90 ca 02 	lds	r9, 0x02CA	; 0x8002ca <twi_timeout_us+0x1>
    5d04:	a0 90 cb 02 	lds	r10, 0x02CB	; 0x8002cb <twi_timeout_us+0x2>
    5d08:	b0 90 cc 02 	lds	r11, 0x02CC	; 0x8002cc <twi_timeout_us+0x3>
    5d0c:	dc 01       	movw	r26, r24
    5d0e:	cb 01       	movw	r24, r22
    5d10:	8c 19       	sub	r24, r12
    5d12:	9d 09       	sbc	r25, r13
    5d14:	ae 09       	sbc	r26, r14
    5d16:	bf 09       	sbc	r27, r15
    5d18:	88 16       	cp	r8, r24
    5d1a:	99 06       	cpc	r9, r25
    5d1c:	aa 06       	cpc	r10, r26
    5d1e:	bb 06       	cpc	r11, r27
    5d20:	90 f1       	brcs	.+100    	; 0x5d86 <twi_readFrom+0x17a>
    5d22:	80 91 bc 00 	lds	r24, 0x00BC	; 0x8000bc <__TEXT_REGION_LENGTH__+0x7f80bc>
    5d26:	83 fd       	sbrc	r24, 3
    5d28:	d7 cf       	rjmp	.-82     	; 0x5cd8 <twi_readFrom+0xcc>
    5d2a:	85 ec       	ldi	r24, 0xC5	; 197
    5d2c:	01 c0       	rjmp	.+2      	; 0x5d30 <twi_readFrom+0x124>
    5d2e:	85 ee       	ldi	r24, 0xE5	; 229
    5d30:	80 93 bc 00 	sts	0x00BC, r24	; 0x8000bc <__TEXT_REGION_LENGTH__+0x7f80bc>
    5d34:	0e 94 db 29 	call	0x53b6	; 0x53b6 <micros>
    5d38:	6b 01       	movw	r12, r22
    5d3a:	7c 01       	movw	r14, r24
    5d3c:	80 91 d0 02 	lds	r24, 0x02D0	; 0x8002d0 <twi_state>
    5d40:	81 30       	cpi	r24, 0x01	; 1
    5d42:	31 f5       	brne	.+76     	; 0x5d90 <twi_readFrom+0x184>
    5d44:	80 91 c9 02 	lds	r24, 0x02C9	; 0x8002c9 <twi_timeout_us>
    5d48:	90 91 ca 02 	lds	r25, 0x02CA	; 0x8002ca <twi_timeout_us+0x1>
    5d4c:	a0 91 cb 02 	lds	r26, 0x02CB	; 0x8002cb <twi_timeout_us+0x2>
    5d50:	b0 91 cc 02 	lds	r27, 0x02CC	; 0x8002cc <twi_timeout_us+0x3>
    5d54:	89 2b       	or	r24, r25
    5d56:	8a 2b       	or	r24, r26
    5d58:	8b 2b       	or	r24, r27
    5d5a:	81 f3       	breq	.-32     	; 0x5d3c <twi_readFrom+0x130>
    5d5c:	0e 94 db 29 	call	0x53b6	; 0x53b6 <micros>
    5d60:	80 90 c9 02 	lds	r8, 0x02C9	; 0x8002c9 <twi_timeout_us>
    5d64:	90 90 ca 02 	lds	r9, 0x02CA	; 0x8002ca <twi_timeout_us+0x1>
    5d68:	a0 90 cb 02 	lds	r10, 0x02CB	; 0x8002cb <twi_timeout_us+0x2>
    5d6c:	b0 90 cc 02 	lds	r11, 0x02CC	; 0x8002cc <twi_timeout_us+0x3>
    5d70:	dc 01       	movw	r26, r24
    5d72:	cb 01       	movw	r24, r22
    5d74:	8c 19       	sub	r24, r12
    5d76:	9d 09       	sbc	r25, r13
    5d78:	ae 09       	sbc	r26, r14
    5d7a:	bf 09       	sbc	r27, r15
    5d7c:	88 16       	cp	r8, r24
    5d7e:	99 06       	cpc	r9, r25
    5d80:	aa 06       	cpc	r10, r26
    5d82:	bb 06       	cpc	r11, r27
    5d84:	d8 f6       	brcc	.-74     	; 0x5d3c <twi_readFrom+0x130>
    5d86:	80 91 c7 02 	lds	r24, 0x02C7	; 0x8002c7 <twi_do_reset_on_timeout>
    5d8a:	0e 94 f0 2d 	call	0x5be0	; 0x5be0 <twi_handleTimeout>
    5d8e:	15 c0       	rjmp	.+42     	; 0x5dba <twi_readFrom+0x1ae>
    5d90:	80 91 a2 02 	lds	r24, 0x02A2	; 0x8002a2 <twi_masterBufferIndex>
    5d94:	8c 17       	cp	r24, r28
    5d96:	10 f4       	brcc	.+4      	; 0x5d9c <twi_readFrom+0x190>
    5d98:	c0 91 a2 02 	lds	r28, 0x02A2	; 0x8002a2 <twi_masterBufferIndex>
    5d9c:	a3 ea       	ldi	r26, 0xA3	; 163
    5d9e:	b2 e0       	ldi	r27, 0x02	; 2
    5da0:	91 2f       	mov	r25, r17
    5da2:	e1 2f       	mov	r30, r17
    5da4:	f0 2f       	mov	r31, r16
    5da6:	8e 2f       	mov	r24, r30
    5da8:	89 1b       	sub	r24, r25
    5daa:	8c 17       	cp	r24, r28
    5dac:	18 f4       	brcc	.+6      	; 0x5db4 <twi_readFrom+0x1a8>
    5dae:	8d 91       	ld	r24, X+
    5db0:	81 93       	st	Z+, r24
    5db2:	f9 cf       	rjmp	.-14     	; 0x5da6 <twi_readFrom+0x19a>
    5db4:	dc 2f       	mov	r29, r28
    5db6:	01 c0       	rjmp	.+2      	; 0x5dba <twi_readFrom+0x1ae>
    5db8:	d0 e0       	ldi	r29, 0x00	; 0
    5dba:	8d 2f       	mov	r24, r29
    5dbc:	df 91       	pop	r29
    5dbe:	cf 91       	pop	r28
    5dc0:	1f 91       	pop	r17
    5dc2:	0f 91       	pop	r16
    5dc4:	ff 90       	pop	r15
    5dc6:	ef 90       	pop	r14
    5dc8:	df 90       	pop	r13
    5dca:	cf 90       	pop	r12
    5dcc:	bf 90       	pop	r11
    5dce:	af 90       	pop	r10
    5dd0:	9f 90       	pop	r9
    5dd2:	8f 90       	pop	r8
    5dd4:	7f 90       	pop	r7
    5dd6:	6f 90       	pop	r6
    5dd8:	5f 90       	pop	r5
    5dda:	4f 90       	pop	r4
    5ddc:	08 95       	ret

00005dde <twi_writeTo>:
    5dde:	4f 92       	push	r4
    5de0:	5f 92       	push	r5
    5de2:	6f 92       	push	r6
    5de4:	7f 92       	push	r7
    5de6:	8f 92       	push	r8
    5de8:	9f 92       	push	r9
    5dea:	af 92       	push	r10
    5dec:	bf 92       	push	r11
    5dee:	cf 92       	push	r12
    5df0:	df 92       	push	r13
    5df2:	ef 92       	push	r14
    5df4:	ff 92       	push	r15
    5df6:	0f 93       	push	r16
    5df8:	1f 93       	push	r17
    5dfa:	cf 93       	push	r28
    5dfc:	df 93       	push	r29
    5dfe:	41 32       	cpi	r20, 0x21	; 33
    5e00:	08 f0       	brcs	.+2      	; 0x5e04 <twi_writeTo+0x26>
    5e02:	c6 c0       	rjmp	.+396    	; 0x5f90 <twi_writeTo+0x1b2>
    5e04:	12 2f       	mov	r17, r18
    5e06:	f4 2e       	mov	r15, r20
    5e08:	d7 2e       	mov	r13, r23
    5e0a:	e6 2e       	mov	r14, r22
    5e0c:	d8 2f       	mov	r29, r24
    5e0e:	0e 94 db 29 	call	0x53b6	; 0x53b6 <micros>
    5e12:	4b 01       	movw	r8, r22
    5e14:	5c 01       	movw	r10, r24
    5e16:	c0 91 d0 02 	lds	r28, 0x02D0	; 0x8002d0 <twi_state>
    5e1a:	cc 23       	and	r28, r28
    5e1c:	11 f1       	breq	.+68     	; 0x5e62 <twi_writeTo+0x84>
    5e1e:	80 91 c9 02 	lds	r24, 0x02C9	; 0x8002c9 <twi_timeout_us>
    5e22:	90 91 ca 02 	lds	r25, 0x02CA	; 0x8002ca <twi_timeout_us+0x1>
    5e26:	a0 91 cb 02 	lds	r26, 0x02CB	; 0x8002cb <twi_timeout_us+0x2>
    5e2a:	b0 91 cc 02 	lds	r27, 0x02CC	; 0x8002cc <twi_timeout_us+0x3>
    5e2e:	89 2b       	or	r24, r25
    5e30:	8a 2b       	or	r24, r26
    5e32:	8b 2b       	or	r24, r27
    5e34:	81 f3       	breq	.-32     	; 0x5e16 <twi_writeTo+0x38>
    5e36:	0e 94 db 29 	call	0x53b6	; 0x53b6 <micros>
    5e3a:	40 90 c9 02 	lds	r4, 0x02C9	; 0x8002c9 <twi_timeout_us>
    5e3e:	50 90 ca 02 	lds	r5, 0x02CA	; 0x8002ca <twi_timeout_us+0x1>
    5e42:	60 90 cb 02 	lds	r6, 0x02CB	; 0x8002cb <twi_timeout_us+0x2>
    5e46:	70 90 cc 02 	lds	r7, 0x02CC	; 0x8002cc <twi_timeout_us+0x3>
    5e4a:	dc 01       	movw	r26, r24
    5e4c:	cb 01       	movw	r24, r22
    5e4e:	88 19       	sub	r24, r8
    5e50:	99 09       	sbc	r25, r9
    5e52:	aa 09       	sbc	r26, r10
    5e54:	bb 09       	sbc	r27, r11
    5e56:	48 16       	cp	r4, r24
    5e58:	59 06       	cpc	r5, r25
    5e5a:	6a 06       	cpc	r6, r26
    5e5c:	7b 06       	cpc	r7, r27
    5e5e:	d8 f6       	brcc	.-74     	; 0x5e16 <twi_writeTo+0x38>
    5e60:	83 c0       	rjmp	.+262    	; 0x5f68 <twi_writeTo+0x18a>
    5e62:	82 e0       	ldi	r24, 0x02	; 2
    5e64:	80 93 d0 02 	sts	0x02D0, r24	; 0x8002d0 <twi_state>
    5e68:	00 93 ce 02 	sts	0x02CE, r16	; 0x8002ce <twi_sendStop>
    5e6c:	8f ef       	ldi	r24, 0xFF	; 255
    5e6e:	80 93 5d 02 	sts	0x025D, r24	; 0x80025d <twi_error>
    5e72:	10 92 a2 02 	sts	0x02A2, r1	; 0x8002a2 <twi_masterBufferIndex>
    5e76:	f0 92 a1 02 	sts	0x02A1, r15	; 0x8002a1 <twi_masterBufferLength>
    5e7a:	9e 2d       	mov	r25, r14
    5e7c:	a3 ea       	ldi	r26, 0xA3	; 163
    5e7e:	b2 e0       	ldi	r27, 0x02	; 2
    5e80:	ee 2d       	mov	r30, r14
    5e82:	fd 2d       	mov	r31, r13
    5e84:	8e 2f       	mov	r24, r30
    5e86:	89 1b       	sub	r24, r25
    5e88:	8f 15       	cp	r24, r15
    5e8a:	18 f4       	brcc	.+6      	; 0x5e92 <twi_writeTo+0xb4>
    5e8c:	81 91       	ld	r24, Z+
    5e8e:	8d 93       	st	X+, r24
    5e90:	f9 cf       	rjmp	.-14     	; 0x5e84 <twi_writeTo+0xa6>
    5e92:	10 92 cf 02 	sts	0x02CF, r1	; 0x8002cf <twi_slarw>
    5e96:	90 91 cf 02 	lds	r25, 0x02CF	; 0x8002cf <twi_slarw>
    5e9a:	dd 0f       	add	r29, r29
    5e9c:	d9 2b       	or	r29, r25
    5e9e:	d0 93 cf 02 	sts	0x02CF, r29	; 0x8002cf <twi_slarw>
    5ea2:	80 91 cd 02 	lds	r24, 0x02CD	; 0x8002cd <twi_inRepStart>
    5ea6:	81 30       	cpi	r24, 0x01	; 1
    5ea8:	89 f5       	brne	.+98     	; 0x5f0c <twi_writeTo+0x12e>
    5eaa:	10 92 cd 02 	sts	0x02CD, r1	; 0x8002cd <twi_inRepStart>
    5eae:	0e 94 db 29 	call	0x53b6	; 0x53b6 <micros>
    5eb2:	6b 01       	movw	r12, r22
    5eb4:	7c 01       	movw	r14, r24
    5eb6:	80 91 cf 02 	lds	r24, 0x02CF	; 0x8002cf <twi_slarw>
    5eba:	80 93 bb 00 	sts	0x00BB, r24	; 0x8000bb <__TEXT_REGION_LENGTH__+0x7f80bb>
    5ebe:	80 91 c9 02 	lds	r24, 0x02C9	; 0x8002c9 <twi_timeout_us>
    5ec2:	90 91 ca 02 	lds	r25, 0x02CA	; 0x8002ca <twi_timeout_us+0x1>
    5ec6:	a0 91 cb 02 	lds	r26, 0x02CB	; 0x8002cb <twi_timeout_us+0x2>
    5eca:	b0 91 cc 02 	lds	r27, 0x02CC	; 0x8002cc <twi_timeout_us+0x3>
    5ece:	89 2b       	or	r24, r25
    5ed0:	8a 2b       	or	r24, r26
    5ed2:	8b 2b       	or	r24, r27
    5ed4:	a9 f0       	breq	.+42     	; 0x5f00 <twi_writeTo+0x122>
    5ed6:	0e 94 db 29 	call	0x53b6	; 0x53b6 <micros>
    5eda:	80 90 c9 02 	lds	r8, 0x02C9	; 0x8002c9 <twi_timeout_us>
    5ede:	90 90 ca 02 	lds	r9, 0x02CA	; 0x8002ca <twi_timeout_us+0x1>
    5ee2:	a0 90 cb 02 	lds	r10, 0x02CB	; 0x8002cb <twi_timeout_us+0x2>
    5ee6:	b0 90 cc 02 	lds	r11, 0x02CC	; 0x8002cc <twi_timeout_us+0x3>
    5eea:	dc 01       	movw	r26, r24
    5eec:	cb 01       	movw	r24, r22
    5eee:	8c 19       	sub	r24, r12
    5ef0:	9d 09       	sbc	r25, r13
    5ef2:	ae 09       	sbc	r26, r14
    5ef4:	bf 09       	sbc	r27, r15
    5ef6:	88 16       	cp	r8, r24
    5ef8:	99 06       	cpc	r9, r25
    5efa:	aa 06       	cpc	r10, r26
    5efc:	bb 06       	cpc	r11, r27
    5efe:	a0 f1       	brcs	.+104    	; 0x5f68 <twi_writeTo+0x18a>
    5f00:	80 91 bc 00 	lds	r24, 0x00BC	; 0x8000bc <__TEXT_REGION_LENGTH__+0x7f80bc>
    5f04:	83 fd       	sbrc	r24, 3
    5f06:	d7 cf       	rjmp	.-82     	; 0x5eb6 <twi_writeTo+0xd8>
    5f08:	85 ec       	ldi	r24, 0xC5	; 197
    5f0a:	01 c0       	rjmp	.+2      	; 0x5f0e <twi_writeTo+0x130>
    5f0c:	85 ee       	ldi	r24, 0xE5	; 229
    5f0e:	80 93 bc 00 	sts	0x00BC, r24	; 0x8000bc <__TEXT_REGION_LENGTH__+0x7f80bc>
    5f12:	0e 94 db 29 	call	0x53b6	; 0x53b6 <micros>
    5f16:	6b 01       	movw	r12, r22
    5f18:	7c 01       	movw	r14, r24
    5f1a:	11 23       	and	r17, r17
    5f1c:	59 f1       	breq	.+86     	; 0x5f74 <twi_writeTo+0x196>
    5f1e:	80 91 d0 02 	lds	r24, 0x02D0	; 0x8002d0 <twi_state>
    5f22:	82 30       	cpi	r24, 0x02	; 2
    5f24:	39 f5       	brne	.+78     	; 0x5f74 <twi_writeTo+0x196>
    5f26:	80 91 c9 02 	lds	r24, 0x02C9	; 0x8002c9 <twi_timeout_us>
    5f2a:	90 91 ca 02 	lds	r25, 0x02CA	; 0x8002ca <twi_timeout_us+0x1>
    5f2e:	a0 91 cb 02 	lds	r26, 0x02CB	; 0x8002cb <twi_timeout_us+0x2>
    5f32:	b0 91 cc 02 	lds	r27, 0x02CC	; 0x8002cc <twi_timeout_us+0x3>
    5f36:	89 2b       	or	r24, r25
    5f38:	8a 2b       	or	r24, r26
    5f3a:	8b 2b       	or	r24, r27
    5f3c:	71 f3       	breq	.-36     	; 0x5f1a <twi_writeTo+0x13c>
    5f3e:	0e 94 db 29 	call	0x53b6	; 0x53b6 <micros>
    5f42:	80 90 c9 02 	lds	r8, 0x02C9	; 0x8002c9 <twi_timeout_us>
    5f46:	90 90 ca 02 	lds	r9, 0x02CA	; 0x8002ca <twi_timeout_us+0x1>
    5f4a:	a0 90 cb 02 	lds	r10, 0x02CB	; 0x8002cb <twi_timeout_us+0x2>
    5f4e:	b0 90 cc 02 	lds	r11, 0x02CC	; 0x8002cc <twi_timeout_us+0x3>
    5f52:	dc 01       	movw	r26, r24
    5f54:	cb 01       	movw	r24, r22
    5f56:	8c 19       	sub	r24, r12
    5f58:	9d 09       	sbc	r25, r13
    5f5a:	ae 09       	sbc	r26, r14
    5f5c:	bf 09       	sbc	r27, r15
    5f5e:	88 16       	cp	r8, r24
    5f60:	99 06       	cpc	r9, r25
    5f62:	aa 06       	cpc	r10, r26
    5f64:	bb 06       	cpc	r11, r27
    5f66:	c8 f6       	brcc	.-78     	; 0x5f1a <twi_writeTo+0x13c>
    5f68:	80 91 c7 02 	lds	r24, 0x02C7	; 0x8002c7 <twi_do_reset_on_timeout>
    5f6c:	0e 94 f0 2d 	call	0x5be0	; 0x5be0 <twi_handleTimeout>
    5f70:	c5 e0       	ldi	r28, 0x05	; 5
    5f72:	13 c0       	rjmp	.+38     	; 0x5f9a <twi_writeTo+0x1bc>
    5f74:	80 91 5d 02 	lds	r24, 0x025D	; 0x80025d <twi_error>
    5f78:	8f 3f       	cpi	r24, 0xFF	; 255
    5f7a:	79 f0       	breq	.+30     	; 0x5f9a <twi_writeTo+0x1bc>
    5f7c:	80 91 5d 02 	lds	r24, 0x025D	; 0x80025d <twi_error>
    5f80:	80 32       	cpi	r24, 0x20	; 32
    5f82:	41 f0       	breq	.+16     	; 0x5f94 <twi_writeTo+0x1b6>
    5f84:	80 91 5d 02 	lds	r24, 0x025D	; 0x80025d <twi_error>
    5f88:	80 33       	cpi	r24, 0x30	; 48
    5f8a:	31 f0       	breq	.+12     	; 0x5f98 <twi_writeTo+0x1ba>
    5f8c:	c4 e0       	ldi	r28, 0x04	; 4
    5f8e:	05 c0       	rjmp	.+10     	; 0x5f9a <twi_writeTo+0x1bc>
    5f90:	c1 e0       	ldi	r28, 0x01	; 1
    5f92:	03 c0       	rjmp	.+6      	; 0x5f9a <twi_writeTo+0x1bc>
    5f94:	c2 e0       	ldi	r28, 0x02	; 2
    5f96:	01 c0       	rjmp	.+2      	; 0x5f9a <twi_writeTo+0x1bc>
    5f98:	c3 e0       	ldi	r28, 0x03	; 3
    5f9a:	8c 2f       	mov	r24, r28
    5f9c:	df 91       	pop	r29
    5f9e:	cf 91       	pop	r28
    5fa0:	1f 91       	pop	r17
    5fa2:	0f 91       	pop	r16
    5fa4:	ff 90       	pop	r15
    5fa6:	ef 90       	pop	r14
    5fa8:	df 90       	pop	r13
    5faa:	cf 90       	pop	r12
    5fac:	bf 90       	pop	r11
    5fae:	af 90       	pop	r10
    5fb0:	9f 90       	pop	r9
    5fb2:	8f 90       	pop	r8
    5fb4:	7f 90       	pop	r7
    5fb6:	6f 90       	pop	r6
    5fb8:	5f 90       	pop	r5
    5fba:	4f 90       	pop	r4
    5fbc:	08 95       	ret

00005fbe <twi_stop>:
    5fbe:	85 ed       	ldi	r24, 0xD5	; 213
    5fc0:	80 93 bc 00 	sts	0x00BC, r24	; 0x8000bc <__TEXT_REGION_LENGTH__+0x7f80bc>
    5fc4:	80 91 c9 02 	lds	r24, 0x02C9	; 0x8002c9 <twi_timeout_us>
    5fc8:	90 91 ca 02 	lds	r25, 0x02CA	; 0x8002ca <twi_timeout_us+0x1>
    5fcc:	a0 91 cb 02 	lds	r26, 0x02CB	; 0x8002cb <twi_timeout_us+0x2>
    5fd0:	b0 91 cc 02 	lds	r27, 0x02CC	; 0x8002cc <twi_timeout_us+0x3>
    5fd4:	07 96       	adiw	r24, 0x07	; 7
    5fd6:	a1 1d       	adc	r26, r1
    5fd8:	b1 1d       	adc	r27, r1
    5fda:	23 e0       	ldi	r18, 0x03	; 3
    5fdc:	b6 95       	lsr	r27
    5fde:	a7 95       	ror	r26
    5fe0:	97 95       	ror	r25
    5fe2:	87 95       	ror	r24
    5fe4:	2a 95       	dec	r18
    5fe6:	d1 f7       	brne	.-12     	; 0x5fdc <twi_stop+0x1e>
    5fe8:	20 91 bc 00 	lds	r18, 0x00BC	; 0x8000bc <__TEXT_REGION_LENGTH__+0x7f80bc>
    5fec:	24 ff       	sbrs	r18, 4
    5fee:	1c c0       	rjmp	.+56     	; 0x6028 <twi_stop+0x6a>
    5ff0:	40 91 c9 02 	lds	r20, 0x02C9	; 0x8002c9 <twi_timeout_us>
    5ff4:	50 91 ca 02 	lds	r21, 0x02CA	; 0x8002ca <twi_timeout_us+0x1>
    5ff8:	60 91 cb 02 	lds	r22, 0x02CB	; 0x8002cb <twi_timeout_us+0x2>
    5ffc:	70 91 cc 02 	lds	r23, 0x02CC	; 0x8002cc <twi_timeout_us+0x3>
    6000:	45 2b       	or	r20, r21
    6002:	46 2b       	or	r20, r22
    6004:	47 2b       	or	r20, r23
    6006:	81 f3       	breq	.-32     	; 0x5fe8 <twi_stop+0x2a>
    6008:	00 97       	sbiw	r24, 0x00	; 0
    600a:	a1 05       	cpc	r26, r1
    600c:	b1 05       	cpc	r27, r1
    600e:	41 f0       	breq	.+16     	; 0x6020 <twi_stop+0x62>
    6010:	25 e3       	ldi	r18, 0x35	; 53
    6012:	2a 95       	dec	r18
    6014:	f1 f7       	brne	.-4      	; 0x6012 <twi_stop+0x54>
    6016:	00 00       	nop
    6018:	01 97       	sbiw	r24, 0x01	; 1
    601a:	a1 09       	sbc	r26, r1
    601c:	b1 09       	sbc	r27, r1
    601e:	e4 cf       	rjmp	.-56     	; 0x5fe8 <twi_stop+0x2a>
    6020:	80 91 c7 02 	lds	r24, 0x02C7	; 0x8002c7 <twi_do_reset_on_timeout>
    6024:	0c 94 f0 2d 	jmp	0x5be0	; 0x5be0 <twi_handleTimeout>
    6028:	10 92 d0 02 	sts	0x02D0, r1	; 0x8002d0 <twi_state>
    602c:	08 95       	ret

0000602e <__vector_36>:

ISR(TWI_vect)
{
    602e:	1f 92       	push	r1
    6030:	0f 92       	push	r0
    6032:	0f b6       	in	r0, 0x3f	; 63
    6034:	0f 92       	push	r0
    6036:	11 24       	eor	r1, r1
    6038:	2f 93       	push	r18
    603a:	3f 93       	push	r19
    603c:	4f 93       	push	r20
    603e:	5f 93       	push	r21
    6040:	6f 93       	push	r22
    6042:	7f 93       	push	r23
    6044:	8f 93       	push	r24
    6046:	9f 93       	push	r25
    6048:	af 93       	push	r26
    604a:	bf 93       	push	r27
    604c:	ef 93       	push	r30
    604e:	ff 93       	push	r31
  switch(TW_STATUS){
    6050:	80 91 b9 00 	lds	r24, 0x00B9	; 0x8000b9 <__TEXT_REGION_LENGTH__+0x7f80b9>
    6054:	88 7f       	andi	r24, 0xF8	; 248
    6056:	80 36       	cpi	r24, 0x60	; 96
    6058:	09 f4       	brne	.+2      	; 0x605c <__vector_36+0x2e>
    605a:	9e c0       	rjmp	.+316    	; 0x6198 <__vector_36+0x16a>
    605c:	78 f5       	brcc	.+94     	; 0x60bc <__vector_36+0x8e>
    605e:	88 32       	cpi	r24, 0x28	; 40
    6060:	09 f4       	brne	.+2      	; 0x6064 <__vector_36+0x36>
    6062:	5d c0       	rjmp	.+186    	; 0x611e <__vector_36+0xf0>
    6064:	90 f4       	brcc	.+36     	; 0x608a <__vector_36+0x5c>
    6066:	80 31       	cpi	r24, 0x10	; 16
    6068:	09 f4       	brne	.+2      	; 0x606c <__vector_36+0x3e>
    606a:	56 c0       	rjmp	.+172    	; 0x6118 <__vector_36+0xea>
    606c:	38 f4       	brcc	.+14     	; 0x607c <__vector_36+0x4e>
    606e:	88 23       	and	r24, r24
    6070:	09 f4       	brne	.+2      	; 0x6074 <__vector_36+0x46>
    6072:	f5 c0       	rjmp	.+490    	; 0x625e <__vector_36+0x230>
    6074:	88 30       	cpi	r24, 0x08	; 8
    6076:	09 f4       	brne	.+2      	; 0x607a <__vector_36+0x4c>
    6078:	4f c0       	rjmp	.+158    	; 0x6118 <__vector_36+0xea>
    607a:	f5 c0       	rjmp	.+490    	; 0x6266 <__vector_36+0x238>
    607c:	88 31       	cpi	r24, 0x18	; 24
    607e:	09 f4       	brne	.+2      	; 0x6082 <__vector_36+0x54>
    6080:	4e c0       	rjmp	.+156    	; 0x611e <__vector_36+0xf0>
    6082:	80 32       	cpi	r24, 0x20	; 32
    6084:	09 f4       	brne	.+2      	; 0x6088 <__vector_36+0x5a>
    6086:	5f c0       	rjmp	.+190    	; 0x6146 <__vector_36+0x118>
    6088:	ee c0       	rjmp	.+476    	; 0x6266 <__vector_36+0x238>
    608a:	80 34       	cpi	r24, 0x40	; 64
    608c:	09 f4       	brne	.+2      	; 0x6090 <__vector_36+0x62>
    608e:	6a c0       	rjmp	.+212    	; 0x6164 <__vector_36+0x136>
    6090:	58 f4       	brcc	.+22     	; 0x60a8 <__vector_36+0x7a>
    6092:	80 33       	cpi	r24, 0x30	; 48
    6094:	09 f4       	brne	.+2      	; 0x6098 <__vector_36+0x6a>
    6096:	57 c0       	rjmp	.+174    	; 0x6146 <__vector_36+0x118>
    6098:	88 33       	cpi	r24, 0x38	; 56
    609a:	09 f0       	breq	.+2      	; 0x609e <__vector_36+0x70>
    609c:	e4 c0       	rjmp	.+456    	; 0x6266 <__vector_36+0x238>
    case TW_MT_DATA_NACK: // data sent, nack received
      twi_error = TW_MT_DATA_NACK;
      twi_stop();
      break;
    case TW_MT_ARB_LOST: // lost bus arbitration
      twi_error = TW_MT_ARB_LOST;
    609e:	80 93 5d 02 	sts	0x025D, r24	; 0x80025d <twi_error>
      twi_releaseBus();
    60a2:	0e 94 ea 2d 	call	0x5bd4	; 0x5bd4 <twi_releaseBus>
      break;
    60a6:	df c0       	rjmp	.+446    	; 0x6266 <__vector_36+0x238>
  return(flag);
}

ISR(TWI_vect)
{
  switch(TW_STATUS){
    60a8:	80 35       	cpi	r24, 0x50	; 80
    60aa:	09 f4       	brne	.+2      	; 0x60ae <__vector_36+0x80>
    60ac:	4f c0       	rjmp	.+158    	; 0x614c <__vector_36+0x11e>
    60ae:	88 35       	cpi	r24, 0x58	; 88
    60b0:	09 f4       	brne	.+2      	; 0x60b4 <__vector_36+0x86>
    60b2:	5d c0       	rjmp	.+186    	; 0x616e <__vector_36+0x140>
    60b4:	88 34       	cpi	r24, 0x48	; 72
    60b6:	09 f0       	breq	.+2      	; 0x60ba <__vector_36+0x8c>
    60b8:	d6 c0       	rjmp	.+428    	; 0x6266 <__vector_36+0x238>
    60ba:	d3 c0       	rjmp	.+422    	; 0x6262 <__vector_36+0x234>
    60bc:	88 39       	cpi	r24, 0x98	; 152
    60be:	09 f4       	brne	.+2      	; 0x60c2 <__vector_36+0x94>
    60c0:	c4 c0       	rjmp	.+392    	; 0x624a <__vector_36+0x21c>
    60c2:	a8 f4       	brcc	.+42     	; 0x60ee <__vector_36+0xc0>
    60c4:	88 37       	cpi	r24, 0x78	; 120
    60c6:	09 f4       	brne	.+2      	; 0x60ca <__vector_36+0x9c>
    60c8:	67 c0       	rjmp	.+206    	; 0x6198 <__vector_36+0x16a>
    60ca:	38 f4       	brcc	.+14     	; 0x60da <__vector_36+0xac>
    60cc:	88 36       	cpi	r24, 0x68	; 104
    60ce:	09 f4       	brne	.+2      	; 0x60d2 <__vector_36+0xa4>
    60d0:	63 c0       	rjmp	.+198    	; 0x6198 <__vector_36+0x16a>
    60d2:	80 37       	cpi	r24, 0x70	; 112
    60d4:	09 f4       	brne	.+2      	; 0x60d8 <__vector_36+0xaa>
    60d6:	60 c0       	rjmp	.+192    	; 0x6198 <__vector_36+0x16a>
    60d8:	c6 c0       	rjmp	.+396    	; 0x6266 <__vector_36+0x238>
    60da:	88 38       	cpi	r24, 0x88	; 136
    60dc:	09 f4       	brne	.+2      	; 0x60e0 <__vector_36+0xb2>
    60de:	b5 c0       	rjmp	.+362    	; 0x624a <__vector_36+0x21c>
    60e0:	80 39       	cpi	r24, 0x90	; 144
    60e2:	09 f4       	brne	.+2      	; 0x60e6 <__vector_36+0xb8>
    60e4:	5f c0       	rjmp	.+190    	; 0x61a4 <__vector_36+0x176>
    60e6:	80 38       	cpi	r24, 0x80	; 128
    60e8:	09 f0       	breq	.+2      	; 0x60ec <__vector_36+0xbe>
    60ea:	bd c0       	rjmp	.+378    	; 0x6266 <__vector_36+0x238>
    60ec:	5b c0       	rjmp	.+182    	; 0x61a4 <__vector_36+0x176>
    60ee:	80 3b       	cpi	r24, 0xB0	; 176
    60f0:	09 f4       	brne	.+2      	; 0x60f4 <__vector_36+0xc6>
    60f2:	83 c0       	rjmp	.+262    	; 0x61fa <__vector_36+0x1cc>
    60f4:	38 f4       	brcc	.+14     	; 0x6104 <__vector_36+0xd6>
    60f6:	80 3a       	cpi	r24, 0xA0	; 160
    60f8:	09 f4       	brne	.+2      	; 0x60fc <__vector_36+0xce>
    60fa:	66 c0       	rjmp	.+204    	; 0x61c8 <__vector_36+0x19a>
    60fc:	88 3a       	cpi	r24, 0xA8	; 168
    60fe:	09 f4       	brne	.+2      	; 0x6102 <__vector_36+0xd4>
    6100:	7c c0       	rjmp	.+248    	; 0x61fa <__vector_36+0x1cc>
    6102:	b1 c0       	rjmp	.+354    	; 0x6266 <__vector_36+0x238>
    6104:	80 3c       	cpi	r24, 0xC0	; 192
    6106:	09 f4       	brne	.+2      	; 0x610a <__vector_36+0xdc>
    6108:	a4 c0       	rjmp	.+328    	; 0x6252 <__vector_36+0x224>
    610a:	88 3c       	cpi	r24, 0xC8	; 200
    610c:	09 f4       	brne	.+2      	; 0x6110 <__vector_36+0xe2>
    610e:	a1 c0       	rjmp	.+322    	; 0x6252 <__vector_36+0x224>
    6110:	88 3b       	cpi	r24, 0xB8	; 184
    6112:	09 f4       	brne	.+2      	; 0x6116 <__vector_36+0xe8>
    6114:	87 c0       	rjmp	.+270    	; 0x6224 <__vector_36+0x1f6>
    6116:	a7 c0       	rjmp	.+334    	; 0x6266 <__vector_36+0x238>
    // All Master
    case TW_START:     // sent start condition
    case TW_REP_START: // sent repeated start condition
      // copy device address and r/w bit to output register and ack
      TWDR = twi_slarw;
    6118:	80 91 cf 02 	lds	r24, 0x02CF	; 0x8002cf <twi_slarw>
    611c:	10 c0       	rjmp	.+32     	; 0x613e <__vector_36+0x110>

    // Master Transmitter
    case TW_MT_SLA_ACK:  // slave receiver acked address
    case TW_MT_DATA_ACK: // slave receiver acked data
      // if there is data to send, send it, otherwise stop 
      if(twi_masterBufferIndex < twi_masterBufferLength){
    611e:	90 91 a2 02 	lds	r25, 0x02A2	; 0x8002a2 <twi_masterBufferIndex>
    6122:	80 91 a1 02 	lds	r24, 0x02A1	; 0x8002a1 <twi_masterBufferLength>
    6126:	98 17       	cp	r25, r24
    6128:	70 f5       	brcc	.+92     	; 0x6186 <__vector_36+0x158>
        // copy data to output register and ack
        TWDR = twi_masterBuffer[twi_masterBufferIndex++];
    612a:	e0 91 a2 02 	lds	r30, 0x02A2	; 0x8002a2 <twi_masterBufferIndex>
    612e:	81 e0       	ldi	r24, 0x01	; 1
    6130:	8e 0f       	add	r24, r30
    6132:	80 93 a2 02 	sts	0x02A2, r24	; 0x8002a2 <twi_masterBufferIndex>
    6136:	f0 e0       	ldi	r31, 0x00	; 0
    6138:	ed 55       	subi	r30, 0x5D	; 93
    613a:	fd 4f       	sbci	r31, 0xFD	; 253
    613c:	80 81       	ld	r24, Z
    613e:	80 93 bb 00 	sts	0x00BB, r24	; 0x8000bb <__TEXT_REGION_LENGTH__+0x7f80bb>
 */
void twi_reply(uint8_t ack)
{
  // transmit master read ready signal, with or without ack
  if(ack){
    TWCR = _BV(TWEN) | _BV(TWIE) | _BV(TWINT) | _BV(TWEA);
    6142:	85 ec       	ldi	r24, 0xC5	; 197
    6144:	83 c0       	rjmp	.+262    	; 0x624c <__vector_36+0x21e>
    case TW_MT_SLA_NACK:  // address sent, nack received
      twi_error = TW_MT_SLA_NACK;
      twi_stop();
      break;
    case TW_MT_DATA_NACK: // data sent, nack received
      twi_error = TW_MT_DATA_NACK;
    6146:	80 93 5d 02 	sts	0x025D, r24	; 0x80025d <twi_error>
    614a:	8b c0       	rjmp	.+278    	; 0x6262 <__vector_36+0x234>
      break;

    // Master Receiver
    case TW_MR_DATA_ACK: // data received, ack sent
      // put byte into buffer
      twi_masterBuffer[twi_masterBufferIndex++] = TWDR;
    614c:	e0 91 a2 02 	lds	r30, 0x02A2	; 0x8002a2 <twi_masterBufferIndex>
    6150:	81 e0       	ldi	r24, 0x01	; 1
    6152:	8e 0f       	add	r24, r30
    6154:	80 93 a2 02 	sts	0x02A2, r24	; 0x8002a2 <twi_masterBufferIndex>
    6158:	80 91 bb 00 	lds	r24, 0x00BB	; 0x8000bb <__TEXT_REGION_LENGTH__+0x7f80bb>
    615c:	f0 e0       	ldi	r31, 0x00	; 0
    615e:	ed 55       	subi	r30, 0x5D	; 93
    6160:	fd 4f       	sbci	r31, 0xFD	; 253
    6162:	80 83       	st	Z, r24
      __attribute__ ((fallthrough));
    case TW_MR_SLA_ACK:  // address sent, ack received
      // ack if more bytes are expected, otherwise nack
      if(twi_masterBufferIndex < twi_masterBufferLength){
    6164:	90 91 a2 02 	lds	r25, 0x02A2	; 0x8002a2 <twi_masterBufferIndex>
    6168:	80 91 a1 02 	lds	r24, 0x02A1	; 0x8002a1 <twi_masterBufferLength>
    616c:	6b c0       	rjmp	.+214    	; 0x6244 <__vector_36+0x216>
        twi_reply(0);
      }
      break;
    case TW_MR_DATA_NACK: // data received, nack sent
      // put final byte into buffer
      twi_masterBuffer[twi_masterBufferIndex++] = TWDR;
    616e:	e0 91 a2 02 	lds	r30, 0x02A2	; 0x8002a2 <twi_masterBufferIndex>
    6172:	81 e0       	ldi	r24, 0x01	; 1
    6174:	8e 0f       	add	r24, r30
    6176:	80 93 a2 02 	sts	0x02A2, r24	; 0x8002a2 <twi_masterBufferIndex>
    617a:	80 91 bb 00 	lds	r24, 0x00BB	; 0x8000bb <__TEXT_REGION_LENGTH__+0x7f80bb>
    617e:	f0 e0       	ldi	r31, 0x00	; 0
    6180:	ed 55       	subi	r30, 0x5D	; 93
    6182:	fd 4f       	sbci	r31, 0xFD	; 253
    6184:	80 83       	st	Z, r24
      if (twi_sendStop){
    6186:	80 91 ce 02 	lds	r24, 0x02CE	; 0x8002ce <twi_sendStop>
    618a:	81 11       	cpse	r24, r1
    618c:	6a c0       	rjmp	.+212    	; 0x6262 <__vector_36+0x234>
        twi_stop();
      } else {
        twi_inRepStart = true;	// we're gonna send the START
    618e:	81 e0       	ldi	r24, 0x01	; 1
    6190:	80 93 cd 02 	sts	0x02CD, r24	; 0x8002cd <twi_inRepStart>
        // don't enable the interrupt. We'll generate the start, but we
        // avoid handling the interrupt until we're in the next transaction,
        // at the point where we would normally issue the start.
        TWCR = _BV(TWINT) | _BV(TWSTA)| _BV(TWEN) ;
    6194:	84 ea       	ldi	r24, 0xA4	; 164
    6196:	5e c0       	rjmp	.+188    	; 0x6254 <__vector_36+0x226>
    case TW_SR_SLA_ACK:   // addressed, returned ack
    case TW_SR_GCALL_ACK: // addressed generally, returned ack
    case TW_SR_ARB_LOST_SLA_ACK:   // lost arbitration, returned ack
    case TW_SR_ARB_LOST_GCALL_ACK: // lost arbitration, returned ack
      // enter slave receiver mode
      twi_state = TWI_SRX;
    6198:	83 e0       	ldi	r24, 0x03	; 3
    619a:	80 93 d0 02 	sts	0x02D0, r24	; 0x8002d0 <twi_state>
      // indicate that rx buffer can be overwritten and ack
      twi_rxBufferIndex = 0;
    619e:	10 92 5e 02 	sts	0x025E, r1	; 0x80025e <twi_rxBufferIndex>
    61a2:	cf cf       	rjmp	.-98     	; 0x6142 <__vector_36+0x114>
      twi_reply(1);
      break;
    case TW_SR_DATA_ACK:       // data received, returned ack
    case TW_SR_GCALL_DATA_ACK: // data received generally, returned ack
      // if there is still room in the rx buffer
      if(twi_rxBufferIndex < TWI_BUFFER_LENGTH){
    61a4:	80 91 5e 02 	lds	r24, 0x025E	; 0x80025e <twi_rxBufferIndex>
    61a8:	80 32       	cpi	r24, 0x20	; 32
    61aa:	08 f0       	brcs	.+2      	; 0x61ae <__vector_36+0x180>
    61ac:	4e c0       	rjmp	.+156    	; 0x624a <__vector_36+0x21c>
        // put byte in buffer and ack
        twi_rxBuffer[twi_rxBufferIndex++] = TWDR;
    61ae:	e0 91 5e 02 	lds	r30, 0x025E	; 0x80025e <twi_rxBufferIndex>
    61b2:	81 e0       	ldi	r24, 0x01	; 1
    61b4:	8e 0f       	add	r24, r30
    61b6:	80 93 5e 02 	sts	0x025E, r24	; 0x80025e <twi_rxBufferIndex>
    61ba:	80 91 bb 00 	lds	r24, 0x00BB	; 0x8000bb <__TEXT_REGION_LENGTH__+0x7f80bb>
    61be:	f0 e0       	ldi	r31, 0x00	; 0
    61c0:	e1 5a       	subi	r30, 0xA1	; 161
    61c2:	fd 4f       	sbci	r31, 0xFD	; 253
    61c4:	80 83       	st	Z, r24
    61c6:	bd cf       	rjmp	.-134    	; 0x6142 <__vector_36+0x114>
        twi_reply(0);
      }
      break;
    case TW_SR_STOP: // stop or repeated start condition received
      // ack future responses and leave slave receiver state
      twi_releaseBus();
    61c8:	0e 94 ea 2d 	call	0x5bd4	; 0x5bd4 <twi_releaseBus>
      // put a null char after data if there's room
      if(twi_rxBufferIndex < TWI_BUFFER_LENGTH){
    61cc:	80 91 5e 02 	lds	r24, 0x025E	; 0x80025e <twi_rxBufferIndex>
    61d0:	80 32       	cpi	r24, 0x20	; 32
    61d2:	30 f4       	brcc	.+12     	; 0x61e0 <__vector_36+0x1b2>
        twi_rxBuffer[twi_rxBufferIndex] = '\0';
    61d4:	e0 91 5e 02 	lds	r30, 0x025E	; 0x80025e <twi_rxBufferIndex>
    61d8:	f0 e0       	ldi	r31, 0x00	; 0
    61da:	e1 5a       	subi	r30, 0xA1	; 161
    61dc:	fd 4f       	sbci	r31, 0xFD	; 253
    61de:	10 82       	st	Z, r1
      }
      // callback to user defined callback
      twi_onSlaveReceive(twi_rxBuffer, twi_rxBufferIndex);
    61e0:	60 91 5e 02 	lds	r22, 0x025E	; 0x80025e <twi_rxBufferIndex>
    61e4:	70 e0       	ldi	r23, 0x00	; 0
    61e6:	e0 91 c3 02 	lds	r30, 0x02C3	; 0x8002c3 <twi_onSlaveReceive>
    61ea:	f0 91 c4 02 	lds	r31, 0x02C4	; 0x8002c4 <twi_onSlaveReceive+0x1>
    61ee:	8f e5       	ldi	r24, 0x5F	; 95
    61f0:	92 e0       	ldi	r25, 0x02	; 2
    61f2:	09 95       	icall
      // since we submit rx buffer to "wire" library, we can reset it
      twi_rxBufferIndex = 0;
    61f4:	10 92 5e 02 	sts	0x025E, r1	; 0x80025e <twi_rxBufferIndex>
      break;
    61f8:	36 c0       	rjmp	.+108    	; 0x6266 <__vector_36+0x238>
    
    // Slave Transmitter
    case TW_ST_SLA_ACK:          // addressed, returned ack
    case TW_ST_ARB_LOST_SLA_ACK: // arbitration lost, returned ack
      // enter slave transmitter mode
      twi_state = TWI_STX;
    61fa:	84 e0       	ldi	r24, 0x04	; 4
    61fc:	80 93 d0 02 	sts	0x02D0, r24	; 0x8002d0 <twi_state>
      // ready the tx buffer index for iteration
      twi_txBufferIndex = 0;
    6200:	10 92 80 02 	sts	0x0280, r1	; 0x800280 <twi_txBufferIndex>
      // set tx buffer length to be zero, to verify if user changes it
      twi_txBufferLength = 0;
    6204:	10 92 7f 02 	sts	0x027F, r1	; 0x80027f <twi_txBufferLength>
      // request for txBuffer to be filled and length to be set
      // note: user must call twi_transmit(bytes, length) to do this
      twi_onSlaveTransmit();
    6208:	e0 91 c5 02 	lds	r30, 0x02C5	; 0x8002c5 <twi_onSlaveTransmit>
    620c:	f0 91 c6 02 	lds	r31, 0x02C6	; 0x8002c6 <twi_onSlaveTransmit+0x1>
    6210:	09 95       	icall
      // if they didn't change buffer & length, initialize it
      if(0 == twi_txBufferLength){
    6212:	80 91 7f 02 	lds	r24, 0x027F	; 0x80027f <twi_txBufferLength>
    6216:	81 11       	cpse	r24, r1
    6218:	05 c0       	rjmp	.+10     	; 0x6224 <__vector_36+0x1f6>
        twi_txBufferLength = 1;
    621a:	81 e0       	ldi	r24, 0x01	; 1
    621c:	80 93 7f 02 	sts	0x027F, r24	; 0x80027f <twi_txBufferLength>
        twi_txBuffer[0] = 0x00;
    6220:	10 92 81 02 	sts	0x0281, r1	; 0x800281 <twi_txBuffer>
      }
      __attribute__ ((fallthrough));		  
      // transmit first byte from buffer, fall
    case TW_ST_DATA_ACK: // byte sent, ack returned
      // copy data to output register
      TWDR = twi_txBuffer[twi_txBufferIndex++];
    6224:	e0 91 80 02 	lds	r30, 0x0280	; 0x800280 <twi_txBufferIndex>
    6228:	81 e0       	ldi	r24, 0x01	; 1
    622a:	8e 0f       	add	r24, r30
    622c:	80 93 80 02 	sts	0x0280, r24	; 0x800280 <twi_txBufferIndex>
    6230:	f0 e0       	ldi	r31, 0x00	; 0
    6232:	ef 57       	subi	r30, 0x7F	; 127
    6234:	fd 4f       	sbci	r31, 0xFD	; 253
    6236:	80 81       	ld	r24, Z
    6238:	80 93 bb 00 	sts	0x00BB, r24	; 0x8000bb <__TEXT_REGION_LENGTH__+0x7f80bb>
      // if there is more to send, ack, otherwise nack
      if(twi_txBufferIndex < twi_txBufferLength){
    623c:	90 91 80 02 	lds	r25, 0x0280	; 0x800280 <twi_txBufferIndex>
    6240:	80 91 7f 02 	lds	r24, 0x027F	; 0x80027f <twi_txBufferLength>
    6244:	98 17       	cp	r25, r24
    6246:	08 f4       	brcc	.+2      	; 0x624a <__vector_36+0x21c>
    6248:	7c cf       	rjmp	.-264    	; 0x6142 <__vector_36+0x114>
{
  // transmit master read ready signal, with or without ack
  if(ack){
    TWCR = _BV(TWEN) | _BV(TWIE) | _BV(TWINT) | _BV(TWEA);
  }else{
    TWCR = _BV(TWEN) | _BV(TWIE) | _BV(TWINT);
    624a:	85 e8       	ldi	r24, 0x85	; 133
    624c:	80 93 bc 00 	sts	0x00BC, r24	; 0x8000bc <__TEXT_REGION_LENGTH__+0x7f80bc>
    6250:	0a c0       	rjmp	.+20     	; 0x6266 <__vector_36+0x238>
 */
void twi_reply(uint8_t ack)
{
  // transmit master read ready signal, with or without ack
  if(ack){
    TWCR = _BV(TWEN) | _BV(TWIE) | _BV(TWINT) | _BV(TWEA);
    6252:	85 ec       	ldi	r24, 0xC5	; 197
    6254:	80 93 bc 00 	sts	0x00BC, r24	; 0x8000bc <__TEXT_REGION_LENGTH__+0x7f80bc>
    case TW_ST_DATA_NACK: // received nack, we are done 
    case TW_ST_LAST_DATA: // received ack, but we are done already!
      // ack future responses
      twi_reply(1);
      // leave slave receiver state
      twi_state = TWI_READY;
    6258:	10 92 d0 02 	sts	0x02D0, r1	; 0x8002d0 <twi_state>
      break;
    625c:	04 c0       	rjmp	.+8      	; 0x6266 <__vector_36+0x238>

    // All
    case TW_NO_INFO:   // no state information
      break;
    case TW_BUS_ERROR: // bus error, illegal stop/start
      twi_error = TW_BUS_ERROR;
    625e:	10 92 5d 02 	sts	0x025D, r1	; 0x80025d <twi_error>
      twi_stop();
    6262:	0e 94 df 2f 	call	0x5fbe	; 0x5fbe <twi_stop>
      break;
  }
}
    6266:	ff 91       	pop	r31
    6268:	ef 91       	pop	r30
    626a:	bf 91       	pop	r27
    626c:	af 91       	pop	r26
    626e:	9f 91       	pop	r25
    6270:	8f 91       	pop	r24
    6272:	7f 91       	pop	r23
    6274:	6f 91       	pop	r22
    6276:	5f 91       	pop	r21
    6278:	4f 91       	pop	r20
    627a:	3f 91       	pop	r19
    627c:	2f 91       	pop	r18
    627e:	0f 90       	pop	r0
    6280:	0f be       	out	0x3f, r0	; 63
    6282:	0f 90       	pop	r0
    6284:	1f 90       	pop	r1
    6286:	18 95       	reti

00006288 <__gesf2>:
    6288:	0e 94 c7 20 	call	0x418e	; 0x418e <__fp_cmp>
    628c:	08 f4       	brcc	.+2      	; 0x6290 <__gesf2+0x8>
    628e:	8f ef       	ldi	r24, 0xFF	; 255
    6290:	08 95       	ret

00006292 <__unordsf2>:
    6292:	0e 94 c7 20 	call	0x418e	; 0x418e <__fp_cmp>
    6296:	88 0b       	sbc	r24, r24
    6298:	99 0b       	sbc	r25, r25
    629a:	08 95       	ret

0000629c <__divmodhi4>:
    629c:	97 fb       	bst	r25, 7
    629e:	07 2e       	mov	r0, r23
    62a0:	16 f4       	brtc	.+4      	; 0x62a6 <__divmodhi4+0xa>
    62a2:	00 94       	com	r0
    62a4:	07 d0       	rcall	.+14     	; 0x62b4 <__divmodhi4_neg1>
    62a6:	77 fd       	sbrc	r23, 7
    62a8:	09 d0       	rcall	.+18     	; 0x62bc <__divmodhi4_neg2>
    62aa:	0e 94 91 31 	call	0x6322	; 0x6322 <__udivmodhi4>
    62ae:	07 fc       	sbrc	r0, 7
    62b0:	05 d0       	rcall	.+10     	; 0x62bc <__divmodhi4_neg2>
    62b2:	3e f4       	brtc	.+14     	; 0x62c2 <__divmodhi4_exit>

000062b4 <__divmodhi4_neg1>:
    62b4:	90 95       	com	r25
    62b6:	81 95       	neg	r24
    62b8:	9f 4f       	sbci	r25, 0xFF	; 255
    62ba:	08 95       	ret

000062bc <__divmodhi4_neg2>:
    62bc:	70 95       	com	r23
    62be:	61 95       	neg	r22
    62c0:	7f 4f       	sbci	r23, 0xFF	; 255

000062c2 <__divmodhi4_exit>:
    62c2:	08 95       	ret

000062c4 <__udivmodsi4>:
    62c4:	a1 e2       	ldi	r26, 0x21	; 33
    62c6:	1a 2e       	mov	r1, r26
    62c8:	aa 1b       	sub	r26, r26
    62ca:	bb 1b       	sub	r27, r27
    62cc:	fd 01       	movw	r30, r26
    62ce:	0d c0       	rjmp	.+26     	; 0x62ea <__udivmodsi4_ep>

000062d0 <__udivmodsi4_loop>:
    62d0:	aa 1f       	adc	r26, r26
    62d2:	bb 1f       	adc	r27, r27
    62d4:	ee 1f       	adc	r30, r30
    62d6:	ff 1f       	adc	r31, r31
    62d8:	a2 17       	cp	r26, r18
    62da:	b3 07       	cpc	r27, r19
    62dc:	e4 07       	cpc	r30, r20
    62de:	f5 07       	cpc	r31, r21
    62e0:	20 f0       	brcs	.+8      	; 0x62ea <__udivmodsi4_ep>
    62e2:	a2 1b       	sub	r26, r18
    62e4:	b3 0b       	sbc	r27, r19
    62e6:	e4 0b       	sbc	r30, r20
    62e8:	f5 0b       	sbc	r31, r21

000062ea <__udivmodsi4_ep>:
    62ea:	66 1f       	adc	r22, r22
    62ec:	77 1f       	adc	r23, r23
    62ee:	88 1f       	adc	r24, r24
    62f0:	99 1f       	adc	r25, r25
    62f2:	1a 94       	dec	r1
    62f4:	69 f7       	brne	.-38     	; 0x62d0 <__udivmodsi4_loop>
    62f6:	60 95       	com	r22
    62f8:	70 95       	com	r23
    62fa:	80 95       	com	r24
    62fc:	90 95       	com	r25
    62fe:	9b 01       	movw	r18, r22
    6300:	ac 01       	movw	r20, r24
    6302:	bd 01       	movw	r22, r26
    6304:	cf 01       	movw	r24, r30
    6306:	08 95       	ret

00006308 <__tablejump2__>:
    6308:	ee 0f       	add	r30, r30
    630a:	ff 1f       	adc	r31, r31
    630c:	05 90       	lpm	r0, Z+
    630e:	f4 91       	lpm	r31, Z
    6310:	e0 2d       	mov	r30, r0
    6312:	09 94       	ijmp

00006314 <__usmulhisi3>:
    6314:	0e 94 a5 31 	call	0x634a	; 0x634a <__umulhisi3>

00006318 <__usmulhisi3_tail>:
    6318:	b7 ff       	sbrs	r27, 7
    631a:	08 95       	ret
    631c:	82 1b       	sub	r24, r18
    631e:	93 0b       	sbc	r25, r19
    6320:	08 95       	ret

00006322 <__udivmodhi4>:
    6322:	aa 1b       	sub	r26, r26
    6324:	bb 1b       	sub	r27, r27
    6326:	51 e1       	ldi	r21, 0x11	; 17
    6328:	07 c0       	rjmp	.+14     	; 0x6338 <__udivmodhi4_ep>

0000632a <__udivmodhi4_loop>:
    632a:	aa 1f       	adc	r26, r26
    632c:	bb 1f       	adc	r27, r27
    632e:	a6 17       	cp	r26, r22
    6330:	b7 07       	cpc	r27, r23
    6332:	10 f0       	brcs	.+4      	; 0x6338 <__udivmodhi4_ep>
    6334:	a6 1b       	sub	r26, r22
    6336:	b7 0b       	sbc	r27, r23

00006338 <__udivmodhi4_ep>:
    6338:	88 1f       	adc	r24, r24
    633a:	99 1f       	adc	r25, r25
    633c:	5a 95       	dec	r21
    633e:	a9 f7       	brne	.-22     	; 0x632a <__udivmodhi4_loop>
    6340:	80 95       	com	r24
    6342:	90 95       	com	r25
    6344:	bc 01       	movw	r22, r24
    6346:	cd 01       	movw	r24, r26
    6348:	08 95       	ret

0000634a <__umulhisi3>:
    634a:	a2 9f       	mul	r26, r18
    634c:	b0 01       	movw	r22, r0
    634e:	b3 9f       	mul	r27, r19
    6350:	c0 01       	movw	r24, r0
    6352:	a3 9f       	mul	r26, r19
    6354:	70 0d       	add	r23, r0
    6356:	81 1d       	adc	r24, r1
    6358:	11 24       	eor	r1, r1
    635a:	91 1d       	adc	r25, r1
    635c:	b2 9f       	mul	r27, r18
    635e:	70 0d       	add	r23, r0
    6360:	81 1d       	adc	r24, r1
    6362:	11 24       	eor	r1, r1
    6364:	91 1d       	adc	r25, r1
    6366:	08 95       	ret

00006368 <malloc>:
    6368:	0f 93       	push	r16
    636a:	1f 93       	push	r17
    636c:	cf 93       	push	r28
    636e:	df 93       	push	r29
    6370:	82 30       	cpi	r24, 0x02	; 2
    6372:	91 05       	cpc	r25, r1
    6374:	10 f4       	brcc	.+4      	; 0x637a <malloc+0x12>
    6376:	82 e0       	ldi	r24, 0x02	; 2
    6378:	90 e0       	ldi	r25, 0x00	; 0
    637a:	e0 91 d3 02 	lds	r30, 0x02D3	; 0x8002d3 <__flp>
    637e:	f0 91 d4 02 	lds	r31, 0x02D4	; 0x8002d4 <__flp+0x1>
    6382:	20 e0       	ldi	r18, 0x00	; 0
    6384:	30 e0       	ldi	r19, 0x00	; 0
    6386:	a0 e0       	ldi	r26, 0x00	; 0
    6388:	b0 e0       	ldi	r27, 0x00	; 0
    638a:	30 97       	sbiw	r30, 0x00	; 0
    638c:	19 f1       	breq	.+70     	; 0x63d4 <malloc+0x6c>
    638e:	40 81       	ld	r20, Z
    6390:	51 81       	ldd	r21, Z+1	; 0x01
    6392:	02 81       	ldd	r16, Z+2	; 0x02
    6394:	13 81       	ldd	r17, Z+3	; 0x03
    6396:	48 17       	cp	r20, r24
    6398:	59 07       	cpc	r21, r25
    639a:	c8 f0       	brcs	.+50     	; 0x63ce <malloc+0x66>
    639c:	84 17       	cp	r24, r20
    639e:	95 07       	cpc	r25, r21
    63a0:	69 f4       	brne	.+26     	; 0x63bc <malloc+0x54>
    63a2:	10 97       	sbiw	r26, 0x00	; 0
    63a4:	31 f0       	breq	.+12     	; 0x63b2 <malloc+0x4a>
    63a6:	12 96       	adiw	r26, 0x02	; 2
    63a8:	0c 93       	st	X, r16
    63aa:	12 97       	sbiw	r26, 0x02	; 2
    63ac:	13 96       	adiw	r26, 0x03	; 3
    63ae:	1c 93       	st	X, r17
    63b0:	27 c0       	rjmp	.+78     	; 0x6400 <malloc+0x98>
    63b2:	00 93 d3 02 	sts	0x02D3, r16	; 0x8002d3 <__flp>
    63b6:	10 93 d4 02 	sts	0x02D4, r17	; 0x8002d4 <__flp+0x1>
    63ba:	22 c0       	rjmp	.+68     	; 0x6400 <malloc+0x98>
    63bc:	21 15       	cp	r18, r1
    63be:	31 05       	cpc	r19, r1
    63c0:	19 f0       	breq	.+6      	; 0x63c8 <malloc+0x60>
    63c2:	42 17       	cp	r20, r18
    63c4:	53 07       	cpc	r21, r19
    63c6:	18 f4       	brcc	.+6      	; 0x63ce <malloc+0x66>
    63c8:	9a 01       	movw	r18, r20
    63ca:	bd 01       	movw	r22, r26
    63cc:	ef 01       	movw	r28, r30
    63ce:	df 01       	movw	r26, r30
    63d0:	f8 01       	movw	r30, r16
    63d2:	db cf       	rjmp	.-74     	; 0x638a <malloc+0x22>
    63d4:	21 15       	cp	r18, r1
    63d6:	31 05       	cpc	r19, r1
    63d8:	f9 f0       	breq	.+62     	; 0x6418 <malloc+0xb0>
    63da:	28 1b       	sub	r18, r24
    63dc:	39 0b       	sbc	r19, r25
    63de:	24 30       	cpi	r18, 0x04	; 4
    63e0:	31 05       	cpc	r19, r1
    63e2:	80 f4       	brcc	.+32     	; 0x6404 <malloc+0x9c>
    63e4:	8a 81       	ldd	r24, Y+2	; 0x02
    63e6:	9b 81       	ldd	r25, Y+3	; 0x03
    63e8:	61 15       	cp	r22, r1
    63ea:	71 05       	cpc	r23, r1
    63ec:	21 f0       	breq	.+8      	; 0x63f6 <malloc+0x8e>
    63ee:	fb 01       	movw	r30, r22
    63f0:	93 83       	std	Z+3, r25	; 0x03
    63f2:	82 83       	std	Z+2, r24	; 0x02
    63f4:	04 c0       	rjmp	.+8      	; 0x63fe <malloc+0x96>
    63f6:	90 93 d4 02 	sts	0x02D4, r25	; 0x8002d4 <__flp+0x1>
    63fa:	80 93 d3 02 	sts	0x02D3, r24	; 0x8002d3 <__flp>
    63fe:	fe 01       	movw	r30, r28
    6400:	32 96       	adiw	r30, 0x02	; 2
    6402:	44 c0       	rjmp	.+136    	; 0x648c <malloc+0x124>
    6404:	fe 01       	movw	r30, r28
    6406:	e2 0f       	add	r30, r18
    6408:	f3 1f       	adc	r31, r19
    640a:	81 93       	st	Z+, r24
    640c:	91 93       	st	Z+, r25
    640e:	22 50       	subi	r18, 0x02	; 2
    6410:	31 09       	sbc	r19, r1
    6412:	39 83       	std	Y+1, r19	; 0x01
    6414:	28 83       	st	Y, r18
    6416:	3a c0       	rjmp	.+116    	; 0x648c <malloc+0x124>
    6418:	20 91 d1 02 	lds	r18, 0x02D1	; 0x8002d1 <__brkval>
    641c:	30 91 d2 02 	lds	r19, 0x02D2	; 0x8002d2 <__brkval+0x1>
    6420:	23 2b       	or	r18, r19
    6422:	41 f4       	brne	.+16     	; 0x6434 <malloc+0xcc>
    6424:	20 91 02 01 	lds	r18, 0x0102	; 0x800102 <__malloc_heap_start>
    6428:	30 91 03 01 	lds	r19, 0x0103	; 0x800103 <__malloc_heap_start+0x1>
    642c:	30 93 d2 02 	sts	0x02D2, r19	; 0x8002d2 <__brkval+0x1>
    6430:	20 93 d1 02 	sts	0x02D1, r18	; 0x8002d1 <__brkval>
    6434:	20 91 00 01 	lds	r18, 0x0100	; 0x800100 <__DATA_REGION_ORIGIN__>
    6438:	30 91 01 01 	lds	r19, 0x0101	; 0x800101 <__DATA_REGION_ORIGIN__+0x1>
    643c:	21 15       	cp	r18, r1
    643e:	31 05       	cpc	r19, r1
    6440:	41 f4       	brne	.+16     	; 0x6452 <malloc+0xea>
    6442:	2d b7       	in	r18, 0x3d	; 61
    6444:	3e b7       	in	r19, 0x3e	; 62
    6446:	40 91 04 01 	lds	r20, 0x0104	; 0x800104 <__malloc_margin>
    644a:	50 91 05 01 	lds	r21, 0x0105	; 0x800105 <__malloc_margin+0x1>
    644e:	24 1b       	sub	r18, r20
    6450:	35 0b       	sbc	r19, r21
    6452:	e0 91 d1 02 	lds	r30, 0x02D1	; 0x8002d1 <__brkval>
    6456:	f0 91 d2 02 	lds	r31, 0x02D2	; 0x8002d2 <__brkval+0x1>
    645a:	e2 17       	cp	r30, r18
    645c:	f3 07       	cpc	r31, r19
    645e:	a0 f4       	brcc	.+40     	; 0x6488 <malloc+0x120>
    6460:	2e 1b       	sub	r18, r30
    6462:	3f 0b       	sbc	r19, r31
    6464:	28 17       	cp	r18, r24
    6466:	39 07       	cpc	r19, r25
    6468:	78 f0       	brcs	.+30     	; 0x6488 <malloc+0x120>
    646a:	ac 01       	movw	r20, r24
    646c:	4e 5f       	subi	r20, 0xFE	; 254
    646e:	5f 4f       	sbci	r21, 0xFF	; 255
    6470:	24 17       	cp	r18, r20
    6472:	35 07       	cpc	r19, r21
    6474:	48 f0       	brcs	.+18     	; 0x6488 <malloc+0x120>
    6476:	4e 0f       	add	r20, r30
    6478:	5f 1f       	adc	r21, r31
    647a:	50 93 d2 02 	sts	0x02D2, r21	; 0x8002d2 <__brkval+0x1>
    647e:	40 93 d1 02 	sts	0x02D1, r20	; 0x8002d1 <__brkval>
    6482:	81 93       	st	Z+, r24
    6484:	91 93       	st	Z+, r25
    6486:	02 c0       	rjmp	.+4      	; 0x648c <malloc+0x124>
    6488:	e0 e0       	ldi	r30, 0x00	; 0
    648a:	f0 e0       	ldi	r31, 0x00	; 0
    648c:	cf 01       	movw	r24, r30
    648e:	df 91       	pop	r29
    6490:	cf 91       	pop	r28
    6492:	1f 91       	pop	r17
    6494:	0f 91       	pop	r16
    6496:	08 95       	ret

00006498 <free>:
    6498:	cf 93       	push	r28
    649a:	df 93       	push	r29
    649c:	00 97       	sbiw	r24, 0x00	; 0
    649e:	09 f4       	brne	.+2      	; 0x64a2 <free+0xa>
    64a0:	81 c0       	rjmp	.+258    	; 0x65a4 <free+0x10c>
    64a2:	fc 01       	movw	r30, r24
    64a4:	32 97       	sbiw	r30, 0x02	; 2
    64a6:	13 82       	std	Z+3, r1	; 0x03
    64a8:	12 82       	std	Z+2, r1	; 0x02
    64aa:	a0 91 d3 02 	lds	r26, 0x02D3	; 0x8002d3 <__flp>
    64ae:	b0 91 d4 02 	lds	r27, 0x02D4	; 0x8002d4 <__flp+0x1>
    64b2:	10 97       	sbiw	r26, 0x00	; 0
    64b4:	81 f4       	brne	.+32     	; 0x64d6 <free+0x3e>
    64b6:	20 81       	ld	r18, Z
    64b8:	31 81       	ldd	r19, Z+1	; 0x01
    64ba:	82 0f       	add	r24, r18
    64bc:	93 1f       	adc	r25, r19
    64be:	20 91 d1 02 	lds	r18, 0x02D1	; 0x8002d1 <__brkval>
    64c2:	30 91 d2 02 	lds	r19, 0x02D2	; 0x8002d2 <__brkval+0x1>
    64c6:	28 17       	cp	r18, r24
    64c8:	39 07       	cpc	r19, r25
    64ca:	51 f5       	brne	.+84     	; 0x6520 <free+0x88>
    64cc:	f0 93 d2 02 	sts	0x02D2, r31	; 0x8002d2 <__brkval+0x1>
    64d0:	e0 93 d1 02 	sts	0x02D1, r30	; 0x8002d1 <__brkval>
    64d4:	67 c0       	rjmp	.+206    	; 0x65a4 <free+0x10c>
    64d6:	ed 01       	movw	r28, r26
    64d8:	20 e0       	ldi	r18, 0x00	; 0
    64da:	30 e0       	ldi	r19, 0x00	; 0
    64dc:	ce 17       	cp	r28, r30
    64de:	df 07       	cpc	r29, r31
    64e0:	40 f4       	brcc	.+16     	; 0x64f2 <free+0x5a>
    64e2:	4a 81       	ldd	r20, Y+2	; 0x02
    64e4:	5b 81       	ldd	r21, Y+3	; 0x03
    64e6:	9e 01       	movw	r18, r28
    64e8:	41 15       	cp	r20, r1
    64ea:	51 05       	cpc	r21, r1
    64ec:	f1 f0       	breq	.+60     	; 0x652a <free+0x92>
    64ee:	ea 01       	movw	r28, r20
    64f0:	f5 cf       	rjmp	.-22     	; 0x64dc <free+0x44>
    64f2:	d3 83       	std	Z+3, r29	; 0x03
    64f4:	c2 83       	std	Z+2, r28	; 0x02
    64f6:	40 81       	ld	r20, Z
    64f8:	51 81       	ldd	r21, Z+1	; 0x01
    64fa:	84 0f       	add	r24, r20
    64fc:	95 1f       	adc	r25, r21
    64fe:	c8 17       	cp	r28, r24
    6500:	d9 07       	cpc	r29, r25
    6502:	59 f4       	brne	.+22     	; 0x651a <free+0x82>
    6504:	88 81       	ld	r24, Y
    6506:	99 81       	ldd	r25, Y+1	; 0x01
    6508:	84 0f       	add	r24, r20
    650a:	95 1f       	adc	r25, r21
    650c:	02 96       	adiw	r24, 0x02	; 2
    650e:	91 83       	std	Z+1, r25	; 0x01
    6510:	80 83       	st	Z, r24
    6512:	8a 81       	ldd	r24, Y+2	; 0x02
    6514:	9b 81       	ldd	r25, Y+3	; 0x03
    6516:	93 83       	std	Z+3, r25	; 0x03
    6518:	82 83       	std	Z+2, r24	; 0x02
    651a:	21 15       	cp	r18, r1
    651c:	31 05       	cpc	r19, r1
    651e:	29 f4       	brne	.+10     	; 0x652a <free+0x92>
    6520:	f0 93 d4 02 	sts	0x02D4, r31	; 0x8002d4 <__flp+0x1>
    6524:	e0 93 d3 02 	sts	0x02D3, r30	; 0x8002d3 <__flp>
    6528:	3d c0       	rjmp	.+122    	; 0x65a4 <free+0x10c>
    652a:	e9 01       	movw	r28, r18
    652c:	fb 83       	std	Y+3, r31	; 0x03
    652e:	ea 83       	std	Y+2, r30	; 0x02
    6530:	49 91       	ld	r20, Y+
    6532:	59 91       	ld	r21, Y+
    6534:	c4 0f       	add	r28, r20
    6536:	d5 1f       	adc	r29, r21
    6538:	ec 17       	cp	r30, r28
    653a:	fd 07       	cpc	r31, r29
    653c:	61 f4       	brne	.+24     	; 0x6556 <free+0xbe>
    653e:	80 81       	ld	r24, Z
    6540:	91 81       	ldd	r25, Z+1	; 0x01
    6542:	84 0f       	add	r24, r20
    6544:	95 1f       	adc	r25, r21
    6546:	02 96       	adiw	r24, 0x02	; 2
    6548:	e9 01       	movw	r28, r18
    654a:	99 83       	std	Y+1, r25	; 0x01
    654c:	88 83       	st	Y, r24
    654e:	82 81       	ldd	r24, Z+2	; 0x02
    6550:	93 81       	ldd	r25, Z+3	; 0x03
    6552:	9b 83       	std	Y+3, r25	; 0x03
    6554:	8a 83       	std	Y+2, r24	; 0x02
    6556:	e0 e0       	ldi	r30, 0x00	; 0
    6558:	f0 e0       	ldi	r31, 0x00	; 0
    655a:	12 96       	adiw	r26, 0x02	; 2
    655c:	8d 91       	ld	r24, X+
    655e:	9c 91       	ld	r25, X
    6560:	13 97       	sbiw	r26, 0x03	; 3
    6562:	00 97       	sbiw	r24, 0x00	; 0
    6564:	19 f0       	breq	.+6      	; 0x656c <free+0xd4>
    6566:	fd 01       	movw	r30, r26
    6568:	dc 01       	movw	r26, r24
    656a:	f7 cf       	rjmp	.-18     	; 0x655a <free+0xc2>
    656c:	8d 91       	ld	r24, X+
    656e:	9c 91       	ld	r25, X
    6570:	11 97       	sbiw	r26, 0x01	; 1
    6572:	9d 01       	movw	r18, r26
    6574:	2e 5f       	subi	r18, 0xFE	; 254
    6576:	3f 4f       	sbci	r19, 0xFF	; 255
    6578:	82 0f       	add	r24, r18
    657a:	93 1f       	adc	r25, r19
    657c:	20 91 d1 02 	lds	r18, 0x02D1	; 0x8002d1 <__brkval>
    6580:	30 91 d2 02 	lds	r19, 0x02D2	; 0x8002d2 <__brkval+0x1>
    6584:	28 17       	cp	r18, r24
    6586:	39 07       	cpc	r19, r25
    6588:	69 f4       	brne	.+26     	; 0x65a4 <free+0x10c>
    658a:	30 97       	sbiw	r30, 0x00	; 0
    658c:	29 f4       	brne	.+10     	; 0x6598 <free+0x100>
    658e:	10 92 d4 02 	sts	0x02D4, r1	; 0x8002d4 <__flp+0x1>
    6592:	10 92 d3 02 	sts	0x02D3, r1	; 0x8002d3 <__flp>
    6596:	02 c0       	rjmp	.+4      	; 0x659c <free+0x104>
    6598:	13 82       	std	Z+3, r1	; 0x03
    659a:	12 82       	std	Z+2, r1	; 0x02
    659c:	b0 93 d2 02 	sts	0x02D2, r27	; 0x8002d2 <__brkval+0x1>
    65a0:	a0 93 d1 02 	sts	0x02D1, r26	; 0x8002d1 <__brkval>
    65a4:	df 91       	pop	r29
    65a6:	cf 91       	pop	r28
    65a8:	08 95       	ret

000065aa <eeprom_read_byte>:
    65aa:	f9 99       	sbic	0x1f, 1	; 31
    65ac:	fe cf       	rjmp	.-4      	; 0x65aa <eeprom_read_byte>
    65ae:	92 bd       	out	0x22, r25	; 34
    65b0:	81 bd       	out	0x21, r24	; 33
    65b2:	f8 9a       	sbi	0x1f, 0	; 31
    65b4:	99 27       	eor	r25, r25
    65b6:	80 b5       	in	r24, 0x20	; 32
    65b8:	08 95       	ret

000065ba <eeprom_write_byte>:
    65ba:	26 2f       	mov	r18, r22

000065bc <eeprom_write_r18>:
    65bc:	f9 99       	sbic	0x1f, 1	; 31
    65be:	fe cf       	rjmp	.-4      	; 0x65bc <eeprom_write_r18>
    65c0:	1f ba       	out	0x1f, r1	; 31
    65c2:	92 bd       	out	0x22, r25	; 34
    65c4:	81 bd       	out	0x21, r24	; 33
    65c6:	20 bd       	out	0x20, r18	; 32
    65c8:	0f b6       	in	r0, 0x3f	; 63
    65ca:	f8 94       	cli
    65cc:	fa 9a       	sbi	0x1f, 2	; 31
    65ce:	f9 9a       	sbi	0x1f, 1	; 31
    65d0:	0f be       	out	0x3f, r0	; 63
    65d2:	01 96       	adiw	r24, 0x01	; 1
    65d4:	08 95       	ret

000065d6 <_exit>:
    65d6:	f8 94       	cli

000065d8 <__stop_program>:
    65d8:	ff cf       	rjmp	.-2      	; 0x65d8 <__stop_program>
